{
 "array_types" :
 [
  {
   "alignment" : 1,
   "linker_set_key" : "_ZTIA0_c",
   "name" : "char[0]",
   "referenced_type" : "_ZTIc",
   "source_file" : "system/core/property_service/libpropertyinfoparser/include/property_info_parser/property_info_parser.h"
  },
  {
   "alignment" : 1,
   "linker_set_key" : "_ZTIA1025_c",
   "name" : "char[1025]",
   "referenced_type" : "_ZTIc",
   "size" : 1025,
   "source_file" : "bionic/libc/include/arpa/nameser.h"
  },
  {
   "alignment" : 1,
   "linker_set_key" : "_ZTIA108_c",
   "name" : "char[108]",
   "referenced_type" : "_ZTIc",
   "size" : 108,
   "source_file" : "bionic/libc/kernel/uapi/linux/un.h"
  },
  {
   "alignment" : 4,
   "linker_set_key" : "_ZTIA10_i",
   "name" : "int[10]",
   "referenced_type" : "_ZTIi",
   "size" : 40,
   "source_file" : "bionic/libc/include/bits/pthread_types.h"
  },
  {
   "alignment" : 1,
   "linker_set_key" : "_ZTIA120_c",
   "name" : "char[120]",
   "referenced_type" : "_ZTIc",
   "size" : 120,
   "source_file" : "bionic/libc/include/sys/ucontext.h"
  },
  {
   "alignment" : 1,
   "linker_set_key" : "_ZTIA126_c",
   "name" : "char[126]",
   "referenced_type" : "_ZTIc",
   "size" : 126,
   "source_file" : "bionic/libc/include/bits/sockaddr_storage.h"
  },
  {
   "alignment" : 1,
   "linker_set_key" : "_ZTIA128_c",
   "name" : "char[128]",
   "referenced_type" : "_ZTIc",
   "size" : 128,
   "source_file" : "bionic/libc/system_properties/include/system_properties/properties_filename.h"
  },
  {
   "alignment" : 4,
   "linker_set_key" : "_ZTIA128_m",
   "name" : "unsigned long[128]",
   "referenced_type" : "_ZTIm",
   "size" : 512,
   "source_file" : "bionic/libc/include/sys/ucontext.h"
  },
  {
   "alignment" : 8,
   "linker_set_key" : "_ZTIA12_y",
   "name" : "unsigned long long[12]",
   "referenced_type" : "_ZTIy",
   "size" : 96,
   "source_file" : "bionic/libc/kernel/uapi/linux/stat.h"
  },
  {
   "alignment" : 4,
   "linker_set_key" : "_ZTIA13_i",
   "name" : "int[13]",
   "referenced_type" : "_ZTIi",
   "size" : 52,
   "source_file" : "bionic/libc/kernel/uapi/asm-generic/siginfo.h"
  },
  {
   "alignment" : 4,
   "linker_set_key" : "_ZTIA13_j",
   "name" : "unsigned int[13]",
   "referenced_type" : "_ZTIj",
   "size" : 52,
   "source_file" : "bionic/libc/kernel/uapi/linux/fscrypt.h"
  },
  {
   "alignment" : 1,
   "linker_set_key" : "_ZTIA14_c",
   "name" : "char[14]",
   "referenced_type" : "_ZTIc",
   "size" : 14,
   "source_file" : "bionic/libc/include/sys/socket.h"
  },
  {
   "alignment" : 1,
   "linker_set_key" : "_ZTIA14_h",
   "name" : "unsigned char[14]",
   "referenced_type" : "_ZTIh",
   "size" : 14,
   "source_file" : "bionic/libc/kernel/uapi/linux/if_packet.h"
  },
  {
   "alignment" : 1,
   "linker_set_key" : "_ZTIA16_c",
   "name" : "char[16]",
   "referenced_type" : "_ZTIc",
   "size" : 16,
   "source_file" : "bionic/libc/kernel/uapi/linux/hdlc/ioctl.h"
  },
  {
   "alignment" : 1,
   "linker_set_key" : "_ZTIA16_h",
   "name" : "unsigned char[16]",
   "referenced_type" : "_ZTIh",
   "size" : 16,
   "source_file" : "bionic/libc/kernel/uapi/linux/elf.h"
  },
  {
   "alignment" : 4,
   "linker_set_key" : "_ZTIA18_l",
   "name" : "long[18]",
   "referenced_type" : "_ZTIl",
   "size" : 72,
   "source_file" : "bionic/libc/kernel/uapi/asm-arm/asm/ptrace.h"
  },
  {
   "alignment" : 4,
   "linker_set_key" : "_ZTIA18_m",
   "name" : "unsigned long[18]",
   "referenced_type" : "_ZTIm",
   "size" : 72,
   "source_file" : "bionic/libc/include/sys/user.h"
  },
  {
   "alignment" : 1,
   "linker_set_key" : "_ZTIA19_h",
   "name" : "unsigned char[19]",
   "referenced_type" : "_ZTIh",
   "size" : 19,
   "source_file" : "bionic/libc/kernel/uapi/asm-generic/termbits.h"
  },
  {
   "alignment" : 4,
   "linker_set_key" : "_ZTIA1_16sockaddr_storage",
   "name" : "sockaddr_storage[1]",
   "referenced_type" : "_ZTI16sockaddr_storage",
   "size" : 128,
   "source_file" : "bionic/libc/kernel/uapi/linux/in.h"
  },
  {
   "alignment" : 4,
   "linker_set_key" : "_ZTIA1_7in_addr",
   "name" : "in_addr[1]",
   "referenced_type" : "_ZTI7in_addr",
   "size" : 4,
   "source_file" : "bionic/libc/include/bits/ip_msfilter.h"
  },
  {
   "alignment" : 1,
   "linker_set_key" : "_ZTIA1_c",
   "name" : "char[1]",
   "referenced_type" : "_ZTIc",
   "size" : 1,
   "source_file" : "bionic/libc/include/fts.h"
  },
  {
   "alignment" : 4,
   "linker_set_key" : "_ZTIA1_i",
   "name" : "int[1]",
   "referenced_type" : "_ZTIi",
   "size" : 4,
   "source_file" : "bionic/libc/include/bits/pthread_types.h"
  },
  {
   "alignment" : 4,
   "linker_set_key" : "_ZTIA1_m",
   "name" : "unsigned long[1]",
   "referenced_type" : "_ZTIm",
   "size" : 4,
   "source_file" : "bionic/libc/include/sched.h"
  },
  {
   "alignment" : 2,
   "linker_set_key" : "_ZTIA1_t",
   "name" : "unsigned short[1]",
   "referenced_type" : "_ZTIt",
   "size" : 2,
   "source_file" : "bionic/libc/kernel/uapi/linux/stat.h"
  },
  {
   "alignment" : 1,
   "linker_set_key" : "_ZTIA20_c",
   "name" : "char[20]",
   "referenced_type" : "_ZTIc",
   "size" : 20,
   "source_file" : "bionic/libc/include/utmp.h"
  },
  {
   "alignment" : 1,
   "linker_set_key" : "_ZTIA256_c",
   "name" : "char[256]",
   "referenced_type" : "_ZTIc",
   "size" : 256,
   "source_file" : "bionic/libc/include/dirent.h"
  },
  {
   "alignment" : 1,
   "linker_set_key" : "_ZTIA256_h",
   "name" : "unsigned char[256]",
   "referenced_type" : "_ZTIh",
   "size" : 256,
   "source_file" : "bionic/libc/include/arpa/nameser.h"
  },
  {
   "alignment" : 4,
   "linker_set_key" : "_ZTIA25_PKh",
   "name" : "const unsigned char *[25]",
   "referenced_type" : "_ZTIPKh",
   "size" : 100,
   "source_file" : "bionic/libc/include/arpa/nameser.h"
  },
  {
   "alignment" : 1,
   "linker_set_key" : "_ZTIA288_c",
   "name" : "char[288]",
   "referenced_type" : "_ZTIc",
   "size" : 288,
   "source_file" : "bionic/libc/system_properties/include/system_properties/system_properties.h"
  },
  {
   "alignment" : 1,
   "linker_set_key" : "_ZTIA28_h",
   "name" : "unsigned char[28]",
   "referenced_type" : "_ZTIh",
   "size" : 28,
   "source_file" : "bionic/libc/kernel/uapi/linux/signalfd.h"
  },
  {
   "alignment" : 4,
   "linker_set_key" : "_ZTIA28_j",
   "name" : "unsigned int[28]",
   "referenced_type" : "_ZTIj",
   "size" : 112,
   "source_file" : "bionic/libc/system_properties/include/system_properties/prop_area.h"
  },
  {
   "alignment" : 1,
   "linker_set_key" : "_ZTIA2_h",
   "name" : "unsigned char[2]",
   "referenced_type" : "_ZTIh",
   "size" : 2,
   "source_file" : "bionic/libc/kernel/uapi/linux/if_link.h"
  },
  {
   "alignment" : 4,
   "linker_set_key" : "_ZTIA2_i",
   "name" : "int[2]",
   "referenced_type" : "_ZTIi",
   "size" : 8,
   "source_file" : "bionic/libc/kernel/uapi/asm-generic/posix_types.h"
  },
  {
   "alignment" : 4,
   "linker_set_key" : "_ZTIA2_m",
   "name" : "unsigned long[2]",
   "referenced_type" : "_ZTIm",
   "size" : 8,
   "source_file" : "bionic/libc/include/bits/signal_types.h"
  },
  {
   "alignment" : 1,
   "linker_set_key" : "_ZTIA32_c",
   "name" : "char[32]",
   "referenced_type" : "_ZTIc",
   "size" : 32,
   "source_file" : "bionic/libc/include/sys/user.h"
  },
  {
   "alignment" : 1,
   "linker_set_key" : "_ZTIA32_h",
   "name" : "unsigned char[32]",
   "referenced_type" : "_ZTIh",
   "size" : 32,
   "source_file" : "bionic/libc/kernel/uapi/linux/if_link.h"
  },
  {
   "alignment" : 4,
   "linker_set_key" : "_ZTIA32_i",
   "name" : "int[32]",
   "referenced_type" : "_ZTIi",
   "size" : 128,
   "source_file" : "bionic/libc/kernel/uapi/asm-generic/siginfo.h"
  },
  {
   "alignment" : 4,
   "linker_set_key" : "_ZTIA32_m",
   "name" : "unsigned long[32]",
   "referenced_type" : "_ZTIm",
   "size" : 128,
   "source_file" : "bionic/libc/kernel/uapi/linux/posix_types.h"
  },
  {
   "alignment" : 8,
   "linker_set_key" : "_ZTIA32_y",
   "name" : "unsigned long long[32]",
   "referenced_type" : "_ZTIy",
   "size" : 256,
   "source_file" : "bionic/libc/include/sys/user.h"
  },
  {
   "alignment" : 1,
   "linker_set_key" : "_ZTIA34_c",
   "name" : "char[34]",
   "referenced_type" : "_ZTIc",
   "size" : 34,
   "source_file" : "system/core/property_service/libpropertyinfoparser/include/property_info_parser/property_info_parser.h"
  },
  {
   "alignment" : 1,
   "linker_set_key" : "_ZTIA3_h",
   "name" : "unsigned char[3]",
   "referenced_type" : "_ZTIh",
   "size" : 3,
   "source_file" : "bionic/libc/kernel/uapi/linux/ipv6.h"
  },
  {
   "alignment" : 4,
   "linker_set_key" : "_ZTIA3_m",
   "name" : "unsigned long[3]",
   "referenced_type" : "_ZTIm",
   "size" : 12,
   "source_file" : "bionic/libc/kernel/uapi/linux/sysinfo.h"
  },
  {
   "alignment" : 4,
   "linker_set_key" : "_ZTIA4_PKh",
   "name" : "const unsigned char *[4]",
   "referenced_type" : "_ZTIPKh",
   "size" : 16,
   "source_file" : "bionic/libc/include/arpa/nameser.h"
  },
  {
   "alignment" : 1,
   "linker_set_key" : "_ZTIA4_c",
   "name" : "char[4]",
   "referenced_type" : "_ZTIc",
   "size" : 4,
   "source_file" : "bionic/libc/kernel/uapi/asm-generic/siginfo.h"
  },
  {
   "alignment" : 1,
   "linker_set_key" : "_ZTIA4_h",
   "name" : "unsigned char[4]",
   "referenced_type" : "_ZTIh",
   "size" : 4,
   "source_file" : "bionic/libc/include/bits/mbstate_t.h"
  },
  {
   "alignment" : 4,
   "linker_set_key" : "_ZTIA4_i",
   "name" : "int[4]",
   "referenced_type" : "_ZTIi",
   "size" : 16,
   "source_file" : "bionic/libc/include/utmp.h"
  },
  {
   "alignment" : 4,
   "linker_set_key" : "_ZTIA4_j",
   "name" : "unsigned int[4]",
   "referenced_type" : "_ZTIj",
   "size" : 16,
   "source_file" : "bionic/libc/kernel/uapi/linux/in6.h"
  },
  {
   "alignment" : 2,
   "linker_set_key" : "_ZTIA4_t",
   "name" : "unsigned short[4]",
   "referenced_type" : "_ZTIt",
   "size" : 8,
   "source_file" : "bionic/libc/include/arpa/nameser.h"
  },
  {
   "alignment" : 8,
   "linker_set_key" : "_ZTIA50_y",
   "name" : "unsigned long long[50]",
   "referenced_type" : "_ZTIy",
   "size" : 400,
   "source_file" : "bionic/libc/kernel/uapi/linux/mount.h"
  },
  {
   "alignment" : 1,
   "linker_set_key" : "_ZTIA512_h",
   "name" : "unsigned char[512]",
   "referenced_type" : "_ZTIh",
   "size" : 512,
   "source_file" : "bionic/libc/include/arpa/nameser.h"
  },
  {
   "alignment" : 1,
   "linker_set_key" : "_ZTIA56_c",
   "name" : "char[56]",
   "referenced_type" : "_ZTIc",
   "size" : 56,
   "source_file" : "bionic/libc/system_properties/include/system_properties/prop_info.h"
  },
  {
   "alignment" : 4,
   "linker_set_key" : "_ZTIA5_j",
   "name" : "unsigned int[5]",
   "referenced_type" : "_ZTIj",
   "size" : 20,
   "source_file" : "bionic/libc/kernel/uapi/linux/fscrypt.h"
  },
  {
   "alignment" : 4,
   "linker_set_key" : "_ZTIA5_l",
   "name" : "long[5]",
   "referenced_type" : "_ZTIl",
   "size" : 20,
   "source_file" : "bionic/libc/kernel/uapi/linux/fs.h"
  },
  {
   "alignment" : 1,
   "linker_set_key" : "_ZTIA64_h",
   "name" : "unsigned char[64]",
   "referenced_type" : "_ZTIh",
   "size" : 64,
   "source_file" : "bionic/libc/kernel/uapi/linux/fscrypt.h"
  },
  {
   "alignment" : 4,
   "linker_set_key" : "_ZTIA65_PKc",
   "name" : "const char *[65]",
   "referenced_type" : "_ZTIPKc",
   "size" : 260,
   "source_file" : "bionic/libc/include/signal.h"
  },
  {
   "alignment" : 1,
   "linker_set_key" : "_ZTIA65_c",
   "name" : "char[65]",
   "referenced_type" : "_ZTIc",
   "size" : 65,
   "source_file" : "bionic/libc/include/sys/utsname.h"
  },
  {
   "alignment" : 1,
   "linker_set_key" : "_ZTIA6_h",
   "name" : "unsigned char[6]",
   "referenced_type" : "_ZTIh",
   "size" : 6,
   "source_file" : "bionic/libc/kernel/uapi/linux/if_link.h"
  },
  {
   "alignment" : 4,
   "linker_set_key" : "_ZTIA6_j",
   "name" : "unsigned int[6]",
   "referenced_type" : "_ZTIj",
   "size" : 24,
   "source_file" : "bionic/libc/kernel/uapi/linux/fscrypt.h"
  },
  {
   "alignment" : 8,
   "linker_set_key" : "_ZTIA6_y",
   "name" : "unsigned long long[6]",
   "referenced_type" : "_ZTIy",
   "size" : 48,
   "source_file" : "bionic/libc/kernel/uapi/linux/ptrace.h"
  },
  {
   "alignment" : 4,
   "linker_set_key" : "_ZTIA7_j",
   "name" : "unsigned int[7]",
   "referenced_type" : "_ZTIj",
   "size" : 28,
   "source_file" : "bionic/libc/kernel/uapi/linux/fscrypt.h"
  },
  {
   "alignment" : 4,
   "linker_set_key" : "_ZTIA8_6fp_reg",
   "name" : "fp_reg[8]",
   "referenced_type" : "_ZTI6fp_reg",
   "size" : 96,
   "source_file" : "bionic/libc/include/sys/user.h"
  },
  {
   "alignment" : 4,
   "linker_set_key" : "_ZTIA8_N11user_fpregs6fp_regE",
   "name" : "user_fpregs::fp_reg[8]",
   "referenced_type" : "_ZTIN11user_fpregs6fp_regE",
   "size" : 96,
   "source_file" : "bionic/libc/include/sys/user.h"
  },
  {
   "alignment" : 1,
   "linker_set_key" : "_ZTIA8_c",
   "name" : "char[8]",
   "referenced_type" : "_ZTIc",
   "size" : 8,
   "source_file" : "bionic/libc/kernel/uapi/linux/sysinfo.h"
  },
  {
   "alignment" : 1,
   "linker_set_key" : "_ZTIA8_h",
   "name" : "unsigned char[8]",
   "referenced_type" : "_ZTIh",
   "size" : 8,
   "source_file" : "bionic/libc/include/sys/user.h"
  },
  {
   "alignment" : 4,
   "linker_set_key" : "_ZTIA8_i",
   "name" : "int[8]",
   "referenced_type" : "_ZTIi",
   "size" : 32,
   "source_file" : "bionic/libc/include/bits/pthread_types.h"
  },
  {
   "alignment" : 2,
   "linker_set_key" : "_ZTIA8_t",
   "name" : "unsigned short[8]",
   "referenced_type" : "_ZTIt",
   "size" : 16,
   "source_file" : "bionic/libc/kernel/uapi/linux/in6.h"
  },
  {
   "alignment" : 1,
   "linker_set_key" : "_ZTIA92_c",
   "name" : "char[92]",
   "referenced_type" : "_ZTIc",
   "size" : 92,
   "source_file" : "bionic/libc/system_properties/include/system_properties/prop_info.h"
  },
  {
   "is_of_unknown_bound" : true,
   "linker_set_key" : "_ZTIA_16sockaddr_storage",
   "name" : "sockaddr_storage[]",
   "referenced_type" : "_ZTI16sockaddr_storage",
   "source_file" : "bionic/libc/kernel/uapi/linux/in.h"
  },
  {
   "is_of_unknown_bound" : true,
   "linker_set_key" : "_ZTIA_22file_dedupe_range_info",
   "name" : "file_dedupe_range_info[]",
   "referenced_type" : "_ZTI22file_dedupe_range_info",
   "source_file" : "bionic/libc/kernel/uapi/linux/fs.h"
  },
  {
   "is_of_unknown_bound" : true,
   "linker_set_key" : "_ZTIA_8in6_addr",
   "name" : "in6_addr[]",
   "referenced_type" : "_ZTI8in6_addr",
   "source_file" : "bionic/libc/kernel/uapi/linux/ipv6.h"
  },
  {
   "is_of_unknown_bound" : true,
   "linker_set_key" : "_ZTIA_Pc",
   "name" : "char *[]",
   "referenced_type" : "_ZTIPc",
   "source_file" : "bionic/libc/include/time.h"
  },
  {
   "is_of_unknown_bound" : true,
   "linker_set_key" : "_ZTIA_c",
   "name" : "char[]",
   "referenced_type" : "_ZTIc",
   "source_file" : "bionic/libc/kernel/uapi/linux/inotify.h"
  },
  {
   "is_of_unknown_bound" : true,
   "linker_set_key" : "_ZTIA_h",
   "name" : "unsigned char[]",
   "referenced_type" : "_ZTIh",
   "source_file" : "bionic/libc/kernel/uapi/linux/rtnetlink.h"
  },
  {
   "is_of_unknown_bound" : true,
   "linker_set_key" : "_ZTIA_j",
   "name" : "unsigned int[]",
   "referenced_type" : "_ZTIj",
   "source_file" : "bionic/libc/kernel/uapi/linux/random.h"
  }
 ],
 "builtin_types" :
 [
  {
   "alignment" : 4,
   "is_integral" : true,
   "is_unsigned" : true,
   "linker_set_key" : "_ZTIDi",
   "name" : "char32_t",
   "size" : 4
  },
  {
   "alignment" : 2,
   "is_integral" : true,
   "is_unsigned" : true,
   "linker_set_key" : "_ZTIDs",
   "name" : "char16_t",
   "size" : 2
  },
  {
   "alignment" : 1,
   "is_integral" : true,
   "is_unsigned" : true,
   "linker_set_key" : "_ZTIb",
   "name" : "bool",
   "size" : 1
  },
  {
   "alignment" : 1,
   "is_integral" : true,
   "is_unsigned" : true,
   "linker_set_key" : "_ZTIc",
   "name" : "char",
   "size" : 1
  },
  {
   "alignment" : 8,
   "linker_set_key" : "_ZTId",
   "name" : "double",
   "size" : 8
  },
  {
   "alignment" : 8,
   "linker_set_key" : "_ZTIe",
   "name" : "long double",
   "size" : 8
  },
  {
   "alignment" : 4,
   "linker_set_key" : "_ZTIf",
   "name" : "float",
   "size" : 4
  },
  {
   "alignment" : 1,
   "is_integral" : true,
   "is_unsigned" : true,
   "linker_set_key" : "_ZTIh",
   "name" : "unsigned char",
   "size" : 1
  },
  {
   "alignment" : 4,
   "is_integral" : true,
   "linker_set_key" : "_ZTIi",
   "name" : "int",
   "size" : 4
  },
  {
   "alignment" : 4,
   "is_integral" : true,
   "is_unsigned" : true,
   "linker_set_key" : "_ZTIj",
   "name" : "unsigned int",
   "size" : 4
  },
  {
   "alignment" : 4,
   "is_integral" : true,
   "linker_set_key" : "_ZTIl",
   "name" : "long",
   "size" : 4
  },
  {
   "alignment" : 4,
   "is_integral" : true,
   "is_unsigned" : true,
   "linker_set_key" : "_ZTIm",
   "name" : "unsigned long",
   "size" : 4
  },
  {
   "alignment" : 2,
   "is_integral" : true,
   "linker_set_key" : "_ZTIs",
   "name" : "short",
   "size" : 2
  },
  {
   "alignment" : 2,
   "is_integral" : true,
   "is_unsigned" : true,
   "linker_set_key" : "_ZTIt",
   "name" : "unsigned short",
   "size" : 2
  },
  {
   "linker_set_key" : "_ZTIv",
   "name" : "void"
  },
  {
   "alignment" : 4,
   "is_integral" : true,
   "is_unsigned" : true,
   "linker_set_key" : "_ZTIw",
   "name" : "wchar_t",
   "size" : 4
  },
  {
   "alignment" : 8,
   "is_integral" : true,
   "linker_set_key" : "_ZTIx",
   "name" : "long long",
   "size" : 8
  },
  {
   "alignment" : 8,
   "is_integral" : true,
   "is_unsigned" : true,
   "linker_set_key" : "_ZTIy",
   "name" : "unsigned long long",
   "size" : 8
  }
 ],
 "elf_functions" :
 [
  {
   "name" : "_Exit"
  },
  {
   "name" : "_Fork"
  },
  {
   "name" : "_Unwind_Backtrace"
  },
  {
   "name" : "_Unwind_Complete"
  },
  {
   "name" : "_Unwind_DeleteException"
  },
  {
   "name" : "_Unwind_FindEnclosingFunction"
  },
  {
   "name" : "_Unwind_Find_FDE"
  },
  {
   "name" : "_Unwind_GetCFA"
  },
  {
   "name" : "_Unwind_GetDataRelBase"
  },
  {
   "name" : "_Unwind_GetGR"
  },
  {
   "name" : "_Unwind_GetIP"
  },
  {
   "name" : "_Unwind_GetIPInfo"
  },
  {
   "name" : "_Unwind_GetLanguageSpecificData"
  },
  {
   "name" : "_Unwind_GetRegionStart"
  },
  {
   "name" : "_Unwind_GetTextRelBase"
  },
  {
   "name" : "_Unwind_RaiseException"
  },
  {
   "name" : "_Unwind_Resume"
  },
  {
   "name" : "_Unwind_Resume_or_Rethrow"
  },
  {
   "name" : "_Unwind_SetGR"
  },
  {
   "name" : "_Unwind_SetIP"
  },
  {
   "name" : "_Unwind_VRS_Get"
  },
  {
   "name" : "_Unwind_VRS_Pop"
  },
  {
   "name" : "_Unwind_VRS_Set"
  },
  {
   "name" : "__FD_CLR_chk"
  },
  {
   "name" : "__FD_ISSET_chk"
  },
  {
   "name" : "__FD_SET_chk"
  },
  {
   "binding" : "weak",
   "name" : "__aeabi_atexit"
  },
  {
   "binding" : "weak",
   "name" : "__aeabi_memclr"
  },
  {
   "binding" : "weak",
   "name" : "__aeabi_memclr4"
  },
  {
   "binding" : "weak",
   "name" : "__aeabi_memclr8"
  },
  {
   "binding" : "weak",
   "name" : "__aeabi_memcpy"
  },
  {
   "binding" : "weak",
   "name" : "__aeabi_memcpy4"
  },
  {
   "binding" : "weak",
   "name" : "__aeabi_memcpy8"
  },
  {
   "binding" : "weak",
   "name" : "__aeabi_memmove"
  },
  {
   "binding" : "weak",
   "name" : "__aeabi_memmove4"
  },
  {
   "binding" : "weak",
   "name" : "__aeabi_memmove8"
  },
  {
   "binding" : "weak",
   "name" : "__aeabi_memset"
  },
  {
   "binding" : "weak",
   "name" : "__aeabi_memset4"
  },
  {
   "binding" : "weak",
   "name" : "__aeabi_memset8"
  },
  {
   "name" : "__aeabi_read_tp"
  },
  {
   "name" : "__aeabi_unwind_cpp_pr0"
  },
  {
   "name" : "__aeabi_unwind_cpp_pr1"
  },
  {
   "name" : "__aeabi_unwind_cpp_pr2"
  },
  {
   "name" : "__assert"
  },
  {
   "name" : "__assert2"
  },
  {
   "name" : "__atomic_cmpxchg"
  },
  {
   "name" : "__atomic_dec"
  },
  {
   "name" : "__atomic_inc"
  },
  {
   "name" : "__atomic_swap"
  },
  {
   "name" : "__b64_ntop"
  },
  {
   "name" : "__b64_pton"
  },
  {
   "name" : "__cmsg_nxthdr"
  },
  {
   "name" : "__connect"
  },
  {
   "name" : "__ctype_get_mb_cur_max"
  },
  {
   "name" : "__cxa_atexit"
  },
  {
   "name" : "__cxa_finalize"
  },
  {
   "name" : "__cxa_thread_atexit_impl"
  },
  {
   "name" : "__dn_comp"
  },
  {
   "name" : "__dn_count_labels"
  },
  {
   "name" : "__dn_skipname"
  },
  {
   "name" : "__epoll_pwait"
  },
  {
   "name" : "__errno"
  },
  {
   "name" : "__exit"
  },
  {
   "name" : "__fbufsize"
  },
  {
   "name" : "__fcntl64"
  },
  {
   "name" : "__fgets_chk"
  },
  {
   "name" : "__flbf"
  },
  {
   "name" : "__fp_nquery"
  },
  {
   "name" : "__fp_query"
  },
  {
   "name" : "__fpclassify"
  },
  {
   "name" : "__fpclassifyd"
  },
  {
   "name" : "__fpclassifyf"
  },
  {
   "name" : "__fpclassifyl"
  },
  {
   "name" : "__fpending"
  },
  {
   "name" : "__fpurge"
  },
  {
   "name" : "__fread_chk"
  },
  {
   "name" : "__freadable"
  },
  {
   "name" : "__freadahead"
  },
  {
   "name" : "__freading"
  },
  {
   "name" : "__fseterr"
  },
  {
   "name" : "__fsetlocking"
  },
  {
   "name" : "__fstatfs64"
  },
  {
   "name" : "__fwritable"
  },
  {
   "name" : "__fwrite_chk"
  },
  {
   "name" : "__fwriting"
  },
  {
   "name" : "__get_h_errno"
  },
  {
   "name" : "__getcpu"
  },
  {
   "name" : "__getcwd"
  },
  {
   "name" : "__getcwd_chk"
  },
  {
   "name" : "__getpid"
  },
  {
   "name" : "__getpriority"
  },
  {
   "name" : "__gnu_Unwind_Find_exidx"
  },
  {
   "name" : "__gnu_basename"
  },
  {
   "name" : "__gnu_strerror_r"
  },
  {
   "name" : "__gnu_unwind_frame"
  },
  {
   "name" : "__hostalias"
  },
  {
   "name" : "__ioctl"
  },
  {
   "name" : "__isfinite"
  },
  {
   "name" : "__isfinitef"
  },
  {
   "name" : "__isfinitel"
  },
  {
   "name" : "__isinf"
  },
  {
   "name" : "__isinff"
  },
  {
   "name" : "__isinfl"
  },
  {
   "name" : "__isnan"
  },
  {
   "name" : "__isnanf"
  },
  {
   "name" : "__isnanl"
  },
  {
   "name" : "__isnormal"
  },
  {
   "name" : "__isnormalf"
  },
  {
   "name" : "__isnormall"
  },
  {
   "name" : "__libc_current_sigrtmax"
  },
  {
   "name" : "__libc_current_sigrtmin"
  },
  {
   "name" : "__libc_get_static_tls_bounds"
  },
  {
   "name" : "__libc_init"
  },
  {
   "name" : "__libc_iterate_dynamic_tls"
  },
  {
   "name" : "__libc_register_dynamic_tls_listeners"
  },
  {
   "name" : "__libc_register_thread_exit_callback"
  },
  {
   "name" : "__llseek"
  },
  {
   "name" : "__loc_aton"
  },
  {
   "name" : "__loc_ntoa"
  },
  {
   "name" : "__memchr_chk"
  },
  {
   "name" : "__memcpy_chk"
  },
  {
   "name" : "__memmove_chk"
  },
  {
   "name" : "__mempcpy_chk"
  },
  {
   "name" : "__memrchr_chk"
  },
  {
   "name" : "__memset_chk"
  },
  {
   "name" : "__mmap2"
  },
  {
   "name" : "__ns_format_ttl"
  },
  {
   "name" : "__ns_get16"
  },
  {
   "name" : "__ns_get32"
  },
  {
   "name" : "__ns_initparse"
  },
  {
   "name" : "__ns_makecanon"
  },
  {
   "name" : "__ns_msg_getflag"
  },
  {
   "name" : "__ns_name_compress"
  },
  {
   "name" : "__ns_name_ntol"
  },
  {
   "name" : "__ns_name_ntop"
  },
  {
   "name" : "__ns_name_pack"
  },
  {
   "name" : "__ns_name_pton"
  },
  {
   "name" : "__ns_name_rollback"
  },
  {
   "name" : "__ns_name_skip"
  },
  {
   "name" : "__ns_name_uncompress"
  },
  {
   "name" : "__ns_name_unpack"
  },
  {
   "name" : "__ns_parserr"
  },
  {
   "name" : "__ns_put16"
  },
  {
   "name" : "__ns_put32"
  },
  {
   "name" : "__ns_samename"
  },
  {
   "name" : "__ns_skiprr"
  },
  {
   "name" : "__ns_sprintrr"
  },
  {
   "name" : "__ns_sprintrrf"
  },
  {
   "name" : "__open_2"
  },
  {
   "name" : "__openat"
  },
  {
   "name" : "__openat_2"
  },
  {
   "name" : "__p_cdname"
  },
  {
   "name" : "__p_cdnname"
  },
  {
   "name" : "__p_class"
  },
  {
   "name" : "__p_fqname"
  },
  {
   "name" : "__p_fqnname"
  },
  {
   "name" : "__p_option"
  },
  {
   "name" : "__p_query"
  },
  {
   "name" : "__p_rcode"
  },
  {
   "name" : "__p_secstodate"
  },
  {
   "name" : "__p_time"
  },
  {
   "name" : "__p_type"
  },
  {
   "name" : "__poll_chk"
  },
  {
   "name" : "__ppoll"
  },
  {
   "name" : "__ppoll64_chk"
  },
  {
   "name" : "__ppoll_chk"
  },
  {
   "name" : "__pread64_chk"
  },
  {
   "name" : "__pread_chk"
  },
  {
   "name" : "__pselect6"
  },
  {
   "name" : "__pthread_cleanup_pop"
  },
  {
   "name" : "__pthread_cleanup_push"
  },
  {
   "name" : "__ptrace"
  },
  {
   "name" : "__putlong"
  },
  {
   "name" : "__putshort"
  },
  {
   "name" : "__pwrite64_chk"
  },
  {
   "name" : "__pwrite_chk"
  },
  {
   "name" : "__read_chk"
  },
  {
   "name" : "__readlink_chk"
  },
  {
   "name" : "__readlinkat_chk"
  },
  {
   "name" : "__reboot"
  },
  {
   "name" : "__recvfrom_chk"
  },
  {
   "name" : "__register_atfork"
  },
  {
   "name" : "__res_close"
  },
  {
   "name" : "__res_dnok"
  },
  {
   "name" : "__res_hnok"
  },
  {
   "name" : "__res_hostalias"
  },
  {
   "name" : "__res_isourserver"
  },
  {
   "name" : "__res_mailok"
  },
  {
   "name" : "__res_nameinquery"
  },
  {
   "name" : "__res_nclose"
  },
  {
   "name" : "__res_ninit"
  },
  {
   "name" : "__res_nmkquery"
  },
  {
   "name" : "__res_nquery"
  },
  {
   "name" : "__res_nquerydomain"
  },
  {
   "name" : "__res_nsearch"
  },
  {
   "name" : "__res_nsend"
  },
  {
   "name" : "__res_ownok"
  },
  {
   "name" : "__res_queriesmatch"
  },
  {
   "name" : "__res_querydomain"
  },
  {
   "name" : "__res_randomid"
  },
  {
   "name" : "__res_send"
  },
  {
   "name" : "__res_send_setqhook"
  },
  {
   "name" : "__res_send_setrhook"
  },
  {
   "name" : "__rt_sigaction"
  },
  {
   "name" : "__rt_sigpending"
  },
  {
   "name" : "__rt_sigprocmask"
  },
  {
   "name" : "__rt_sigsuspend"
  },
  {
   "name" : "__rt_sigtimedwait"
  },
  {
   "name" : "__sched_cpualloc"
  },
  {
   "name" : "__sched_cpucount"
  },
  {
   "name" : "__sched_cpufree"
  },
  {
   "name" : "__sched_getaffinity"
  },
  {
   "name" : "__sendto_chk"
  },
  {
   "name" : "__set_tid_address"
  },
  {
   "name" : "__sigaction"
  },
  {
   "name" : "__snprintf_chk"
  },
  {
   "name" : "__socket"
  },
  {
   "name" : "__sprintf_chk"
  },
  {
   "name" : "__stack_chk_fail"
  },
  {
   "name" : "__statfs64"
  },
  {
   "name" : "__stpcpy_chk"
  },
  {
   "name" : "__stpncpy_chk"
  },
  {
   "name" : "__stpncpy_chk2"
  },
  {
   "name" : "__strcat_chk"
  },
  {
   "name" : "__strchr_chk"
  },
  {
   "name" : "__strcpy_chk"
  },
  {
   "name" : "__strlcat_chk"
  },
  {
   "name" : "__strlcpy_chk"
  },
  {
   "name" : "__strlen_chk"
  },
  {
   "name" : "__strncat_chk"
  },
  {
   "name" : "__strncpy_chk"
  },
  {
   "name" : "__strncpy_chk2"
  },
  {
   "name" : "__strrchr_chk"
  },
  {
   "name" : "__sym_ntop"
  },
  {
   "name" : "__sym_ntos"
  },
  {
   "name" : "__sym_ston"
  },
  {
   "name" : "__system_properties_init"
  },
  {
   "name" : "__system_properties_zygote_reload"
  },
  {
   "name" : "__system_property_area_serial"
  },
  {
   "name" : "__system_property_find"
  },
  {
   "name" : "__system_property_find_nth"
  },
  {
   "name" : "__system_property_foreach"
  },
  {
   "name" : "__system_property_get"
  },
  {
   "name" : "__system_property_read"
  },
  {
   "name" : "__system_property_read_callback"
  },
  {
   "name" : "__system_property_serial"
  },
  {
   "name" : "__system_property_set"
  },
  {
   "name" : "__system_property_wait"
  },
  {
   "name" : "__system_property_wait_any"
  },
  {
   "name" : "__timer_create"
  },
  {
   "name" : "__timer_delete"
  },
  {
   "name" : "__timer_getoverrun"
  },
  {
   "name" : "__timer_gettime"
  },
  {
   "name" : "__timer_settime"
  },
  {
   "name" : "__tls_get_addr"
  },
  {
   "name" : "__umask_chk"
  },
  {
   "name" : "__vsnprintf_chk"
  },
  {
   "name" : "__vsprintf_chk"
  },
  {
   "name" : "__waitid"
  },
  {
   "name" : "__write_chk"
  },
  {
   "name" : "_exit"
  },
  {
   "name" : "_flushlbf"
  },
  {
   "name" : "_getlong"
  },
  {
   "name" : "_getshort"
  },
  {
   "binding" : "weak",
   "name" : "_longjmp"
  },
  {
   "name" : "_resolv_delete_cache_for_net"
  },
  {
   "name" : "_resolv_flush_cache_for_net"
  },
  {
   "name" : "_resolv_set_nameservers_for_net"
  },
  {
   "binding" : "weak",
   "name" : "_setjmp"
  },
  {
   "name" : "_tolower"
  },
  {
   "name" : "_toupper"
  },
  {
   "name" : "abort"
  },
  {
   "name" : "abs"
  },
  {
   "name" : "accept"
  },
  {
   "name" : "accept4"
  },
  {
   "name" : "access"
  },
  {
   "name" : "acct"
  },
  {
   "name" : "adjtimex"
  },
  {
   "name" : "alarm"
  },
  {
   "name" : "aligned_alloc"
  },
  {
   "name" : "alphasort"
  },
  {
   "name" : "alphasort64"
  },
  {
   "name" : "android_crash_detail_register"
  },
  {
   "name" : "android_crash_detail_replace_data"
  },
  {
   "name" : "android_crash_detail_replace_name"
  },
  {
   "name" : "android_crash_detail_unregister"
  },
  {
   "binding" : "weak",
   "name" : "android_fdsan_close_with_tag"
  },
  {
   "binding" : "weak",
   "name" : "android_fdsan_create_owner_tag"
  },
  {
   "binding" : "weak",
   "name" : "android_fdsan_exchange_owner_tag"
  },
  {
   "binding" : "weak",
   "name" : "android_fdsan_get_error_level"
  },
  {
   "name" : "android_fdsan_get_owner_tag"
  },
  {
   "name" : "android_fdsan_get_tag_type"
  },
  {
   "name" : "android_fdsan_get_tag_value"
  },
  {
   "binding" : "weak",
   "name" : "android_fdsan_set_error_level"
  },
  {
   "name" : "android_get_device_api_level"
  },
  {
   "name" : "android_getaddrinfofornet"
  },
  {
   "name" : "android_mallopt"
  },
  {
   "name" : "android_reset_stack_guards"
  },
  {
   "name" : "android_set_abort_message"
  },
  {
   "name" : "arc4random"
  },
  {
   "name" : "arc4random_buf"
  },
  {
   "name" : "arc4random_uniform"
  },
  {
   "name" : "asctime"
  },
  {
   "name" : "asctime64"
  },
  {
   "name" : "asctime64_r"
  },
  {
   "name" : "asctime_r"
  },
  {
   "name" : "asprintf"
  },
  {
   "name" : "at_quick_exit"
  },
  {
   "name" : "atof"
  },
  {
   "name" : "atoi"
  },
  {
   "name" : "atol"
  },
  {
   "name" : "atoll"
  },
  {
   "name" : "backtrace"
  },
  {
   "name" : "backtrace_symbols"
  },
  {
   "name" : "backtrace_symbols_fd"
  },
  {
   "name" : "basename"
  },
  {
   "name" : "basename_r"
  },
  {
   "name" : "bind"
  },
  {
   "name" : "bindresvport"
  },
  {
   "name" : "brk"
  },
  {
   "name" : "bsd_signal"
  },
  {
   "name" : "bsearch"
  },
  {
   "name" : "btowc"
  },
  {
   "name" : "c16rtomb"
  },
  {
   "name" : "c32rtomb"
  },
  {
   "name" : "cacheflush"
  },
  {
   "name" : "call_once"
  },
  {
   "name" : "calloc"
  },
  {
   "name" : "capget"
  },
  {
   "name" : "capset"
  },
  {
   "name" : "catclose"
  },
  {
   "name" : "catgets"
  },
  {
   "name" : "catopen"
  },
  {
   "name" : "cfgetispeed"
  },
  {
   "name" : "cfgetospeed"
  },
  {
   "name" : "cfmakeraw"
  },
  {
   "name" : "cfsetispeed"
  },
  {
   "name" : "cfsetospeed"
  },
  {
   "name" : "cfsetspeed"
  },
  {
   "name" : "chdir"
  },
  {
   "name" : "chmod"
  },
  {
   "name" : "chown"
  },
  {
   "name" : "chroot"
  },
  {
   "name" : "clearenv"
  },
  {
   "name" : "clearerr"
  },
  {
   "name" : "clearerr_unlocked"
  },
  {
   "name" : "clock"
  },
  {
   "name" : "clock_adjtime"
  },
  {
   "name" : "clock_getcpuclockid"
  },
  {
   "name" : "clock_getres"
  },
  {
   "name" : "clock_gettime"
  },
  {
   "name" : "clock_nanosleep"
  },
  {
   "name" : "clock_settime"
  },
  {
   "name" : "clone"
  },
  {
   "name" : "close"
  },
  {
   "name" : "close_range"
  },
  {
   "name" : "closedir"
  },
  {
   "name" : "closelog"
  },
  {
   "name" : "cnd_broadcast"
  },
  {
   "name" : "cnd_destroy"
  },
  {
   "name" : "cnd_init"
  },
  {
   "name" : "cnd_signal"
  },
  {
   "name" : "cnd_timedwait"
  },
  {
   "name" : "cnd_wait"
  },
  {
   "name" : "connect"
  },
  {
   "name" : "copy_file_range"
  },
  {
   "name" : "creat"
  },
  {
   "name" : "creat64"
  },
  {
   "name" : "ctermid"
  },
  {
   "name" : "ctime"
  },
  {
   "name" : "ctime64"
  },
  {
   "name" : "ctime64_r"
  },
  {
   "name" : "ctime_r"
  },
  {
   "name" : "daemon"
  },
  {
   "name" : "delete_module"
  },
  {
   "name" : "difftime"
  },
  {
   "name" : "dirfd"
  },
  {
   "name" : "dirname"
  },
  {
   "name" : "dirname_r"
  },
  {
   "name" : "div"
  },
  {
   "name" : "dn_expand"
  },
  {
   "name" : "dprintf"
  },
  {
   "name" : "drand48"
  },
  {
   "name" : "dup"
  },
  {
   "name" : "dup2"
  },
  {
   "name" : "dup3"
  },
  {
   "name" : "duplocale"
  },
  {
   "name" : "endgrent"
  },
  {
   "name" : "endhostent"
  },
  {
   "name" : "endmntent"
  },
  {
   "name" : "endnetent"
  },
  {
   "name" : "endprotoent"
  },
  {
   "name" : "endpwent"
  },
  {
   "name" : "endservent"
  },
  {
   "name" : "endutent"
  },
  {
   "name" : "epoll_create"
  },
  {
   "name" : "epoll_create1"
  },
  {
   "name" : "epoll_ctl"
  },
  {
   "name" : "epoll_pwait"
  },
  {
   "name" : "epoll_pwait2"
  },
  {
   "name" : "epoll_pwait2_64"
  },
  {
   "name" : "epoll_pwait64"
  },
  {
   "name" : "epoll_wait"
  },
  {
   "name" : "erand48"
  },
  {
   "name" : "err"
  },
  {
   "name" : "error"
  },
  {
   "name" : "error_at_line"
  },
  {
   "name" : "errx"
  },
  {
   "name" : "ether_aton"
  },
  {
   "name" : "ether_aton_r"
  },
  {
   "name" : "ether_ntoa"
  },
  {
   "name" : "ether_ntoa_r"
  },
  {
   "name" : "eventfd"
  },
  {
   "name" : "eventfd_read"
  },
  {
   "name" : "eventfd_write"
  },
  {
   "name" : "execl"
  },
  {
   "name" : "execle"
  },
  {
   "name" : "execlp"
  },
  {
   "name" : "execv"
  },
  {
   "name" : "execve"
  },
  {
   "name" : "execvp"
  },
  {
   "name" : "execvpe"
  },
  {
   "name" : "exit"
  },
  {
   "name" : "faccessat"
  },
  {
   "name" : "fallocate"
  },
  {
   "name" : "fallocate64"
  },
  {
   "name" : "fchdir"
  },
  {
   "name" : "fchmod"
  },
  {
   "name" : "fchmodat"
  },
  {
   "name" : "fchown"
  },
  {
   "name" : "fchownat"
  },
  {
   "name" : "fclose"
  },
  {
   "name" : "fcntl"
  },
  {
   "name" : "fdatasync"
  },
  {
   "name" : "fdopen"
  },
  {
   "name" : "fdopendir"
  },
  {
   "name" : "fdprintf"
  },
  {
   "name" : "feof"
  },
  {
   "name" : "feof_unlocked"
  },
  {
   "name" : "ferror"
  },
  {
   "name" : "ferror_unlocked"
  },
  {
   "name" : "fexecve"
  },
  {
   "name" : "fflush"
  },
  {
   "name" : "fflush_unlocked"
  },
  {
   "name" : "ffs"
  },
  {
   "name" : "ffsl"
  },
  {
   "name" : "ffsll"
  },
  {
   "name" : "fgetc"
  },
  {
   "name" : "fgetc_unlocked"
  },
  {
   "name" : "fgetln"
  },
  {
   "name" : "fgetpos"
  },
  {
   "name" : "fgetpos64"
  },
  {
   "name" : "fgets"
  },
  {
   "name" : "fgets_unlocked"
  },
  {
   "name" : "fgetwc"
  },
  {
   "name" : "fgetws"
  },
  {
   "name" : "fgetxattr"
  },
  {
   "name" : "fileno"
  },
  {
   "name" : "fileno_unlocked"
  },
  {
   "name" : "flistxattr"
  },
  {
   "name" : "flock"
  },
  {
   "name" : "flockfile"
  },
  {
   "name" : "fmemopen"
  },
  {
   "name" : "fnmatch"
  },
  {
   "name" : "fopen"
  },
  {
   "name" : "fopen64"
  },
  {
   "name" : "fork"
  },
  {
   "name" : "forkpty"
  },
  {
   "name" : "fpathconf"
  },
  {
   "name" : "fprintf"
  },
  {
   "name" : "fpurge"
  },
  {
   "name" : "fputc"
  },
  {
   "name" : "fputc_unlocked"
  },
  {
   "name" : "fputs"
  },
  {
   "name" : "fputs_unlocked"
  },
  {
   "name" : "fputwc"
  },
  {
   "name" : "fputws"
  },
  {
   "name" : "fread"
  },
  {
   "name" : "fread_unlocked"
  },
  {
   "name" : "free"
  },
  {
   "name" : "free_malloc_leak_info"
  },
  {
   "name" : "freeaddrinfo"
  },
  {
   "name" : "freeifaddrs"
  },
  {
   "name" : "freelocale"
  },
  {
   "name" : "fremovexattr"
  },
  {
   "name" : "freopen"
  },
  {
   "name" : "freopen64"
  },
  {
   "name" : "fscanf"
  },
  {
   "name" : "fseek"
  },
  {
   "name" : "fseeko"
  },
  {
   "name" : "fseeko64"
  },
  {
   "name" : "fsetpos"
  },
  {
   "name" : "fsetpos64"
  },
  {
   "name" : "fsetxattr"
  },
  {
   "name" : "fstat"
  },
  {
   "name" : "fstat64"
  },
  {
   "name" : "fstatat"
  },
  {
   "name" : "fstatat64"
  },
  {
   "name" : "fstatfs"
  },
  {
   "name" : "fstatfs64"
  },
  {
   "name" : "fstatvfs"
  },
  {
   "name" : "fstatvfs64"
  },
  {
   "name" : "fsync"
  },
  {
   "name" : "ftell"
  },
  {
   "name" : "ftello"
  },
  {
   "name" : "ftello64"
  },
  {
   "name" : "ftok"
  },
  {
   "name" : "ftruncate"
  },
  {
   "name" : "ftruncate64"
  },
  {
   "name" : "ftrylockfile"
  },
  {
   "name" : "fts_children"
  },
  {
   "name" : "fts_close"
  },
  {
   "name" : "fts_open"
  },
  {
   "name" : "fts_read"
  },
  {
   "name" : "fts_set"
  },
  {
   "name" : "ftw"
  },
  {
   "name" : "ftw64"
  },
  {
   "name" : "funlockfile"
  },
  {
   "name" : "funopen"
  },
  {
   "name" : "funopen64"
  },
  {
   "name" : "futimens"
  },
  {
   "name" : "futimes"
  },
  {
   "name" : "futimesat"
  },
  {
   "name" : "fwide"
  },
  {
   "name" : "fwprintf"
  },
  {
   "name" : "fwrite"
  },
  {
   "name" : "fwrite_unlocked"
  },
  {
   "name" : "fwscanf"
  },
  {
   "name" : "gai_strerror"
  },
  {
   "name" : "get_avphys_pages"
  },
  {
   "name" : "get_malloc_leak_info"
  },
  {
   "name" : "get_nprocs"
  },
  {
   "name" : "get_nprocs_conf"
  },
  {
   "name" : "get_phys_pages"
  },
  {
   "name" : "getaddrinfo"
  },
  {
   "name" : "getauxval"
  },
  {
   "name" : "getc"
  },
  {
   "name" : "getc_unlocked"
  },
  {
   "name" : "getchar"
  },
  {
   "name" : "getchar_unlocked"
  },
  {
   "name" : "getcwd"
  },
  {
   "name" : "getdelim"
  },
  {
   "name" : "getdomainname"
  },
  {
   "name" : "getegid"
  },
  {
   "name" : "getentropy"
  },
  {
   "name" : "getenv"
  },
  {
   "name" : "geteuid"
  },
  {
   "name" : "getgid"
  },
  {
   "name" : "getgrent"
  },
  {
   "name" : "getgrgid"
  },
  {
   "name" : "getgrgid_r"
  },
  {
   "name" : "getgrnam"
  },
  {
   "name" : "getgrnam_r"
  },
  {
   "name" : "getgrouplist"
  },
  {
   "name" : "getgroups"
  },
  {
   "name" : "gethostbyaddr"
  },
  {
   "name" : "gethostbyaddr_r"
  },
  {
   "name" : "gethostbyname"
  },
  {
   "name" : "gethostbyname2"
  },
  {
   "name" : "gethostbyname2_r"
  },
  {
   "name" : "gethostbyname_r"
  },
  {
   "name" : "gethostent"
  },
  {
   "name" : "gethostname"
  },
  {
   "name" : "getifaddrs"
  },
  {
   "name" : "getitimer"
  },
  {
   "name" : "getline"
  },
  {
   "name" : "getloadavg"
  },
  {
   "name" : "getlogin"
  },
  {
   "name" : "getlogin_r"
  },
  {
   "name" : "getmntent"
  },
  {
   "name" : "getmntent_r"
  },
  {
   "name" : "getnameinfo"
  },
  {
   "name" : "getnetbyaddr"
  },
  {
   "name" : "getnetbyname"
  },
  {
   "name" : "getnetent"
  },
  {
   "name" : "getopt"
  },
  {
   "name" : "getopt_long"
  },
  {
   "name" : "getopt_long_only"
  },
  {
   "name" : "getpagesize"
  },
  {
   "name" : "getpeername"
  },
  {
   "name" : "getpgid"
  },
  {
   "name" : "getpgrp"
  },
  {
   "name" : "getpid"
  },
  {
   "name" : "getppid"
  },
  {
   "name" : "getpriority"
  },
  {
   "name" : "getprogname"
  },
  {
   "name" : "getprotobyname"
  },
  {
   "name" : "getprotobynumber"
  },
  {
   "name" : "getprotoent"
  },
  {
   "name" : "getpt"
  },
  {
   "name" : "getpwent"
  },
  {
   "name" : "getpwnam"
  },
  {
   "name" : "getpwnam_r"
  },
  {
   "name" : "getpwuid"
  },
  {
   "name" : "getpwuid_r"
  },
  {
   "name" : "getrandom"
  },
  {
   "name" : "getresgid"
  },
  {
   "name" : "getresuid"
  },
  {
   "name" : "getrlimit"
  },
  {
   "name" : "getrlimit64"
  },
  {
   "name" : "getrusage"
  },
  {
   "name" : "gets"
  },
  {
   "name" : "getservbyname"
  },
  {
   "name" : "getservbyport"
  },
  {
   "name" : "getservent"
  },
  {
   "name" : "getsid"
  },
  {
   "name" : "getsockname"
  },
  {
   "name" : "getsockopt"
  },
  {
   "name" : "getsubopt"
  },
  {
   "name" : "gettid"
  },
  {
   "name" : "gettimeofday"
  },
  {
   "name" : "getuid"
  },
  {
   "name" : "getutent"
  },
  {
   "name" : "getwc"
  },
  {
   "name" : "getwchar"
  },
  {
   "name" : "getxattr"
  },
  {
   "name" : "glob"
  },
  {
   "name" : "globfree"
  },
  {
   "name" : "gmtime"
  },
  {
   "name" : "gmtime64"
  },
  {
   "name" : "gmtime64_r"
  },
  {
   "name" : "gmtime_r"
  },
  {
   "name" : "grantpt"
  },
  {
   "name" : "hasmntopt"
  },
  {
   "name" : "hcreate"
  },
  {
   "name" : "hcreate_r"
  },
  {
   "name" : "hdestroy"
  },
  {
   "name" : "hdestroy_r"
  },
  {
   "name" : "herror"
  },
  {
   "name" : "hsearch"
  },
  {
   "name" : "hsearch_r"
  },
  {
   "name" : "hstrerror"
  },
  {
   "name" : "htonl"
  },
  {
   "name" : "htons"
  },
  {
   "name" : "iconv"
  },
  {
   "name" : "iconv_close"
  },
  {
   "name" : "iconv_open"
  },
  {
   "name" : "if_freenameindex"
  },
  {
   "name" : "if_indextoname"
  },
  {
   "name" : "if_nameindex"
  },
  {
   "name" : "if_nametoindex"
  },
  {
   "name" : "imaxabs"
  },
  {
   "name" : "imaxdiv"
  },
  {
   "name" : "inet_addr"
  },
  {
   "name" : "inet_aton"
  },
  {
   "name" : "inet_lnaof"
  },
  {
   "name" : "inet_makeaddr"
  },
  {
   "name" : "inet_netof"
  },
  {
   "name" : "inet_network"
  },
  {
   "name" : "inet_nsap_addr"
  },
  {
   "name" : "inet_nsap_ntoa"
  },
  {
   "name" : "inet_ntoa"
  },
  {
   "name" : "inet_ntop"
  },
  {
   "name" : "inet_pton"
  },
  {
   "name" : "init_module"
  },
  {
   "name" : "initgroups"
  },
  {
   "name" : "initstate"
  },
  {
   "name" : "inotify_add_watch"
  },
  {
   "name" : "inotify_init"
  },
  {
   "name" : "inotify_init1"
  },
  {
   "name" : "inotify_rm_watch"
  },
  {
   "name" : "insque"
  },
  {
   "name" : "ioctl"
  },
  {
   "name" : "isalnum"
  },
  {
   "name" : "isalnum_l"
  },
  {
   "name" : "isalpha"
  },
  {
   "name" : "isalpha_l"
  },
  {
   "name" : "isascii"
  },
  {
   "name" : "isatty"
  },
  {
   "name" : "isblank"
  },
  {
   "name" : "isblank_l"
  },
  {
   "name" : "iscntrl"
  },
  {
   "name" : "iscntrl_l"
  },
  {
   "name" : "isdigit"
  },
  {
   "name" : "isdigit_l"
  },
  {
   "name" : "isfinite"
  },
  {
   "name" : "isfinitef"
  },
  {
   "name" : "isfinitel"
  },
  {
   "name" : "isgraph"
  },
  {
   "name" : "isgraph_l"
  },
  {
   "name" : "isinf"
  },
  {
   "name" : "isinff"
  },
  {
   "name" : "isinfl"
  },
  {
   "name" : "islower"
  },
  {
   "name" : "islower_l"
  },
  {
   "name" : "isnan"
  },
  {
   "name" : "isnanf"
  },
  {
   "name" : "isnanl"
  },
  {
   "name" : "isnormal"
  },
  {
   "name" : "isnormalf"
  },
  {
   "name" : "isnormall"
  },
  {
   "name" : "isprint"
  },
  {
   "name" : "isprint_l"
  },
  {
   "name" : "ispunct"
  },
  {
   "name" : "ispunct_l"
  },
  {
   "name" : "isspace"
  },
  {
   "name" : "isspace_l"
  },
  {
   "name" : "isupper"
  },
  {
   "name" : "isupper_l"
  },
  {
   "name" : "iswalnum"
  },
  {
   "name" : "iswalnum_l"
  },
  {
   "name" : "iswalpha"
  },
  {
   "name" : "iswalpha_l"
  },
  {
   "name" : "iswblank"
  },
  {
   "name" : "iswblank_l"
  },
  {
   "name" : "iswcntrl"
  },
  {
   "name" : "iswcntrl_l"
  },
  {
   "name" : "iswctype"
  },
  {
   "name" : "iswctype_l"
  },
  {
   "name" : "iswdigit"
  },
  {
   "name" : "iswdigit_l"
  },
  {
   "name" : "iswgraph"
  },
  {
   "name" : "iswgraph_l"
  },
  {
   "name" : "iswlower"
  },
  {
   "name" : "iswlower_l"
  },
  {
   "name" : "iswprint"
  },
  {
   "name" : "iswprint_l"
  },
  {
   "name" : "iswpunct"
  },
  {
   "name" : "iswpunct_l"
  },
  {
   "name" : "iswspace"
  },
  {
   "name" : "iswspace_l"
  },
  {
   "name" : "iswupper"
  },
  {
   "name" : "iswupper_l"
  },
  {
   "name" : "iswxdigit"
  },
  {
   "name" : "iswxdigit_l"
  },
  {
   "name" : "isxdigit"
  },
  {
   "name" : "isxdigit_l"
  },
  {
   "name" : "jrand48"
  },
  {
   "name" : "kill"
  },
  {
   "name" : "killpg"
  },
  {
   "name" : "klogctl"
  },
  {
   "name" : "labs"
  },
  {
   "name" : "lchown"
  },
  {
   "name" : "lcong48"
  },
  {
   "name" : "ldexp"
  },
  {
   "name" : "ldiv"
  },
  {
   "name" : "lfind"
  },
  {
   "name" : "lgetxattr"
  },
  {
   "name" : "link"
  },
  {
   "name" : "linkat"
  },
  {
   "name" : "listen"
  },
  {
   "name" : "listxattr"
  },
  {
   "name" : "llabs"
  },
  {
   "name" : "lldiv"
  },
  {
   "name" : "llistxattr"
  },
  {
   "name" : "localeconv"
  },
  {
   "name" : "localtime"
  },
  {
   "name" : "localtime64"
  },
  {
   "name" : "localtime64_r"
  },
  {
   "name" : "localtime_r"
  },
  {
   "name" : "localtime_rz"
  },
  {
   "name" : "lockf"
  },
  {
   "name" : "lockf64"
  },
  {
   "name" : "login_tty"
  },
  {
   "binding" : "weak",
   "name" : "longjmp"
  },
  {
   "name" : "lrand48"
  },
  {
   "name" : "lremovexattr"
  },
  {
   "name" : "lsearch"
  },
  {
   "name" : "lseek"
  },
  {
   "name" : "lseek64"
  },
  {
   "name" : "lsetxattr"
  },
  {
   "name" : "lstat"
  },
  {
   "name" : "lstat64"
  },
  {
   "name" : "lutimes"
  },
  {
   "name" : "madvise"
  },
  {
   "name" : "mallinfo"
  },
  {
   "name" : "malloc"
  },
  {
   "name" : "malloc_backtrace"
  },
  {
   "name" : "malloc_disable"
  },
  {
   "name" : "malloc_enable"
  },
  {
   "name" : "malloc_info"
  },
  {
   "name" : "malloc_iterate"
  },
  {
   "name" : "malloc_usable_size"
  },
  {
   "name" : "mallopt"
  },
  {
   "name" : "mblen"
  },
  {
   "name" : "mbrlen"
  },
  {
   "name" : "mbrtoc16"
  },
  {
   "name" : "mbrtoc32"
  },
  {
   "name" : "mbrtowc"
  },
  {
   "name" : "mbsinit"
  },
  {
   "name" : "mbsnrtowcs"
  },
  {
   "name" : "mbsrtowcs"
  },
  {
   "name" : "mbsrtowcs_l"
  },
  {
   "name" : "mbstowcs"
  },
  {
   "name" : "mbtowc"
  },
  {
   "name" : "memalign"
  },
  {
   "name" : "memccpy"
  },
  {
   "name" : "memchr"
  },
  {
   "name" : "memcmp"
  },
  {
   "name" : "memcpy"
  },
  {
   "name" : "memfd_create"
  },
  {
   "name" : "memmem"
  },
  {
   "name" : "memmove"
  },
  {
   "name" : "mempcpy"
  },
  {
   "name" : "memrchr"
  },
  {
   "name" : "memset"
  },
  {
   "name" : "memset_explicit"
  },
  {
   "name" : "mincore"
  },
  {
   "name" : "mkdir"
  },
  {
   "name" : "mkdirat"
  },
  {
   "name" : "mkdtemp"
  },
  {
   "name" : "mkfifo"
  },
  {
   "name" : "mkfifoat"
  },
  {
   "name" : "mknod"
  },
  {
   "name" : "mknodat"
  },
  {
   "name" : "mkostemp"
  },
  {
   "name" : "mkostemp64"
  },
  {
   "name" : "mkostemps"
  },
  {
   "name" : "mkostemps64"
  },
  {
   "name" : "mkstemp"
  },
  {
   "name" : "mkstemp64"
  },
  {
   "name" : "mkstemps"
  },
  {
   "name" : "mkstemps64"
  },
  {
   "name" : "mktemp"
  },
  {
   "name" : "mktime"
  },
  {
   "name" : "mktime64"
  },
  {
   "name" : "mktime_z"
  },
  {
   "name" : "mlock"
  },
  {
   "name" : "mlock2"
  },
  {
   "name" : "mlockall"
  },
  {
   "name" : "mmap"
  },
  {
   "name" : "mmap64"
  },
  {
   "name" : "mount"
  },
  {
   "name" : "mprotect"
  },
  {
   "name" : "mrand48"
  },
  {
   "name" : "mremap"
  },
  {
   "name" : "msgctl"
  },
  {
   "name" : "msgget"
  },
  {
   "name" : "msgrcv"
  },
  {
   "name" : "msgsnd"
  },
  {
   "name" : "msync"
  },
  {
   "name" : "mtx_destroy"
  },
  {
   "name" : "mtx_init"
  },
  {
   "name" : "mtx_lock"
  },
  {
   "name" : "mtx_timedlock"
  },
  {
   "name" : "mtx_trylock"
  },
  {
   "name" : "mtx_unlock"
  },
  {
   "name" : "munlock"
  },
  {
   "name" : "munlockall"
  },
  {
   "name" : "munmap"
  },
  {
   "name" : "nanosleep"
  },
  {
   "name" : "newlocale"
  },
  {
   "name" : "nftw"
  },
  {
   "name" : "nftw64"
  },
  {
   "name" : "nice"
  },
  {
   "name" : "nl_langinfo"
  },
  {
   "name" : "nl_langinfo_l"
  },
  {
   "name" : "nrand48"
  },
  {
   "name" : "nsdispatch"
  },
  {
   "name" : "ntohl"
  },
  {
   "name" : "ntohs"
  },
  {
   "name" : "open"
  },
  {
   "name" : "open64"
  },
  {
   "name" : "open_memstream"
  },
  {
   "name" : "open_wmemstream"
  },
  {
   "name" : "openat"
  },
  {
   "name" : "openat64"
  },
  {
   "name" : "opendir"
  },
  {
   "name" : "openlog"
  },
  {
   "name" : "openpty"
  },
  {
   "name" : "pathconf"
  },
  {
   "name" : "pause"
  },
  {
   "name" : "pclose"
  },
  {
   "name" : "perror"
  },
  {
   "name" : "personality"
  },
  {
   "name" : "pidfd_getfd"
  },
  {
   "name" : "pidfd_open"
  },
  {
   "name" : "pidfd_send_signal"
  },
  {
   "name" : "pipe"
  },
  {
   "name" : "pipe2"
  },
  {
   "name" : "poll"
  },
  {
   "name" : "popen"
  },
  {
   "name" : "posix_fadvise"
  },
  {
   "name" : "posix_fadvise64"
  },
  {
   "name" : "posix_fallocate"
  },
  {
   "name" : "posix_fallocate64"
  },
  {
   "name" : "posix_madvise"
  },
  {
   "name" : "posix_memalign"
  },
  {
   "name" : "posix_openpt"
  },
  {
   "name" : "posix_spawn"
  },
  {
   "name" : "posix_spawn_file_actions_addchdir_np"
  },
  {
   "name" : "posix_spawn_file_actions_addclose"
  },
  {
   "name" : "posix_spawn_file_actions_adddup2"
  },
  {
   "name" : "posix_spawn_file_actions_addfchdir_np"
  },
  {
   "name" : "posix_spawn_file_actions_addopen"
  },
  {
   "name" : "posix_spawn_file_actions_destroy"
  },
  {
   "name" : "posix_spawn_file_actions_init"
  },
  {
   "name" : "posix_spawnattr_destroy"
  },
  {
   "name" : "posix_spawnattr_getflags"
  },
  {
   "name" : "posix_spawnattr_getpgroup"
  },
  {
   "name" : "posix_spawnattr_getschedparam"
  },
  {
   "name" : "posix_spawnattr_getschedpolicy"
  },
  {
   "name" : "posix_spawnattr_getsigdefault"
  },
  {
   "name" : "posix_spawnattr_getsigdefault64"
  },
  {
   "name" : "posix_spawnattr_getsigmask"
  },
  {
   "name" : "posix_spawnattr_getsigmask64"
  },
  {
   "name" : "posix_spawnattr_init"
  },
  {
   "name" : "posix_spawnattr_setflags"
  },
  {
   "name" : "posix_spawnattr_setpgroup"
  },
  {
   "name" : "posix_spawnattr_setschedparam"
  },
  {
   "name" : "posix_spawnattr_setschedpolicy"
  },
  {
   "name" : "posix_spawnattr_setsigdefault"
  },
  {
   "name" : "posix_spawnattr_setsigdefault64"
  },
  {
   "name" : "posix_spawnattr_setsigmask"
  },
  {
   "name" : "posix_spawnattr_setsigmask64"
  },
  {
   "name" : "posix_spawnp"
  },
  {
   "name" : "ppoll"
  },
  {
   "name" : "ppoll64"
  },
  {
   "name" : "prctl"
  },
  {
   "name" : "pread"
  },
  {
   "name" : "pread64"
  },
  {
   "name" : "preadv"
  },
  {
   "name" : "preadv2"
  },
  {
   "name" : "preadv64"
  },
  {
   "name" : "preadv64v2"
  },
  {
   "name" : "printf"
  },
  {
   "name" : "prlimit"
  },
  {
   "name" : "prlimit64"
  },
  {
   "name" : "process_madvise"
  },
  {
   "name" : "process_vm_readv"
  },
  {
   "name" : "process_vm_writev"
  },
  {
   "name" : "pselect"
  },
  {
   "name" : "pselect64"
  },
  {
   "name" : "psiginfo"
  },
  {
   "name" : "psignal"
  },
  {
   "name" : "pthread_atfork"
  },
  {
   "name" : "pthread_attr_destroy"
  },
  {
   "name" : "pthread_attr_getdetachstate"
  },
  {
   "name" : "pthread_attr_getguardsize"
  },
  {
   "name" : "pthread_attr_getinheritsched"
  },
  {
   "name" : "pthread_attr_getschedparam"
  },
  {
   "name" : "pthread_attr_getschedpolicy"
  },
  {
   "name" : "pthread_attr_getscope"
  },
  {
   "name" : "pthread_attr_getstack"
  },
  {
   "name" : "pthread_attr_getstacksize"
  },
  {
   "name" : "pthread_attr_init"
  },
  {
   "name" : "pthread_attr_setdetachstate"
  },
  {
   "name" : "pthread_attr_setguardsize"
  },
  {
   "name" : "pthread_attr_setinheritsched"
  },
  {
   "name" : "pthread_attr_setschedparam"
  },
  {
   "name" : "pthread_attr_setschedpolicy"
  },
  {
   "name" : "pthread_attr_setscope"
  },
  {
   "name" : "pthread_attr_setstack"
  },
  {
   "name" : "pthread_attr_setstacksize"
  },
  {
   "name" : "pthread_barrier_destroy"
  },
  {
   "name" : "pthread_barrier_init"
  },
  {
   "name" : "pthread_barrier_wait"
  },
  {
   "name" : "pthread_barrierattr_destroy"
  },
  {
   "name" : "pthread_barrierattr_getpshared"
  },
  {
   "name" : "pthread_barrierattr_init"
  },
  {
   "name" : "pthread_barrierattr_setpshared"
  },
  {
   "name" : "pthread_cond_broadcast"
  },
  {
   "name" : "pthread_cond_clockwait"
  },
  {
   "name" : "pthread_cond_destroy"
  },
  {
   "name" : "pthread_cond_init"
  },
  {
   "name" : "pthread_cond_signal"
  },
  {
   "name" : "pthread_cond_timedwait"
  },
  {
   "name" : "pthread_cond_timedwait_monotonic"
  },
  {
   "name" : "pthread_cond_timedwait_monotonic_np"
  },
  {
   "name" : "pthread_cond_timedwait_relative_np"
  },
  {
   "name" : "pthread_cond_timeout_np"
  },
  {
   "name" : "pthread_cond_wait"
  },
  {
   "name" : "pthread_condattr_destroy"
  },
  {
   "name" : "pthread_condattr_getclock"
  },
  {
   "name" : "pthread_condattr_getpshared"
  },
  {
   "name" : "pthread_condattr_init"
  },
  {
   "name" : "pthread_condattr_setclock"
  },
  {
   "name" : "pthread_condattr_setpshared"
  },
  {
   "name" : "pthread_create"
  },
  {
   "name" : "pthread_detach"
  },
  {
   "name" : "pthread_equal"
  },
  {
   "name" : "pthread_exit"
  },
  {
   "name" : "pthread_getattr_np"
  },
  {
   "name" : "pthread_getcpuclockid"
  },
  {
   "name" : "pthread_getname_np"
  },
  {
   "name" : "pthread_getschedparam"
  },
  {
   "name" : "pthread_getspecific"
  },
  {
   "name" : "pthread_gettid_np"
  },
  {
   "name" : "pthread_join"
  },
  {
   "name" : "pthread_key_create"
  },
  {
   "name" : "pthread_key_delete"
  },
  {
   "name" : "pthread_kill"
  },
  {
   "name" : "pthread_mutex_clocklock"
  },
  {
   "name" : "pthread_mutex_destroy"
  },
  {
   "name" : "pthread_mutex_init"
  },
  {
   "name" : "pthread_mutex_lock"
  },
  {
   "name" : "pthread_mutex_lock_timeout_np"
  },
  {
   "name" : "pthread_mutex_timedlock"
  },
  {
   "name" : "pthread_mutex_timedlock_monotonic_np"
  },
  {
   "name" : "pthread_mutex_trylock"
  },
  {
   "name" : "pthread_mutex_unlock"
  },
  {
   "name" : "pthread_mutexattr_destroy"
  },
  {
   "name" : "pthread_mutexattr_getprotocol"
  },
  {
   "name" : "pthread_mutexattr_getpshared"
  },
  {
   "name" : "pthread_mutexattr_gettype"
  },
  {
   "name" : "pthread_mutexattr_init"
  },
  {
   "name" : "pthread_mutexattr_setprotocol"
  },
  {
   "name" : "pthread_mutexattr_setpshared"
  },
  {
   "name" : "pthread_mutexattr_settype"
  },
  {
   "name" : "pthread_once"
  },
  {
   "name" : "pthread_rwlock_clockrdlock"
  },
  {
   "name" : "pthread_rwlock_clockwrlock"
  },
  {
   "name" : "pthread_rwlock_destroy"
  },
  {
   "name" : "pthread_rwlock_init"
  },
  {
   "name" : "pthread_rwlock_rdlock"
  },
  {
   "name" : "pthread_rwlock_timedrdlock"
  },
  {
   "name" : "pthread_rwlock_timedrdlock_monotonic_np"
  },
  {
   "name" : "pthread_rwlock_timedwrlock"
  },
  {
   "name" : "pthread_rwlock_timedwrlock_monotonic_np"
  },
  {
   "name" : "pthread_rwlock_tryrdlock"
  },
  {
   "name" : "pthread_rwlock_trywrlock"
  },
  {
   "name" : "pthread_rwlock_unlock"
  },
  {
   "name" : "pthread_rwlock_wrlock"
  },
  {
   "name" : "pthread_rwlockattr_destroy"
  },
  {
   "name" : "pthread_rwlockattr_getkind_np"
  },
  {
   "name" : "pthread_rwlockattr_getpshared"
  },
  {
   "name" : "pthread_rwlockattr_init"
  },
  {
   "name" : "pthread_rwlockattr_setkind_np"
  },
  {
   "name" : "pthread_rwlockattr_setpshared"
  },
  {
   "name" : "pthread_self"
  },
  {
   "name" : "pthread_setname_np"
  },
  {
   "name" : "pthread_setschedparam"
  },
  {
   "name" : "pthread_setschedprio"
  },
  {
   "name" : "pthread_setspecific"
  },
  {
   "name" : "pthread_sigmask"
  },
  {
   "name" : "pthread_sigmask64"
  },
  {
   "name" : "pthread_sigqueue"
  },
  {
   "name" : "pthread_spin_destroy"
  },
  {
   "name" : "pthread_spin_init"
  },
  {
   "name" : "pthread_spin_lock"
  },
  {
   "name" : "pthread_spin_trylock"
  },
  {
   "name" : "pthread_spin_unlock"
  },
  {
   "name" : "ptrace"
  },
  {
   "name" : "ptsname"
  },
  {
   "name" : "ptsname_r"
  },
  {
   "name" : "putc"
  },
  {
   "name" : "putc_unlocked"
  },
  {
   "name" : "putchar"
  },
  {
   "name" : "putchar_unlocked"
  },
  {
   "name" : "putenv"
  },
  {
   "name" : "puts"
  },
  {
   "name" : "pututline"
  },
  {
   "name" : "putw"
  },
  {
   "name" : "putwc"
  },
  {
   "name" : "putwchar"
  },
  {
   "name" : "pvalloc"
  },
  {
   "name" : "pwrite"
  },
  {
   "name" : "pwrite64"
  },
  {
   "name" : "pwritev"
  },
  {
   "name" : "pwritev2"
  },
  {
   "name" : "pwritev64"
  },
  {
   "name" : "pwritev64v2"
  },
  {
   "name" : "qsort"
  },
  {
   "name" : "quick_exit"
  },
  {
   "name" : "quotactl"
  },
  {
   "name" : "raise"
  },
  {
   "name" : "rand"
  },
  {
   "name" : "rand_r"
  },
  {
   "name" : "random"
  },
  {
   "name" : "read"
  },
  {
   "name" : "readahead"
  },
  {
   "name" : "readdir"
  },
  {
   "name" : "readdir64"
  },
  {
   "name" : "readdir64_r"
  },
  {
   "name" : "readdir_r"
  },
  {
   "name" : "readlink"
  },
  {
   "name" : "readlinkat"
  },
  {
   "name" : "readv"
  },
  {
   "name" : "realloc"
  },
  {
   "name" : "reallocarray"
  },
  {
   "name" : "realpath"
  },
  {
   "name" : "reboot"
  },
  {
   "name" : "recv"
  },
  {
   "name" : "recvfrom"
  },
  {
   "name" : "recvmmsg"
  },
  {
   "name" : "recvmsg"
  },
  {
   "name" : "regcomp"
  },
  {
   "name" : "regerror"
  },
  {
   "name" : "regexec"
  },
  {
   "name" : "regfree"
  },
  {
   "name" : "remove"
  },
  {
   "name" : "removexattr"
  },
  {
   "name" : "remque"
  },
  {
   "name" : "rename"
  },
  {
   "name" : "renameat"
  },
  {
   "name" : "renameat2"
  },
  {
   "name" : "res_init"
  },
  {
   "name" : "res_mkquery"
  },
  {
   "name" : "res_query"
  },
  {
   "name" : "res_search"
  },
  {
   "name" : "rewind"
  },
  {
   "name" : "rewinddir"
  },
  {
   "name" : "rmdir"
  },
  {
   "name" : "sbrk"
  },
  {
   "name" : "scandir"
  },
  {
   "name" : "scandir64"
  },
  {
   "name" : "scandirat"
  },
  {
   "name" : "scandirat64"
  },
  {
   "name" : "scanf"
  },
  {
   "name" : "sched_get_priority_max"
  },
  {
   "name" : "sched_get_priority_min"
  },
  {
   "name" : "sched_getaffinity"
  },
  {
   "name" : "sched_getcpu"
  },
  {
   "name" : "sched_getparam"
  },
  {
   "name" : "sched_getscheduler"
  },
  {
   "name" : "sched_rr_get_interval"
  },
  {
   "name" : "sched_setaffinity"
  },
  {
   "name" : "sched_setparam"
  },
  {
   "name" : "sched_setscheduler"
  },
  {
   "name" : "sched_yield"
  },
  {
   "name" : "seed48"
  },
  {
   "name" : "seekdir"
  },
  {
   "name" : "select"
  },
  {
   "name" : "sem_clockwait"
  },
  {
   "name" : "sem_close"
  },
  {
   "name" : "sem_destroy"
  },
  {
   "name" : "sem_getvalue"
  },
  {
   "name" : "sem_init"
  },
  {
   "name" : "sem_open"
  },
  {
   "name" : "sem_post"
  },
  {
   "name" : "sem_timedwait"
  },
  {
   "name" : "sem_timedwait_monotonic_np"
  },
  {
   "name" : "sem_trywait"
  },
  {
   "name" : "sem_unlink"
  },
  {
   "name" : "sem_wait"
  },
  {
   "name" : "semctl"
  },
  {
   "name" : "semget"
  },
  {
   "name" : "semop"
  },
  {
   "name" : "semtimedop"
  },
  {
   "name" : "send"
  },
  {
   "name" : "sendfile"
  },
  {
   "name" : "sendfile64"
  },
  {
   "name" : "sendmmsg"
  },
  {
   "name" : "sendmsg"
  },
  {
   "name" : "sendto"
  },
  {
   "name" : "setbuf"
  },
  {
   "name" : "setbuffer"
  },
  {
   "name" : "setdomainname"
  },
  {
   "name" : "setegid"
  },
  {
   "name" : "setenv"
  },
  {
   "name" : "seteuid"
  },
  {
   "name" : "setfsgid"
  },
  {
   "name" : "setfsuid"
  },
  {
   "name" : "setgid"
  },
  {
   "name" : "setgrent"
  },
  {
   "name" : "setgroups"
  },
  {
   "name" : "sethostent"
  },
  {
   "name" : "sethostname"
  },
  {
   "name" : "setitimer"
  },
  {
   "binding" : "weak",
   "name" : "setjmp"
  },
  {
   "name" : "setlinebuf"
  },
  {
   "name" : "setlocale"
  },
  {
   "name" : "setlogmask"
  },
  {
   "name" : "setmntent"
  },
  {
   "name" : "setnetent"
  },
  {
   "name" : "setns"
  },
  {
   "name" : "setpgid"
  },
  {
   "name" : "setpgrp"
  },
  {
   "name" : "setpriority"
  },
  {
   "name" : "setprogname"
  },
  {
   "name" : "setprotoent"
  },
  {
   "name" : "setpwent"
  },
  {
   "name" : "setregid"
  },
  {
   "name" : "setresgid"
  },
  {
   "name" : "setresuid"
  },
  {
   "name" : "setreuid"
  },
  {
   "name" : "setrlimit"
  },
  {
   "name" : "setrlimit64"
  },
  {
   "name" : "setservent"
  },
  {
   "name" : "setsid"
  },
  {
   "name" : "setsockopt"
  },
  {
   "name" : "setstate"
  },
  {
   "name" : "settimeofday"
  },
  {
   "name" : "setuid"
  },
  {
   "name" : "setutent"
  },
  {
   "name" : "setvbuf"
  },
  {
   "name" : "setxattr"
  },
  {
   "name" : "shmat"
  },
  {
   "name" : "shmctl"
  },
  {
   "name" : "shmdt"
  },
  {
   "name" : "shmget"
  },
  {
   "name" : "shutdown"
  },
  {
   "name" : "sigaction"
  },
  {
   "name" : "sigaction64"
  },
  {
   "name" : "sigaddset"
  },
  {
   "name" : "sigaddset64"
  },
  {
   "name" : "sigaltstack"
  },
  {
   "name" : "sigblock"
  },
  {
   "name" : "sigdelset"
  },
  {
   "name" : "sigdelset64"
  },
  {
   "name" : "sigemptyset"
  },
  {
   "name" : "sigemptyset64"
  },
  {
   "name" : "sigfillset"
  },
  {
   "name" : "sigfillset64"
  },
  {
   "name" : "sighold"
  },
  {
   "name" : "sigignore"
  },
  {
   "name" : "siginterrupt"
  },
  {
   "name" : "sigismember"
  },
  {
   "name" : "sigismember64"
  },
  {
   "binding" : "weak",
   "name" : "siglongjmp"
  },
  {
   "name" : "signal"
  },
  {
   "name" : "signalfd"
  },
  {
   "name" : "signalfd64"
  },
  {
   "name" : "sigpause"
  },
  {
   "name" : "sigpending"
  },
  {
   "name" : "sigpending64"
  },
  {
   "name" : "sigprocmask"
  },
  {
   "name" : "sigprocmask64"
  },
  {
   "name" : "sigqueue"
  },
  {
   "name" : "sigrelse"
  },
  {
   "name" : "sigset"
  },
  {
   "binding" : "weak",
   "name" : "sigsetjmp"
  },
  {
   "name" : "sigsetmask"
  },
  {
   "name" : "sigsuspend"
  },
  {
   "name" : "sigsuspend64"
  },
  {
   "name" : "sigtimedwait"
  },
  {
   "name" : "sigtimedwait64"
  },
  {
   "name" : "sigwait"
  },
  {
   "name" : "sigwait64"
  },
  {
   "name" : "sigwaitinfo"
  },
  {
   "name" : "sigwaitinfo64"
  },
  {
   "name" : "sleep"
  },
  {
   "name" : "snprintf"
  },
  {
   "name" : "socket"
  },
  {
   "name" : "socketpair"
  },
  {
   "name" : "splice"
  },
  {
   "name" : "sprintf"
  },
  {
   "name" : "srand"
  },
  {
   "name" : "srand48"
  },
  {
   "name" : "srandom"
  },
  {
   "name" : "sscanf"
  },
  {
   "name" : "stat"
  },
  {
   "name" : "stat64"
  },
  {
   "name" : "statfs"
  },
  {
   "name" : "statfs64"
  },
  {
   "name" : "statvfs"
  },
  {
   "name" : "statvfs64"
  },
  {
   "name" : "statx"
  },
  {
   "name" : "stpcpy"
  },
  {
   "name" : "stpncpy"
  },
  {
   "name" : "strcasecmp"
  },
  {
   "name" : "strcasecmp_l"
  },
  {
   "name" : "strcasestr"
  },
  {
   "name" : "strcat"
  },
  {
   "name" : "strchr"
  },
  {
   "name" : "strchrnul"
  },
  {
   "name" : "strcmp"
  },
  {
   "name" : "strcoll"
  },
  {
   "name" : "strcoll_l"
  },
  {
   "name" : "strcpy"
  },
  {
   "name" : "strcspn"
  },
  {
   "name" : "strdup"
  },
  {
   "name" : "strerror"
  },
  {
   "name" : "strerror_l"
  },
  {
   "name" : "strerror_r"
  },
  {
   "name" : "strerrorname_np"
  },
  {
   "name" : "strftime"
  },
  {
   "name" : "strftime_l"
  },
  {
   "name" : "strlcat"
  },
  {
   "name" : "strlcpy"
  },
  {
   "name" : "strlen"
  },
  {
   "name" : "strncasecmp"
  },
  {
   "name" : "strncasecmp_l"
  },
  {
   "name" : "strncat"
  },
  {
   "name" : "strncmp"
  },
  {
   "name" : "strncpy"
  },
  {
   "name" : "strndup"
  },
  {
   "name" : "strnlen"
  },
  {
   "name" : "strpbrk"
  },
  {
   "name" : "strptime"
  },
  {
   "name" : "strptime_l"
  },
  {
   "name" : "strrchr"
  },
  {
   "name" : "strsep"
  },
  {
   "name" : "strsignal"
  },
  {
   "name" : "strspn"
  },
  {
   "name" : "strstr"
  },
  {
   "name" : "strtod"
  },
  {
   "name" : "strtod_l"
  },
  {
   "name" : "strtof"
  },
  {
   "name" : "strtof_l"
  },
  {
   "name" : "strtoimax"
  },
  {
   "name" : "strtok"
  },
  {
   "name" : "strtok_r"
  },
  {
   "name" : "strtol"
  },
  {
   "name" : "strtol_l"
  },
  {
   "name" : "strtold"
  },
  {
   "name" : "strtold_l"
  },
  {
   "name" : "strtoll"
  },
  {
   "name" : "strtoll_l"
  },
  {
   "name" : "strtoul"
  },
  {
   "name" : "strtoul_l"
  },
  {
   "name" : "strtoull"
  },
  {
   "name" : "strtoull_l"
  },
  {
   "name" : "strtoumax"
  },
  {
   "name" : "strxfrm"
  },
  {
   "name" : "strxfrm_l"
  },
  {
   "name" : "swab"
  },
  {
   "name" : "swapoff"
  },
  {
   "name" : "swapon"
  },
  {
   "name" : "swprintf"
  },
  {
   "name" : "swscanf"
  },
  {
   "name" : "symlink"
  },
  {
   "name" : "symlinkat"
  },
  {
   "name" : "sync"
  },
  {
   "name" : "sync_file_range"
  },
  {
   "name" : "syncfs"
  },
  {
   "name" : "syscall"
  },
  {
   "name" : "sysconf"
  },
  {
   "name" : "sysinfo"
  },
  {
   "name" : "syslog"
  },
  {
   "name" : "system"
  },
  {
   "name" : "tcdrain"
  },
  {
   "name" : "tcflow"
  },
  {
   "name" : "tcflush"
  },
  {
   "name" : "tcgetattr"
  },
  {
   "name" : "tcgetpgrp"
  },
  {
   "name" : "tcgetsid"
  },
  {
   "name" : "tcgetwinsize"
  },
  {
   "name" : "tcsendbreak"
  },
  {
   "name" : "tcsetattr"
  },
  {
   "name" : "tcsetpgrp"
  },
  {
   "name" : "tcsetwinsize"
  },
  {
   "name" : "tdelete"
  },
  {
   "name" : "tdestroy"
  },
  {
   "name" : "tee"
  },
  {
   "name" : "telldir"
  },
  {
   "name" : "tempnam"
  },
  {
   "name" : "tfind"
  },
  {
   "name" : "tgkill"
  },
  {
   "name" : "thrd_create"
  },
  {
   "name" : "thrd_current"
  },
  {
   "name" : "thrd_detach"
  },
  {
   "name" : "thrd_equal"
  },
  {
   "name" : "thrd_exit"
  },
  {
   "name" : "thrd_join"
  },
  {
   "name" : "thrd_sleep"
  },
  {
   "name" : "thrd_yield"
  },
  {
   "name" : "time"
  },
  {
   "name" : "timegm"
  },
  {
   "name" : "timegm64"
  },
  {
   "name" : "timelocal"
  },
  {
   "name" : "timelocal64"
  },
  {
   "name" : "timer_create"
  },
  {
   "name" : "timer_delete"
  },
  {
   "name" : "timer_getoverrun"
  },
  {
   "name" : "timer_gettime"
  },
  {
   "name" : "timer_settime"
  },
  {
   "name" : "timerfd_create"
  },
  {
   "name" : "timerfd_gettime"
  },
  {
   "name" : "timerfd_settime"
  },
  {
   "name" : "times"
  },
  {
   "name" : "timespec_get"
  },
  {
   "name" : "timespec_getres"
  },
  {
   "name" : "tmpfile"
  },
  {
   "name" : "tmpfile64"
  },
  {
   "name" : "tmpnam"
  },
  {
   "name" : "toascii"
  },
  {
   "name" : "tolower"
  },
  {
   "name" : "tolower_l"
  },
  {
   "name" : "toupper"
  },
  {
   "name" : "toupper_l"
  },
  {
   "name" : "towctrans"
  },
  {
   "name" : "towctrans_l"
  },
  {
   "name" : "towlower"
  },
  {
   "name" : "towlower_l"
  },
  {
   "name" : "towupper"
  },
  {
   "name" : "towupper_l"
  },
  {
   "name" : "truncate"
  },
  {
   "name" : "truncate64"
  },
  {
   "name" : "tsearch"
  },
  {
   "name" : "tss_create"
  },
  {
   "name" : "tss_delete"
  },
  {
   "name" : "tss_get"
  },
  {
   "name" : "tss_set"
  },
  {
   "name" : "ttyname"
  },
  {
   "name" : "ttyname_r"
  },
  {
   "name" : "twalk"
  },
  {
   "name" : "tzalloc"
  },
  {
   "name" : "tzfree"
  },
  {
   "name" : "tzset"
  },
  {
   "name" : "umask"
  },
  {
   "name" : "umount"
  },
  {
   "name" : "umount2"
  },
  {
   "name" : "uname"
  },
  {
   "name" : "ungetc"
  },
  {
   "name" : "ungetwc"
  },
  {
   "name" : "unlink"
  },
  {
   "name" : "unlinkat"
  },
  {
   "name" : "unlockpt"
  },
  {
   "name" : "unsetenv"
  },
  {
   "name" : "unshare"
  },
  {
   "name" : "uselocale"
  },
  {
   "name" : "usleep"
  },
  {
   "name" : "utime"
  },
  {
   "name" : "utimensat"
  },
  {
   "name" : "utimes"
  },
  {
   "name" : "utmpname"
  },
  {
   "name" : "valloc"
  },
  {
   "name" : "vasprintf"
  },
  {
   "name" : "vdprintf"
  },
  {
   "name" : "verr"
  },
  {
   "name" : "verrx"
  },
  {
   "name" : "vfdprintf"
  },
  {
   "binding" : "weak",
   "name" : "vfork"
  },
  {
   "name" : "vfprintf"
  },
  {
   "name" : "vfscanf"
  },
  {
   "name" : "vfwprintf"
  },
  {
   "name" : "vfwscanf"
  },
  {
   "name" : "vmsplice"
  },
  {
   "name" : "vprintf"
  },
  {
   "name" : "vscanf"
  },
  {
   "name" : "vsnprintf"
  },
  {
   "name" : "vsprintf"
  },
  {
   "name" : "vsscanf"
  },
  {
   "name" : "vswprintf"
  },
  {
   "name" : "vswscanf"
  },
  {
   "name" : "vsyslog"
  },
  {
   "name" : "vwarn"
  },
  {
   "name" : "vwarnx"
  },
  {
   "name" : "vwprintf"
  },
  {
   "name" : "vwscanf"
  },
  {
   "name" : "wait"
  },
  {
   "name" : "wait4"
  },
  {
   "name" : "waitid"
  },
  {
   "name" : "waitpid"
  },
  {
   "name" : "warn"
  },
  {
   "name" : "warnx"
  },
  {
   "name" : "wcpcpy"
  },
  {
   "name" : "wcpncpy"
  },
  {
   "name" : "wcrtomb"
  },
  {
   "name" : "wcscasecmp"
  },
  {
   "name" : "wcscasecmp_l"
  },
  {
   "name" : "wcscat"
  },
  {
   "name" : "wcschr"
  },
  {
   "name" : "wcscmp"
  },
  {
   "name" : "wcscoll"
  },
  {
   "name" : "wcscoll_l"
  },
  {
   "name" : "wcscpy"
  },
  {
   "name" : "wcscspn"
  },
  {
   "name" : "wcsdup"
  },
  {
   "name" : "wcsftime"
  },
  {
   "name" : "wcsftime_l"
  },
  {
   "name" : "wcslcat"
  },
  {
   "name" : "wcslcpy"
  },
  {
   "name" : "wcslen"
  },
  {
   "name" : "wcsncasecmp"
  },
  {
   "name" : "wcsncasecmp_l"
  },
  {
   "name" : "wcsncat"
  },
  {
   "name" : "wcsncmp"
  },
  {
   "name" : "wcsncpy"
  },
  {
   "name" : "wcsnlen"
  },
  {
   "name" : "wcsnrtombs"
  },
  {
   "name" : "wcspbrk"
  },
  {
   "name" : "wcsrchr"
  },
  {
   "name" : "wcsrtombs"
  },
  {
   "name" : "wcsrtombs_l"
  },
  {
   "name" : "wcsspn"
  },
  {
   "name" : "wcsstr"
  },
  {
   "name" : "wcstod"
  },
  {
   "name" : "wcstod_l"
  },
  {
   "name" : "wcstof"
  },
  {
   "name" : "wcstof_l"
  },
  {
   "name" : "wcstoimax"
  },
  {
   "name" : "wcstok"
  },
  {
   "name" : "wcstol"
  },
  {
   "name" : "wcstol_l"
  },
  {
   "name" : "wcstold"
  },
  {
   "name" : "wcstold_l"
  },
  {
   "name" : "wcstoll"
  },
  {
   "name" : "wcstoll_l"
  },
  {
   "name" : "wcstombs"
  },
  {
   "name" : "wcstoul"
  },
  {
   "name" : "wcstoul_l"
  },
  {
   "name" : "wcstoull"
  },
  {
   "name" : "wcstoull_l"
  },
  {
   "name" : "wcstoumax"
  },
  {
   "name" : "wcswidth"
  },
  {
   "name" : "wcsxfrm"
  },
  {
   "name" : "wcsxfrm_l"
  },
  {
   "name" : "wctob"
  },
  {
   "name" : "wctomb"
  },
  {
   "name" : "wctrans"
  },
  {
   "name" : "wctrans_l"
  },
  {
   "name" : "wctype"
  },
  {
   "name" : "wctype_l"
  },
  {
   "name" : "wcwidth"
  },
  {
   "name" : "wmemchr"
  },
  {
   "name" : "wmemcmp"
  },
  {
   "name" : "wmemcpy"
  },
  {
   "name" : "wmemmove"
  },
  {
   "name" : "wmempcpy"
  },
  {
   "name" : "wmemset"
  },
  {
   "name" : "wprintf"
  },
  {
   "name" : "write"
  },
  {
   "name" : "writev"
  },
  {
   "name" : "wscanf"
  }
 ],
 "elf_objects" :
 [
  {
   "name" : "__free_hook"
  },
  {
   "name" : "__isthreaded"
  },
  {
   "name" : "__malloc_hook"
  },
  {
   "name" : "__memalign_hook"
  },
  {
   "name" : "__p_class_syms"
  },
  {
   "name" : "__p_type_syms"
  },
  {
   "name" : "__progname"
  },
  {
   "name" : "__realloc_hook"
  },
  {
   "name" : "__sF"
  },
  {
   "name" : "__stack_chk_guard"
  },
  {
   "name" : "_ctype_"
  },
  {
   "name" : "_tolower_tab_"
  },
  {
   "name" : "_toupper_tab_"
  },
  {
   "name" : "daylight"
  },
  {
   "name" : "environ"
  },
  {
   "name" : "error_message_count"
  },
  {
   "name" : "error_one_per_line"
  },
  {
   "name" : "error_print_progname"
  },
  {
   "name" : "in6addr_any"
  },
  {
   "name" : "in6addr_loopback"
  },
  {
   "name" : "optarg"
  },
  {
   "name" : "opterr"
  },
  {
   "name" : "optind"
  },
  {
   "name" : "optopt"
  },
  {
   "name" : "optreset"
  },
  {
   "name" : "stderr"
  },
  {
   "name" : "stdin"
  },
  {
   "name" : "stdout"
  },
  {
   "name" : "sys_siglist"
  },
  {
   "name" : "sys_signame"
  },
  {
   "name" : "timezone"
  },
  {
   "name" : "tzname"
  }
 ],
 "enum_types" :
 [
  {
   "alignment" : 4,
   "enum_fields" :
   [
    {
     "enum_field_value" : 0,
     "name" : "TCA_UNSPEC"
    },
    {
     "enum_field_value" : 1,
     "name" : "TCA_KIND"
    },
    {
     "enum_field_value" : 2,
     "name" : "TCA_OPTIONS"
    },
    {
     "enum_field_value" : 3,
     "name" : "TCA_STATS"
    },
    {
     "enum_field_value" : 4,
     "name" : "TCA_XSTATS"
    },
    {
     "enum_field_value" : 5,
     "name" : "TCA_RATE"
    },
    {
     "enum_field_value" : 6,
     "name" : "TCA_FCNT"
    },
    {
     "enum_field_value" : 7,
     "name" : "TCA_STATS2"
    },
    {
     "enum_field_value" : 8,
     "name" : "TCA_STAB"
    },
    {
     "enum_field_value" : 9,
     "name" : "TCA_PAD"
    },
    {
     "enum_field_value" : 10,
     "name" : "TCA_DUMP_INVISIBLE"
    },
    {
     "enum_field_value" : 11,
     "name" : "TCA_CHAIN"
    },
    {
     "enum_field_value" : 12,
     "name" : "TCA_HW_OFFLOAD"
    },
    {
     "enum_field_value" : 13,
     "name" : "TCA_INGRESS_BLOCK"
    },
    {
     "enum_field_value" : 14,
     "name" : "TCA_EGRESS_BLOCK"
    },
    {
     "enum_field_value" : 15,
     "name" : "TCA_DUMP_FLAGS"
    },
    {
     "enum_field_value" : 16,
     "name" : "TCA_EXT_WARN_MSG"
    },
    {
     "enum_field_value" : 17,
     "name" : "__TCA_MAX"
    }
   ],
   "linker_set_key" : "_ZTI10$TCA_CHAIN",
   "name" : "(unnamed)",
   "size" : 4,
   "source_file" : "bionic/libc/kernel/uapi/linux/rtnetlink.h",
   "underlying_type" : "_ZTIj"
  },
  {
   "alignment" : 4,
   "enum_fields" :
   [
    {
     "enum_field_value" : 1,
     "name" : "mtx_plain"
    },
    {
     "enum_field_value" : 2,
     "name" : "mtx_recursive"
    },
    {
     "enum_field_value" : 4,
     "name" : "mtx_timed"
    }
   ],
   "linker_set_key" : "_ZTI10$mtx_plain",
   "name" : "(unnamed)",
   "size" : 4,
   "source_file" : "bionic/libc/include/threads.h",
   "underlying_type" : "_ZTIj"
  },
  {
   "alignment" : 4,
   "enum_fields" :
   [
    {
     "enum_field_value" : 0,
     "name" : "thrd_success"
    },
    {
     "enum_field_value" : 1,
     "name" : "thrd_busy"
    },
    {
     "enum_field_value" : 2,
     "name" : "thrd_error"
    },
    {
     "enum_field_value" : 3,
     "name" : "thrd_nomem"
    },
    {
     "enum_field_value" : 4,
     "name" : "thrd_timedout"
    }
   ],
   "linker_set_key" : "_ZTI10$thrd_busy",
   "name" : "(unnamed)",
   "size" : 4,
   "source_file" : "bionic/libc/include/threads.h",
   "underlying_type" : "_ZTIj"
  },
  {
   "alignment" : 4,
   "enum_fields" :
   [
    {
     "enum_field_value" : 0,
     "name" : "ns_c_invalid"
    },
    {
     "enum_field_value" : 1,
     "name" : "ns_c_in"
    },
    {
     "enum_field_value" : 2,
     "name" : "ns_c_2"
    },
    {
     "enum_field_value" : 3,
     "name" : "ns_c_chaos"
    },
    {
     "enum_field_value" : 4,
     "name" : "ns_c_hs"
    },
    {
     "enum_field_value" : 254,
     "name" : "ns_c_none"
    },
    {
     "enum_field_value" : 255,
     "name" : "ns_c_any"
    },
    {
     "enum_field_value" : 65536,
     "name" : "ns_c_max"
    }
   ],
   "linker_set_key" : "_ZTI10__ns_class",
   "name" : "__ns_class",
   "size" : 4,
   "source_file" : "bionic/libc/include/arpa/nameser.h",
   "underlying_type" : "_ZTIj"
  },
  {
   "alignment" : 4,
   "enum_fields" :
   [
    {
     "enum_field_value" : 0,
     "name" : "ns_r_noerror"
    },
    {
     "enum_field_value" : 1,
     "name" : "ns_r_formerr"
    },
    {
     "enum_field_value" : 2,
     "name" : "ns_r_servfail"
    },
    {
     "enum_field_value" : 3,
     "name" : "ns_r_nxdomain"
    },
    {
     "enum_field_value" : 4,
     "name" : "ns_r_notimpl"
    },
    {
     "enum_field_value" : 5,
     "name" : "ns_r_refused"
    },
    {
     "enum_field_value" : 6,
     "name" : "ns_r_yxdomain"
    },
    {
     "enum_field_value" : 7,
     "name" : "ns_r_yxrrset"
    },
    {
     "enum_field_value" : 8,
     "name" : "ns_r_nxrrset"
    },
    {
     "enum_field_value" : 9,
     "name" : "ns_r_notauth"
    },
    {
     "enum_field_value" : 10,
     "name" : "ns_r_notzone"
    },
    {
     "enum_field_value" : 11,
     "name" : "ns_r_max"
    },
    {
     "enum_field_value" : 16,
     "name" : "ns_r_badvers"
    },
    {
     "enum_field_value" : 16,
     "name" : "ns_r_badsig"
    },
    {
     "enum_field_value" : 17,
     "name" : "ns_r_badkey"
    },
    {
     "enum_field_value" : 18,
     "name" : "ns_r_badtime"
    }
   ],
   "linker_set_key" : "_ZTI10__ns_rcode",
   "name" : "__ns_rcode",
   "size" : 4,
   "source_file" : "bionic/libc/include/arpa/nameser.h",
   "underlying_type" : "_ZTIj"
  },
  {
   "alignment" : 4,
   "enum_fields" :
   [
    {
     "enum_field_value" : 0,
     "name" : "RT_TABLE_UNSPEC"
    },
    {
     "enum_field_value" : 252,
     "name" : "RT_TABLE_COMPAT"
    },
    {
     "enum_field_value" : 253,
     "name" : "RT_TABLE_DEFAULT"
    },
    {
     "enum_field_value" : 254,
     "name" : "RT_TABLE_MAIN"
    },
    {
     "enum_field_value" : 255,
     "name" : "RT_TABLE_LOCAL"
    },
    {
     "enum_field_value" : 4294967295,
     "name" : "RT_TABLE_MAX"
    }
   ],
   "linker_set_key" : "_ZTI10rt_class_t",
   "name" : "rt_class_t",
   "size" : 4,
   "source_file" : "bionic/libc/kernel/uapi/linux/rtnetlink.h",
   "underlying_type" : "_ZTIj"
  },
  {
   "alignment" : 4,
   "enum_fields" :
   [
    {
     "enum_field_value" : 0,
     "name" : "RT_SCOPE_UNIVERSE"
    },
    {
     "enum_field_value" : 200,
     "name" : "RT_SCOPE_SITE"
    },
    {
     "enum_field_value" : 253,
     "name" : "RT_SCOPE_LINK"
    },
    {
     "enum_field_value" : 254,
     "name" : "RT_SCOPE_HOST"
    },
    {
     "enum_field_value" : 255,
     "name" : "RT_SCOPE_NOWHERE"
    }
   ],
   "linker_set_key" : "_ZTI10rt_scope_t",
   "name" : "rt_scope_t",
   "size" : 4,
   "source_file" : "bionic/libc/kernel/uapi/linux/rtnetlink.h",
   "underlying_type" : "_ZTIj"
  },
  {
   "alignment" : 4,
   "enum_fields" :
   [
    {
     "enum_field_value" : 0,
     "name" : "IPPROTO_IP"
    },
    {
     "enum_field_value" : 1,
     "name" : "IPPROTO_ICMP"
    },
    {
     "enum_field_value" : 2,
     "name" : "IPPROTO_IGMP"
    },
    {
     "enum_field_value" : 4,
     "name" : "IPPROTO_IPIP"
    },
    {
     "enum_field_value" : 6,
     "name" : "IPPROTO_TCP"
    },
    {
     "enum_field_value" : 8,
     "name" : "IPPROTO_EGP"
    },
    {
     "enum_field_value" : 12,
     "name" : "IPPROTO_PUP"
    },
    {
     "enum_field_value" : 17,
     "name" : "IPPROTO_UDP"
    },
    {
     "enum_field_value" : 22,
     "name" : "IPPROTO_IDP"
    },
    {
     "enum_field_value" : 29,
     "name" : "IPPROTO_TP"
    },
    {
     "enum_field_value" : 33,
     "name" : "IPPROTO_DCCP"
    },
    {
     "enum_field_value" : 41,
     "name" : "IPPROTO_IPV6"
    },
    {
     "enum_field_value" : 46,
     "name" : "IPPROTO_RSVP"
    },
    {
     "enum_field_value" : 47,
     "name" : "IPPROTO_GRE"
    },
    {
     "enum_field_value" : 50,
     "name" : "IPPROTO_ESP"
    },
    {
     "enum_field_value" : 51,
     "name" : "IPPROTO_AH"
    },
    {
     "enum_field_value" : 92,
     "name" : "IPPROTO_MTP"
    },
    {
     "enum_field_value" : 94,
     "name" : "IPPROTO_BEETPH"
    },
    {
     "enum_field_value" : 98,
     "name" : "IPPROTO_ENCAP"
    },
    {
     "enum_field_value" : 103,
     "name" : "IPPROTO_PIM"
    },
    {
     "enum_field_value" : 108,
     "name" : "IPPROTO_COMP"
    },
    {
     "enum_field_value" : 115,
     "name" : "IPPROTO_L2TP"
    },
    {
     "enum_field_value" : 132,
     "name" : "IPPROTO_SCTP"
    },
    {
     "enum_field_value" : 136,
     "name" : "IPPROTO_UDPLITE"
    },
    {
     "enum_field_value" : 137,
     "name" : "IPPROTO_MPLS"
    },
    {
     "enum_field_value" : 143,
     "name" : "IPPROTO_ETHERNET"
    },
    {
     "enum_field_value" : 255,
     "name" : "IPPROTO_RAW"
    },
    {
     "enum_field_value" : 262,
     "name" : "IPPROTO_MPTCP"
    },
    {
     "enum_field_value" : 263,
     "name" : "IPPROTO_MAX"
    }
   ],
   "linker_set_key" : "_ZTI11$IPPROTO_AH",
   "name" : "(unnamed)",
   "size" : 4,
   "source_file" : "bionic/libc/kernel/uapi/linux/in.h",
   "underlying_type" : "_ZTIj"
  },
  {
   "alignment" : 4,
   "enum_fields" :
   [
    {
     "enum_field_value" : 0,
     "name" : "ns_o_query"
    },
    {
     "enum_field_value" : 1,
     "name" : "ns_o_iquery"
    },
    {
     "enum_field_value" : 2,
     "name" : "ns_o_status"
    },
    {
     "enum_field_value" : 4,
     "name" : "ns_o_notify"
    },
    {
     "enum_field_value" : 5,
     "name" : "ns_o_update"
    },
    {
     "enum_field_value" : 6,
     "name" : "ns_o_max"
    }
   ],
   "linker_set_key" : "_ZTI11__ns_opcode",
   "name" : "__ns_opcode",
   "size" : 4,
   "source_file" : "bionic/libc/include/arpa/nameser.h",
   "underlying_type" : "_ZTIj"
  },
  {
   "alignment" : 4,
   "enum_fields" :
   [
    {
     "enum_field_value" : 0,
     "name" : "IPVLAN_MODE_L2"
    },
    {
     "enum_field_value" : 1,
     "name" : "IPVLAN_MODE_L3"
    },
    {
     "enum_field_value" : 2,
     "name" : "IPVLAN_MODE_L3S"
    },
    {
     "enum_field_value" : 3,
     "name" : "IPVLAN_MODE_MAX"
    }
   ],
   "linker_set_key" : "_ZTI11ipvlan_mode",
   "name" : "ipvlan_mode",
   "size" : 4,
   "source_file" : "bionic/libc/kernel/uapi/linux/if_link.h",
   "underlying_type" : "_ZTIj"
  },
  {
   "alignment" : 4,
   "enum_fields" :
   [
    {
     "enum_field_value" : 0,
     "name" : "NETKIT_L2"
    },
    {
     "enum_field_value" : 1,
     "name" : "NETKIT_L3"
    }
   ],
   "linker_set_key" : "_ZTI11netkit_mode",
   "name" : "netkit_mode",
   "size" : 4,
   "source_file" : "bionic/libc/kernel/uapi/linux/if_link.h",
   "underlying_type" : "_ZTIj"
  },
  {
   "alignment" : 4,
   "enum_fields" :
   [
    {
     "enum_field_value" : 0,
     "name" : "IFA_UNSPEC"
    },
    {
     "enum_field_value" : 1,
     "name" : "IFA_ADDRESS"
    },
    {
     "enum_field_value" : 2,
     "name" : "IFA_LOCAL"
    },
    {
     "enum_field_value" : 3,
     "name" : "IFA_LABEL"
    },
    {
     "enum_field_value" : 4,
     "name" : "IFA_BROADCAST"
    },
    {
     "enum_field_value" : 5,
     "name" : "IFA_ANYCAST"
    },
    {
     "enum_field_value" : 6,
     "name" : "IFA_CACHEINFO"
    },
    {
     "enum_field_value" : 7,
     "name" : "IFA_MULTICAST"
    },
    {
     "enum_field_value" : 8,
     "name" : "IFA_FLAGS"
    },
    {
     "enum_field_value" : 9,
     "name" : "IFA_RT_PRIORITY"
    },
    {
     "enum_field_value" : 10,
     "name" : "IFA_TARGET_NETNSID"
    },
    {
     "enum_field_value" : 11,
     "name" : "IFA_PROTO"
    },
    {
     "enum_field_value" : 12,
     "name" : "__IFA_MAX"
    }
   ],
   "linker_set_key" : "_ZTI12$IFA_ADDRESS",
   "name" : "(unnamed)",
   "size" : 4,
   "source_file" : "bionic/libc/kernel/uapi/linux/if_addr.h",
   "underlying_type" : "_ZTIj"
  },
  {
   "alignment" : 4,
   "enum_fields" :
   [
    {
     "enum_field_value" : 0,
     "name" : "NDTA_UNSPEC"
    },
    {
     "enum_field_value" : 1,
     "name" : "NDTA_NAME"
    },
    {
     "enum_field_value" : 2,
     "name" : "NDTA_THRESH1"
    },
    {
     "enum_field_value" : 3,
     "name" : "NDTA_THRESH2"
    },
    {
     "enum_field_value" : 4,
     "name" : "NDTA_THRESH3"
    },
    {
     "enum_field_value" : 5,
     "name" : "NDTA_CONFIG"
    },
    {
     "enum_field_value" : 6,
     "name" : "NDTA_PARMS"
    },
    {
     "enum_field_value" : 7,
     "name" : "NDTA_STATS"
    },
    {
     "enum_field_value" : 8,
     "name" : "NDTA_GC_INTERVAL"
    },
    {
     "enum_field_value" : 9,
     "name" : "NDTA_PAD"
    },
    {
     "enum_field_value" : 10,
     "name" : "__NDTA_MAX"
    }
   ],
   "linker_set_key" : "_ZTI12$NDTA_CONFIG",
   "name" : "(unnamed)",
   "size" : 4,
   "source_file" : "bionic/libc/kernel/uapi/linux/neighbour.h",
   "underlying_type" : "_ZTIj"
  },
  {
   "alignment" : 4,
   "enum_fields" :
   [
    {
     "enum_field_value" : 0,
     "name" : "RTAX_UNSPEC"
    },
    {
     "enum_field_value" : 1,
     "name" : "RTAX_LOCK"
    },
    {
     "enum_field_value" : 2,
     "name" : "RTAX_MTU"
    },
    {
     "enum_field_value" : 3,
     "name" : "RTAX_WINDOW"
    },
    {
     "enum_field_value" : 4,
     "name" : "RTAX_RTT"
    },
    {
     "enum_field_value" : 5,
     "name" : "RTAX_RTTVAR"
    },
    {
     "enum_field_value" : 6,
     "name" : "RTAX_SSTHRESH"
    },
    {
     "enum_field_value" : 7,
     "name" : "RTAX_CWND"
    },
    {
     "enum_field_value" : 8,
     "name" : "RTAX_ADVMSS"
    },
    {
     "enum_field_value" : 9,
     "name" : "RTAX_REORDERING"
    },
    {
     "enum_field_value" : 10,
     "name" : "RTAX_HOPLIMIT"
    },
    {
     "enum_field_value" : 11,
     "name" : "RTAX_INITCWND"
    },
    {
     "enum_field_value" : 12,
     "name" : "RTAX_FEATURES"
    },
    {
     "enum_field_value" : 13,
     "name" : "RTAX_RTO_MIN"
    },
    {
     "enum_field_value" : 14,
     "name" : "RTAX_INITRWND"
    },
    {
     "enum_field_value" : 15,
     "name" : "RTAX_QUICKACK"
    },
    {
     "enum_field_value" : 16,
     "name" : "RTAX_CC_ALGO"
    },
    {
     "enum_field_value" : 17,
     "name" : "RTAX_FASTOPEN_NO_COOKIE"
    },
    {
     "enum_field_value" : 18,
     "name" : "__RTAX_MAX"
    }
   ],
   "linker_set_key" : "_ZTI12$RTAX_ADVMSS",
   "name" : "(unnamed)",
   "size" : 4,
   "source_file" : "bionic/libc/kernel/uapi/linux/rtnetlink.h",
   "underlying_type" : "_ZTIj"
  },
  {
   "alignment" : 4,
   "enum_fields" :
   [
    {
     "enum_field_value" : 0,
     "name" : "RTN_UNSPEC"
    },
    {
     "enum_field_value" : 1,
     "name" : "RTN_UNICAST"
    },
    {
     "enum_field_value" : 2,
     "name" : "RTN_LOCAL"
    },
    {
     "enum_field_value" : 3,
     "name" : "RTN_BROADCAST"
    },
    {
     "enum_field_value" : 4,
     "name" : "RTN_ANYCAST"
    },
    {
     "enum_field_value" : 5,
     "name" : "RTN_MULTICAST"
    },
    {
     "enum_field_value" : 6,
     "name" : "RTN_BLACKHOLE"
    },
    {
     "enum_field_value" : 7,
     "name" : "RTN_UNREACHABLE"
    },
    {
     "enum_field_value" : 8,
     "name" : "RTN_PROHIBIT"
    },
    {
     "enum_field_value" : 9,
     "name" : "RTN_THROW"
    },
    {
     "enum_field_value" : 10,
     "name" : "RTN_NAT"
    },
    {
     "enum_field_value" : 11,
     "name" : "RTN_XRESOLVE"
    },
    {
     "enum_field_value" : 12,
     "name" : "__RTN_MAX"
    }
   ],
   "linker_set_key" : "_ZTI12$RTN_ANYCAST",
   "name" : "(unnamed)",
   "size" : 4,
   "source_file" : "bionic/libc/kernel/uapi/linux/rtnetlink.h",
   "underlying_type" : "_ZTIj"
  },
  {
   "alignment" : 4,
   "enum_fields" :
   [
    {
     "enum_field_value" : 1,
     "name" : "MACVLAN_MODE_PRIVATE"
    },
    {
     "enum_field_value" : 2,
     "name" : "MACVLAN_MODE_VEPA"
    },
    {
     "enum_field_value" : 4,
     "name" : "MACVLAN_MODE_BRIDGE"
    },
    {
     "enum_field_value" : 8,
     "name" : "MACVLAN_MODE_PASSTHRU"
    },
    {
     "enum_field_value" : 16,
     "name" : "MACVLAN_MODE_SOURCE"
    }
   ],
   "linker_set_key" : "_ZTI12macvlan_mode",
   "name" : "macvlan_mode",
   "size" : 4,
   "source_file" : "bionic/libc/kernel/uapi/linux/if_link.h",
   "underlying_type" : "_ZTIj"
  },
  {
   "alignment" : 4,
   "enum_fields" :
   [
    {
     "enum_field_value" : 0,
     "name" : "memory_order_relaxed"
    },
    {
     "enum_field_value" : 1,
     "name" : "memory_order_consume"
    },
    {
     "enum_field_value" : 2,
     "name" : "memory_order_acquire"
    },
    {
     "enum_field_value" : 3,
     "name" : "memory_order_release"
    },
    {
     "enum_field_value" : 4,
     "name" : "memory_order_acq_rel"
    },
    {
     "enum_field_value" : 5,
     "name" : "memory_order_seq_cst"
    }
   ],
   "linker_set_key" : "_ZTI12memory_order",
   "name" : "memory_order",
   "size" : 4,
   "source_file" : "bionic/libc/include/bits/stdatomic.h",
   "underlying_type" : "_ZTIj"
  },
  {
   "alignment" : 4,
   "enum_fields" :
   [
    {
     "enum_field_value" : 0,
     "name" : "SS_FREE"
    },
    {
     "enum_field_value" : 1,
     "name" : "SS_UNCONNECTED"
    },
    {
     "enum_field_value" : 2,
     "name" : "SS_CONNECTING"
    },
    {
     "enum_field_value" : 3,
     "name" : "SS_CONNECTED"
    },
    {
     "enum_field_value" : 4,
     "name" : "SS_DISCONNECTING"
    }
   ],
   "linker_set_key" : "_ZTI12socket_state",
   "name" : "socket_state",
   "size" : 4,
   "source_file" : "bionic/libc/kernel/uapi/linux/net.h",
   "underlying_type" : "_ZTIj"
  },
  {
   "alignment" : 4,
   "enum_fields" :
   [
    {
     "enum_field_value" : 0,
     "name" : "IFLA_UNSPEC"
    },
    {
     "enum_field_value" : 1,
     "name" : "IFLA_ADDRESS"
    },
    {
     "enum_field_value" : 2,
     "name" : "IFLA_BROADCAST"
    },
    {
     "enum_field_value" : 3,
     "name" : "IFLA_IFNAME"
    },
    {
     "enum_field_value" : 4,
     "name" : "IFLA_MTU"
    },
    {
     "enum_field_value" : 5,
     "name" : "IFLA_LINK"
    },
    {
     "enum_field_value" : 6,
     "name" : "IFLA_QDISC"
    },
    {
     "enum_field_value" : 7,
     "name" : "IFLA_STATS"
    },
    {
     "enum_field_value" : 8,
     "name" : "IFLA_COST"
    },
    {
     "enum_field_value" : 9,
     "name" : "IFLA_PRIORITY"
    },
    {
     "enum_field_value" : 10,
     "name" : "IFLA_MASTER"
    },
    {
     "enum_field_value" : 11,
     "name" : "IFLA_WIRELESS"
    },
    {
     "enum_field_value" : 12,
     "name" : "IFLA_PROTINFO"
    },
    {
     "enum_field_value" : 13,
     "name" : "IFLA_TXQLEN"
    },
    {
     "enum_field_value" : 14,
     "name" : "IFLA_MAP"
    },
    {
     "enum_field_value" : 15,
     "name" : "IFLA_WEIGHT"
    },
    {
     "enum_field_value" : 16,
     "name" : "IFLA_OPERSTATE"
    },
    {
     "enum_field_value" : 17,
     "name" : "IFLA_LINKMODE"
    },
    {
     "enum_field_value" : 18,
     "name" : "IFLA_LINKINFO"
    },
    {
     "enum_field_value" : 19,
     "name" : "IFLA_NET_NS_PID"
    },
    {
     "enum_field_value" : 20,
     "name" : "IFLA_IFALIAS"
    },
    {
     "enum_field_value" : 21,
     "name" : "IFLA_NUM_VF"
    },
    {
     "enum_field_value" : 22,
     "name" : "IFLA_VFINFO_LIST"
    },
    {
     "enum_field_value" : 23,
     "name" : "IFLA_STATS64"
    },
    {
     "enum_field_value" : 24,
     "name" : "IFLA_VF_PORTS"
    },
    {
     "enum_field_value" : 25,
     "name" : "IFLA_PORT_SELF"
    },
    {
     "enum_field_value" : 26,
     "name" : "IFLA_AF_SPEC"
    },
    {
     "enum_field_value" : 27,
     "name" : "IFLA_GROUP"
    },
    {
     "enum_field_value" : 28,
     "name" : "IFLA_NET_NS_FD"
    },
    {
     "enum_field_value" : 29,
     "name" : "IFLA_EXT_MASK"
    },
    {
     "enum_field_value" : 30,
     "name" : "IFLA_PROMISCUITY"
    },
    {
     "enum_field_value" : 31,
     "name" : "IFLA_NUM_TX_QUEUES"
    },
    {
     "enum_field_value" : 32,
     "name" : "IFLA_NUM_RX_QUEUES"
    },
    {
     "enum_field_value" : 33,
     "name" : "IFLA_CARRIER"
    },
    {
     "enum_field_value" : 34,
     "name" : "IFLA_PHYS_PORT_ID"
    },
    {
     "enum_field_value" : 35,
     "name" : "IFLA_CARRIER_CHANGES"
    },
    {
     "enum_field_value" : 36,
     "name" : "IFLA_PHYS_SWITCH_ID"
    },
    {
     "enum_field_value" : 37,
     "name" : "IFLA_LINK_NETNSID"
    },
    {
     "enum_field_value" : 38,
     "name" : "IFLA_PHYS_PORT_NAME"
    },
    {
     "enum_field_value" : 39,
     "name" : "IFLA_PROTO_DOWN"
    },
    {
     "enum_field_value" : 40,
     "name" : "IFLA_GSO_MAX_SEGS"
    },
    {
     "enum_field_value" : 41,
     "name" : "IFLA_GSO_MAX_SIZE"
    },
    {
     "enum_field_value" : 42,
     "name" : "IFLA_PAD"
    },
    {
     "enum_field_value" : 43,
     "name" : "IFLA_XDP"
    },
    {
     "enum_field_value" : 44,
     "name" : "IFLA_EVENT"
    },
    {
     "enum_field_value" : 45,
     "name" : "IFLA_NEW_NETNSID"
    },
    {
     "enum_field_value" : 46,
     "name" : "IFLA_IF_NETNSID"
    },
    {
     "enum_field_value" : 46,
     "name" : "IFLA_TARGET_NETNSID"
    },
    {
     "enum_field_value" : 47,
     "name" : "IFLA_CARRIER_UP_COUNT"
    },
    {
     "enum_field_value" : 48,
     "name" : "IFLA_CARRIER_DOWN_COUNT"
    },
    {
     "enum_field_value" : 49,
     "name" : "IFLA_NEW_IFINDEX"
    },
    {
     "enum_field_value" : 50,
     "name" : "IFLA_MIN_MTU"
    },
    {
     "enum_field_value" : 51,
     "name" : "IFLA_MAX_MTU"
    },
    {
     "enum_field_value" : 52,
     "name" : "IFLA_PROP_LIST"
    },
    {
     "enum_field_value" : 53,
     "name" : "IFLA_ALT_IFNAME"
    },
    {
     "enum_field_value" : 54,
     "name" : "IFLA_PERM_ADDRESS"
    },
    {
     "enum_field_value" : 55,
     "name" : "IFLA_PROTO_DOWN_REASON"
    },
    {
     "enum_field_value" : 56,
     "name" : "IFLA_PARENT_DEV_NAME"
    },
    {
     "enum_field_value" : 57,
     "name" : "IFLA_PARENT_DEV_BUS_NAME"
    },
    {
     "enum_field_value" : 58,
     "name" : "IFLA_GRO_MAX_SIZE"
    },
    {
     "enum_field_value" : 59,
     "name" : "IFLA_TSO_MAX_SIZE"
    },
    {
     "enum_field_value" : 60,
     "name" : "IFLA_TSO_MAX_SEGS"
    },
    {
     "enum_field_value" : 61,
     "name" : "IFLA_ALLMULTI"
    },
    {
     "enum_field_value" : 62,
     "name" : "IFLA_DEVLINK_PORT"
    },
    {
     "enum_field_value" : 63,
     "name" : "IFLA_GSO_IPV4_MAX_SIZE"
    },
    {
     "enum_field_value" : 64,
     "name" : "IFLA_GRO_IPV4_MAX_SIZE"
    },
    {
     "enum_field_value" : 65,
     "name" : "IFLA_DPLL_PIN"
    },
    {
     "enum_field_value" : 66,
     "name" : "__IFLA_MAX"
    }
   ],
   "linker_set_key" : "_ZTI13$IFLA_ADDRESS",
   "name" : "(unnamed)",
   "size" : 4,
   "source_file" : "bionic/libc/kernel/uapi/linux/if_link.h",
   "underlying_type" : "_ZTIj"
  },
  {
   "alignment" : 4,
   "enum_fields" :
   [
    {
     "enum_field_value" : 0,
     "name" : "IFLA_VF_INFO_UNSPEC"
    },
    {
     "enum_field_value" : 1,
     "name" : "IFLA_VF_INFO"
    },
    {
     "enum_field_value" : 2,
     "name" : "__IFLA_VF_INFO_MAX"
    }
   ],
   "linker_set_key" : "_ZTI13$IFLA_VF_INFO",
   "name" : "(unnamed)",
   "size" : 4,
   "source_file" : "bionic/libc/kernel/uapi/linux/if_link.h",
   "underlying_type" : "_ZTIj"
  },
  {
   "alignment" : 4,
   "enum_fields" :
   [
    {
     "enum_field_value" : 0,
     "name" : "IFLA_VF_PORT_UNSPEC"
    },
    {
     "enum_field_value" : 1,
     "name" : "IFLA_VF_PORT"
    },
    {
     "enum_field_value" : 2,
     "name" : "__IFLA_VF_PORT_MAX"
    }
   ],
   "linker_set_key" : "_ZTI13$IFLA_VF_PORT",
   "name" : "(unnamed)",
   "size" : 4,
   "source_file" : "bionic/libc/kernel/uapi/linux/if_link.h",
   "underlying_type" : "_ZTIj"
  },
  {
   "alignment" : 4,
   "enum_fields" :
   [
    {
     "enum_field_value" : 0,
     "name" : "GTP_ROLE_GGSN"
    },
    {
     "enum_field_value" : 1,
     "name" : "GTP_ROLE_SGSN"
    }
   ],
   "linker_set_key" : "_ZTI13ifla_gtp_role",
   "name" : "ifla_gtp_role",
   "size" : 4,
   "source_file" : "bionic/libc/kernel/uapi/linux/if_link.h",
   "underlying_type" : "_ZTIj"
  },
  {
   "alignment" : 4,
   "enum_fields" :
   [
    {
     "enum_field_value" : 0,
     "name" : "VXLAN_DF_UNSET"
    },
    {
     "enum_field_value" : 1,
     "name" : "VXLAN_DF_SET"
    },
    {
     "enum_field_value" : 2,
     "name" : "VXLAN_DF_INHERIT"
    },
    {
     "enum_field_value" : 3,
     "name" : "__VXLAN_DF_END"
    },
    {
     "enum_field_value" : 2,
     "name" : "VXLAN_DF_MAX"
    }
   ],
   "linker_set_key" : "_ZTI13ifla_vxlan_df",
   "name" : "ifla_vxlan_df",
   "size" : 4,
   "source_file" : "bionic/libc/kernel/uapi/linux/if_link.h",
   "underlying_type" : "_ZTIj"
  },
  {
   "alignment" : 4,
   "enum_fields" :
   [
    {
     "enum_field_value" : -1,
     "name" : "NETKIT_NEXT"
    },
    {
     "enum_field_value" : 0,
     "name" : "NETKIT_PASS"
    },
    {
     "enum_field_value" : 2,
     "name" : "NETKIT_DROP"
    },
    {
     "enum_field_value" : 7,
     "name" : "NETKIT_REDIRECT"
    }
   ],
   "linker_set_key" : "_ZTI13netkit_action",
   "name" : "netkit_action",
   "size" : 4,
   "source_file" : "bionic/libc/kernel/uapi/linux/if_link.h",
   "underlying_type" : "_ZTIi"
  },
  {
   "alignment" : 4,
   "enum_fields" :
   [
    {
     "enum_field_value" : 0,
     "name" : "RTA_UNSPEC"
    },
    {
     "enum_field_value" : 1,
     "name" : "RTA_DST"
    },
    {
     "enum_field_value" : 2,
     "name" : "RTA_SRC"
    },
    {
     "enum_field_value" : 3,
     "name" : "RTA_IIF"
    },
    {
     "enum_field_value" : 4,
     "name" : "RTA_OIF"
    },
    {
     "enum_field_value" : 5,
     "name" : "RTA_GATEWAY"
    },
    {
     "enum_field_value" : 6,
     "name" : "RTA_PRIORITY"
    },
    {
     "enum_field_value" : 7,
     "name" : "RTA_PREFSRC"
    },
    {
     "enum_field_value" : 8,
     "name" : "RTA_METRICS"
    },
    {
     "enum_field_value" : 9,
     "name" : "RTA_MULTIPATH"
    },
    {
     "enum_field_value" : 10,
     "name" : "RTA_PROTOINFO"
    },
    {
     "enum_field_value" : 11,
     "name" : "RTA_FLOW"
    },
    {
     "enum_field_value" : 12,
     "name" : "RTA_CACHEINFO"
    },
    {
     "enum_field_value" : 13,
     "name" : "RTA_SESSION"
    },
    {
     "enum_field_value" : 14,
     "name" : "RTA_MP_ALGO"
    },
    {
     "enum_field_value" : 15,
     "name" : "RTA_TABLE"
    },
    {
     "enum_field_value" : 16,
     "name" : "RTA_MARK"
    },
    {
     "enum_field_value" : 17,
     "name" : "RTA_MFC_STATS"
    },
    {
     "enum_field_value" : 18,
     "name" : "RTA_VIA"
    },
    {
     "enum_field_value" : 19,
     "name" : "RTA_NEWDST"
    },
    {
     "enum_field_value" : 20,
     "name" : "RTA_PREF"
    },
    {
     "enum_field_value" : 21,
     "name" : "RTA_ENCAP_TYPE"
    },
    {
     "enum_field_value" : 22,
     "name" : "RTA_ENCAP"
    },
    {
     "enum_field_value" : 23,
     "name" : "RTA_EXPIRES"
    },
    {
     "enum_field_value" : 24,
     "name" : "RTA_PAD"
    },
    {
     "enum_field_value" : 25,
     "name" : "RTA_UID"
    },
    {
     "enum_field_value" : 26,
     "name" : "RTA_TTL_PROPAGATE"
    },
    {
     "enum_field_value" : 27,
     "name" : "RTA_IP_PROTO"
    },
    {
     "enum_field_value" : 28,
     "name" : "RTA_SPORT"
    },
    {
     "enum_field_value" : 29,
     "name" : "RTA_DPORT"
    },
    {
     "enum_field_value" : 30,
     "name" : "RTA_NH_ID"
    },
    {
     "enum_field_value" : 31,
     "name" : "__RTA_MAX"
    }
   ],
   "linker_set_key" : "_ZTI13rtattr_type_t",
   "name" : "rtattr_type_t",
   "size" : 4,
   "source_file" : "bionic/libc/kernel/uapi/linux/rtnetlink.h",
   "underlying_type" : "_ZTIj"
  },
  {
   "alignment" : 4,
   "enum_fields" :
   [
    {
     "enum_field_value" : 0,
     "name" : "IFLA_MCTP_UNSPEC"
    },
    {
     "enum_field_value" : 1,
     "name" : "IFLA_MCTP_NET"
    },
    {
     "enum_field_value" : 2,
     "name" : "__IFLA_MCTP_MAX"
    }
   ],
   "linker_set_key" : "_ZTI14$IFLA_MCTP_NET",
   "name" : "(unnamed)",
   "size" : 4,
   "source_file" : "bionic/libc/kernel/uapi/linux/if_link.h",
   "underlying_type" : "_ZTIj"
  },
  {
   "alignment" : 4,
   "enum_fields" :
   [
    {
     "enum_field_value" : 0,
     "name" : "NDA_UNSPEC"
    },
    {
     "enum_field_value" : 1,
     "name" : "NDA_DST"
    },
    {
     "enum_field_value" : 2,
     "name" : "NDA_LLADDR"
    },
    {
     "enum_field_value" : 3,
     "name" : "NDA_CACHEINFO"
    },
    {
     "enum_field_value" : 4,
     "name" : "NDA_PROBES"
    },
    {
     "enum_field_value" : 5,
     "name" : "NDA_VLAN"
    },
    {
     "enum_field_value" : 6,
     "name" : "NDA_PORT"
    },
    {
     "enum_field_value" : 7,
     "name" : "NDA_VNI"
    },
    {
     "enum_field_value" : 8,
     "name" : "NDA_IFINDEX"
    },
    {
     "enum_field_value" : 9,
     "name" : "NDA_MASTER"
    },
    {
     "enum_field_value" : 10,
     "name" : "NDA_LINK_NETNSID"
    },
    {
     "enum_field_value" : 11,
     "name" : "NDA_SRC_VNI"
    },
    {
     "enum_field_value" : 12,
     "name" : "NDA_PROTOCOL"
    },
    {
     "enum_field_value" : 13,
     "name" : "NDA_NH_ID"
    },
    {
     "enum_field_value" : 14,
     "name" : "NDA_FDB_EXT_ATTRS"
    },
    {
     "enum_field_value" : 15,
     "name" : "NDA_FLAGS_EXT"
    },
    {
     "enum_field_value" : 16,
     "name" : "NDA_NDM_STATE_MASK"
    },
    {
     "enum_field_value" : 17,
     "name" : "NDA_NDM_FLAGS_MASK"
    },
    {
     "enum_field_value" : 18,
     "name" : "__NDA_MAX"
    }
   ],
   "linker_set_key" : "_ZTI14$NDA_CACHEINFO",
   "name" : "(unnamed)",
   "size" : 4,
   "source_file" : "bionic/libc/kernel/uapi/linux/neighbour.h",
   "underlying_type" : "_ZTIj"
  },
  {
   "alignment" : 4,
   "enum_fields" :
   [
    {
     "enum_field_value" : 1,
     "name" : "ns_kt_rsa"
    },
    {
     "enum_field_value" : 2,
     "name" : "ns_kt_dh"
    },
    {
     "enum_field_value" : 3,
     "name" : "ns_kt_dsa"
    },
    {
     "enum_field_value" : 254,
     "name" : "ns_kt_private"
    }
   ],
   "linker_set_key" : "_ZTI14__ns_key_types",
   "name" : "__ns_key_types",
   "size" : 4,
   "source_file" : "bionic/libc/include/arpa/nameser.h",
   "underlying_type" : "_ZTIj"
  },
  {
   "alignment" : 4,
   "enum_fields" :
   [
    {
     "enum_field_value" : 0,
     "name" : "GENEVE_DF_UNSET"
    },
    {
     "enum_field_value" : 1,
     "name" : "GENEVE_DF_SET"
    },
    {
     "enum_field_value" : 2,
     "name" : "GENEVE_DF_INHERIT"
    },
    {
     "enum_field_value" : 3,
     "name" : "__GENEVE_DF_END"
    },
    {
     "enum_field_value" : 2,
     "name" : "GENEVE_DF_MAX"
    }
   ],
   "linker_set_key" : "_ZTI14ifla_geneve_df",
   "name" : "ifla_geneve_df",
   "size" : 4,
   "source_file" : "bionic/libc/kernel/uapi/linux/if_link.h",
   "underlying_type" : "_ZTIj"
  },
  {
   "alignment" : 4,
   "enum_fields" :
   [
    {
     "enum_field_value" : 0,
     "name" : "MACSEC_OFFLOAD_OFF"
    },
    {
     "enum_field_value" : 1,
     "name" : "MACSEC_OFFLOAD_PHY"
    },
    {
     "enum_field_value" : 2,
     "name" : "MACSEC_OFFLOAD_MAC"
    },
    {
     "enum_field_value" : 3,
     "name" : "__MACSEC_OFFLOAD_END"
    },
    {
     "enum_field_value" : 2,
     "name" : "MACSEC_OFFLOAD_MAX"
    }
   ],
   "linker_set_key" : "_ZTI14macsec_offload",
   "name" : "macsec_offload",
   "size" : 4,
   "source_file" : "bionic/libc/kernel/uapi/linux/if_link.h",
   "underlying_type" : "_ZTIj"
  },
  {
   "alignment" : 4,
   "enum_fields" :
   [
    {
     "enum_field_value" : 0,
     "name" : "NL_MMAP_STATUS_UNUSED"
    },
    {
     "enum_field_value" : 1,
     "name" : "NL_MMAP_STATUS_RESERVED"
    },
    {
     "enum_field_value" : 2,
     "name" : "NL_MMAP_STATUS_VALID"
    },
    {
     "enum_field_value" : 3,
     "name" : "NL_MMAP_STATUS_COPY"
    },
    {
     "enum_field_value" : 4,
     "name" : "NL_MMAP_STATUS_SKIP"
    }
   ],
   "linker_set_key" : "_ZTI14nl_mmap_status",
   "name" : "nl_mmap_status",
   "size" : 4,
   "source_file" : "bionic/libc/kernel/uapi/linux/netlink.h",
   "underlying_type" : "_ZTIj"
  },
  {
   "alignment" : 4,
   "enum_fields" :
   [
    {
     "enum_field_value" : 0,
     "name" : "NLMSGERR_ATTR_UNUSED"
    },
    {
     "enum_field_value" : 1,
     "name" : "NLMSGERR_ATTR_MSG"
    },
    {
     "enum_field_value" : 2,
     "name" : "NLMSGERR_ATTR_OFFS"
    },
    {
     "enum_field_value" : 3,
     "name" : "NLMSGERR_ATTR_COOKIE"
    },
    {
     "enum_field_value" : 4,
     "name" : "NLMSGERR_ATTR_POLICY"
    },
    {
     "enum_field_value" : 5,
     "name" : "NLMSGERR_ATTR_MISS_TYPE"
    },
    {
     "enum_field_value" : 6,
     "name" : "NLMSGERR_ATTR_MISS_NEST"
    },
    {
     "enum_field_value" : 7,
     "name" : "__NLMSGERR_ATTR_MAX"
    },
    {
     "enum_field_value" : 6,
     "name" : "NLMSGERR_ATTR_MAX"
    }
   ],
   "linker_set_key" : "_ZTI14nlmsgerr_attrs",
   "name" : "nlmsgerr_attrs",
   "size" : 4,
   "source_file" : "bionic/libc/kernel/uapi/linux/netlink.h",
   "underlying_type" : "_ZTIj"
  },
  {
   "alignment" : 4,
   "enum_fields" :
   [
    {
     "enum_field_value" : 1,
     "name" : "FDB_NOTIFY_BIT"
    },
    {
     "enum_field_value" : 2,
     "name" : "FDB_NOTIFY_INACTIVE_BIT"
    }
   ],
   "linker_set_key" : "_ZTI15$FDB_NOTIFY_BIT",
   "name" : "(unnamed)",
   "size" : 4,
   "source_file" : "bionic/libc/kernel/uapi/linux/neighbour.h",
   "underlying_type" : "_ZTIj"
  },
  {
   "alignment" : 4,
   "enum_fields" :
   [
    {
     "enum_field_value" : 0,
     "name" : "IFLA_INET_UNSPEC"
    },
    {
     "enum_field_value" : 1,
     "name" : "IFLA_INET_CONF"
    },
    {
     "enum_field_value" : 2,
     "name" : "__IFLA_INET_MAX"
    }
   ],
   "linker_set_key" : "_ZTI15$IFLA_INET_CONF",
   "name" : "(unnamed)",
   "size" : 4,
   "source_file" : "bionic/libc/kernel/uapi/linux/if_link.h",
   "underlying_type" : "_ZTIj"
  },
  {
   "alignment" : 4,
   "enum_fields" :
   [
    {
     "enum_field_value" : 0,
     "name" : "IFLA_INFO_UNSPEC"
    },
    {
     "enum_field_value" : 1,
     "name" : "IFLA_INFO_KIND"
    },
    {
     "enum_field_value" : 2,
     "name" : "IFLA_INFO_DATA"
    },
    {
     "enum_field_value" : 3,
     "name" : "IFLA_INFO_XSTATS"
    },
    {
     "enum_field_value" : 4,
     "name" : "IFLA_INFO_SLAVE_KIND"
    },
    {
     "enum_field_value" : 5,
     "name" : "IFLA_INFO_SLAVE_DATA"
    },
    {
     "enum_field_value" : 6,
     "name" : "__IFLA_INFO_MAX"
    }
   ],
   "linker_set_key" : "_ZTI15$IFLA_INFO_DATA",
   "name" : "(unnamed)",
   "size" : 4,
   "source_file" : "bionic/libc/kernel/uapi/linux/if_link.h",
   "underlying_type" : "_ZTIj"
  },
  {
   "alignment" : 4,
   "enum_fields" :
   [
    {
     "enum_field_value" : 0,
     "name" : "IFLA_TUN_UNSPEC"
    },
    {
     "enum_field_value" : 1,
     "name" : "IFLA_TUN_OWNER"
    },
    {
     "enum_field_value" : 2,
     "name" : "IFLA_TUN_GROUP"
    },
    {
     "enum_field_value" : 3,
     "name" : "IFLA_TUN_TYPE"
    },
    {
     "enum_field_value" : 4,
     "name" : "IFLA_TUN_PI"
    },
    {
     "enum_field_value" : 5,
     "name" : "IFLA_TUN_VNET_HDR"
    },
    {
     "enum_field_value" : 6,
     "name" : "IFLA_TUN_PERSIST"
    },
    {
     "enum_field_value" : 7,
     "name" : "IFLA_TUN_MULTI_QUEUE"
    },
    {
     "enum_field_value" : 8,
     "name" : "IFLA_TUN_NUM_QUEUES"
    },
    {
     "enum_field_value" : 9,
     "name" : "IFLA_TUN_NUM_DISABLED_QUEUES"
    },
    {
     "enum_field_value" : 10,
     "name" : "__IFLA_TUN_MAX"
    }
   ],
   "linker_set_key" : "_ZTI15$IFLA_TUN_GROUP",
   "name" : "(unnamed)",
   "size" : 4,
   "source_file" : "bionic/libc/kernel/uapi/linux/if_link.h",
   "underlying_type" : "_ZTIj"
  },
  {
   "alignment" : 4,
   "enum_fields" :
   [
    {
     "enum_field_value" : 0,
     "name" : "IFLA_VRF_UNSPEC"
    },
    {
     "enum_field_value" : 1,
     "name" : "IFLA_VRF_TABLE"
    },
    {
     "enum_field_value" : 2,
     "name" : "__IFLA_VRF_MAX"
    }
   ],
   "linker_set_key" : "_ZTI15$IFLA_VRF_TABLE",
   "name" : "(unnamed)",
   "size" : 4,
   "source_file" : "bionic/libc/kernel/uapi/linux/if_link.h",
   "underlying_type" : "_ZTIj"
  },
  {
   "alignment" : 4,
   "enum_fields" :
   [
    {
     "enum_field_value" : 0,
     "name" : "PREFIX_UNSPEC"
    },
    {
     "enum_field_value" : 1,
     "name" : "PREFIX_ADDRESS"
    },
    {
     "enum_field_value" : 2,
     "name" : "PREFIX_CACHEINFO"
    },
    {
     "enum_field_value" : 3,
     "name" : "__PREFIX_MAX"
    }
   ],
   "linker_set_key" : "_ZTI15$PREFIX_ADDRESS",
   "name" : "(unnamed)",
   "size" : 4,
   "source_file" : "bionic/libc/kernel/uapi/linux/rtnetlink.h",
   "underlying_type" : "_ZTIj"
  },
  {
   "alignment" : 4,
   "enum_fields" :
   [
    {
     "enum_field_value" : 0,
     "name" : "TCA_ROOT_UNSPEC"
    },
    {
     "enum_field_value" : 1,
     "name" : "TCA_ROOT_TAB"
    },
    {
     "enum_field_value" : 2,
     "name" : "TCA_ROOT_FLAGS"
    },
    {
     "enum_field_value" : 3,
     "name" : "TCA_ROOT_COUNT"
    },
    {
     "enum_field_value" : 4,
     "name" : "TCA_ROOT_TIME_DELTA"
    },
    {
     "enum_field_value" : 5,
     "name" : "TCA_ROOT_EXT_WARN_MSG"
    },
    {
     "enum_field_value" : 6,
     "name" : "__TCA_ROOT_MAX"
    }
   ],
   "linker_set_key" : "_ZTI15$TCA_ROOT_COUNT",
   "name" : "(unnamed)",
   "size" : 4,
   "source_file" : "bionic/libc/kernel/uapi/linux/rtnetlink.h",
   "underlying_type" : "_ZTIj"
  },
  {
   "alignment" : 4,
   "enum_fields" :
   [
    {
     "enum_field_value" : 1,
     "name" : "cert_t_pkix"
    },
    {
     "enum_field_value" : 2,
     "name" : "cert_t_spki"
    },
    {
     "enum_field_value" : 3,
     "name" : "cert_t_pgp"
    },
    {
     "enum_field_value" : 253,
     "name" : "cert_t_url"
    },
    {
     "enum_field_value" : 254,
     "name" : "cert_t_oid"
    }
   ],
   "linker_set_key" : "_ZTI15__ns_cert_types",
   "name" : "__ns_cert_types",
   "size" : 4,
   "source_file" : "bionic/libc/include/arpa/nameser.h",
   "underlying_type" : "_ZTIj"
  },
  {
   "alignment" : 4,
   "enum_fields" :
   [
    {
     "enum_field_value" : 0,
     "name" : "IFLA_IPOIB_UNSPEC"
    },
    {
     "enum_field_value" : 1,
     "name" : "IFLA_IPOIB_PKEY"
    },
    {
     "enum_field_value" : 2,
     "name" : "IFLA_IPOIB_MODE"
    },
    {
     "enum_field_value" : 3,
     "name" : "IFLA_IPOIB_UMCAST"
    },
    {
     "enum_field_value" : 4,
     "name" : "__IFLA_IPOIB_MAX"
    }
   ],
   "linker_set_key" : "_ZTI16$IFLA_IPOIB_MODE",
   "name" : "(unnamed)",
   "size" : 4,
   "source_file" : "bionic/libc/kernel/uapi/linux/if_link.h",
   "underlying_type" : "_ZTIj"
  },
  {
   "alignment" : 4,
   "enum_fields" :
   [
    {
     "enum_field_value" : 0,
     "name" : "IFLA_PPP_UNSPEC"
    },
    {
     "enum_field_value" : 1,
     "name" : "IFLA_PPP_DEV_FD"
    },
    {
     "enum_field_value" : 2,
     "name" : "__IFLA_PPP_MAX"
    }
   ],
   "linker_set_key" : "_ZTI16$IFLA_PPP_DEV_FD",
   "name" : "(unnamed)",
   "size" : 4,
   "source_file" : "bionic/libc/kernel/uapi/linux/if_link.h",
   "underlying_type" : "_ZTIj"
  },
  {
   "alignment" : 4,
   "enum_fields" :
   [
    {
     "enum_field_value" : 0,
     "name" : "IF_OPER_UNKNOWN"
    },
    {
     "enum_field_value" : 1,
     "name" : "IF_OPER_NOTPRESENT"
    },
    {
     "enum_field_value" : 2,
     "name" : "IF_OPER_DOWN"
    },
    {
     "enum_field_value" : 3,
     "name" : "IF_OPER_LOWERLAYERDOWN"
    },
    {
     "enum_field_value" : 4,
     "name" : "IF_OPER_TESTING"
    },
    {
     "enum_field_value" : 5,
     "name" : "IF_OPER_DORMANT"
    },
    {
     "enum_field_value" : 6,
     "name" : "IF_OPER_UP"
    }
   ],
   "linker_set_key" : "_ZTI16$IF_OPER_DORMANT",
   "name" : "(unnamed)",
   "size" : 4,
   "source_file" : "bionic/libc/kernel/uapi/linux/if.h",
   "underlying_type" : "_ZTIj"
  },
  {
   "alignment" : 4,
   "enum_fields" :
   [
    {
     "enum_field_value" : 0,
     "name" : "M_HEAP_TAGGING_LEVEL_NONE"
    },
    {
     "enum_field_value" : 1,
     "name" : "M_HEAP_TAGGING_LEVEL_TBI"
    },
    {
     "enum_field_value" : 2,
     "name" : "M_HEAP_TAGGING_LEVEL_ASYNC"
    },
    {
     "enum_field_value" : 3,
     "name" : "M_HEAP_TAGGING_LEVEL_SYNC"
    }
   ],
   "linker_set_key" : "_ZTI16HeapTaggingLevel",
   "name" : "HeapTaggingLevel",
   "size" : 4,
   "source_file" : "bionic/libc/include/malloc.h",
   "underlying_type" : "_ZTIj"
  },
  {
   "alignment" : 4,
   "enum_fields" :
   [
    {
     "enum_field_value" : 0,
     "name" : "FSCONFIG_SET_FLAG"
    },
    {
     "enum_field_value" : 1,
     "name" : "FSCONFIG_SET_STRING"
    },
    {
     "enum_field_value" : 2,
     "name" : "FSCONFIG_SET_BINARY"
    },
    {
     "enum_field_value" : 3,
     "name" : "FSCONFIG_SET_PATH"
    },
    {
     "enum_field_value" : 4,
     "name" : "FSCONFIG_SET_PATH_EMPTY"
    },
    {
     "enum_field_value" : 5,
     "name" : "FSCONFIG_SET_FD"
    },
    {
     "enum_field_value" : 6,
     "name" : "FSCONFIG_CMD_CREATE"
    },
    {
     "enum_field_value" : 7,
     "name" : "FSCONFIG_CMD_RECONFIGURE"
    },
    {
     "enum_field_value" : 8,
     "name" : "FSCONFIG_CMD_CREATE_EXCL"
    }
   ],
   "linker_set_key" : "_ZTI16fsconfig_command",
   "name" : "fsconfig_command",
   "size" : 4,
   "source_file" : "bionic/libc/kernel/uapi/linux/mount.h",
   "underlying_type" : "_ZTIj"
  },
  {
   "alignment" : 4,
   "enum_fields" :
   [
    {
     "enum_field_value" : 1,
     "name" : "IFF_UP"
    },
    {
     "enum_field_value" : 2,
     "name" : "IFF_BROADCAST"
    },
    {
     "enum_field_value" : 4,
     "name" : "IFF_DEBUG"
    },
    {
     "enum_field_value" : 8,
     "name" : "IFF_LOOPBACK"
    },
    {
     "enum_field_value" : 16,
     "name" : "IFF_POINTOPOINT"
    },
    {
     "enum_field_value" : 32,
     "name" : "IFF_NOTRAILERS"
    },
    {
     "enum_field_value" : 64,
     "name" : "IFF_RUNNING"
    },
    {
     "enum_field_value" : 128,
     "name" : "IFF_NOARP"
    },
    {
     "enum_field_value" : 256,
     "name" : "IFF_PROMISC"
    },
    {
     "enum_field_value" : 512,
     "name" : "IFF_ALLMULTI"
    },
    {
     "enum_field_value" : 1024,
     "name" : "IFF_MASTER"
    },
    {
     "enum_field_value" : 2048,
     "name" : "IFF_SLAVE"
    },
    {
     "enum_field_value" : 4096,
     "name" : "IFF_MULTICAST"
    },
    {
     "enum_field_value" : 8192,
     "name" : "IFF_PORTSEL"
    },
    {
     "enum_field_value" : 16384,
     "name" : "IFF_AUTOMEDIA"
    },
    {
     "enum_field_value" : 32768,
     "name" : "IFF_DYNAMIC"
    },
    {
     "enum_field_value" : 65536,
     "name" : "IFF_LOWER_UP"
    },
    {
     "enum_field_value" : 131072,
     "name" : "IFF_DORMANT"
    },
    {
     "enum_field_value" : 262144,
     "name" : "IFF_ECHO"
    }
   ],
   "linker_set_key" : "_ZTI16net_device_flags",
   "name" : "net_device_flags",
   "size" : 4,
   "source_file" : "bionic/libc/kernel/uapi/linux/if.h",
   "underlying_type" : "_ZTIj"
  },
  {
   "alignment" : 4,
   "enum_fields" :
   [
    {
     "enum_field_value" : 0,
     "name" : "RTNLGRP_NONE"
    },
    {
     "enum_field_value" : 1,
     "name" : "RTNLGRP_LINK"
    },
    {
     "enum_field_value" : 2,
     "name" : "RTNLGRP_NOTIFY"
    },
    {
     "enum_field_value" : 3,
     "name" : "RTNLGRP_NEIGH"
    },
    {
     "enum_field_value" : 4,
     "name" : "RTNLGRP_TC"
    },
    {
     "enum_field_value" : 5,
     "name" : "RTNLGRP_IPV4_IFADDR"
    },
    {
     "enum_field_value" : 6,
     "name" : "RTNLGRP_IPV4_MROUTE"
    },
    {
     "enum_field_value" : 7,
     "name" : "RTNLGRP_IPV4_ROUTE"
    },
    {
     "enum_field_value" : 8,
     "name" : "RTNLGRP_IPV4_RULE"
    },
    {
     "enum_field_value" : 9,
     "name" : "RTNLGRP_IPV6_IFADDR"
    },
    {
     "enum_field_value" : 10,
     "name" : "RTNLGRP_IPV6_MROUTE"
    },
    {
     "enum_field_value" : 11,
     "name" : "RTNLGRP_IPV6_ROUTE"
    },
    {
     "enum_field_value" : 12,
     "name" : "RTNLGRP_IPV6_IFINFO"
    },
    {
     "enum_field_value" : 13,
     "name" : "RTNLGRP_DECnet_IFADDR"
    },
    {
     "enum_field_value" : 14,
     "name" : "RTNLGRP_NOP2"
    },
    {
     "enum_field_value" : 15,
     "name" : "RTNLGRP_DECnet_ROUTE"
    },
    {
     "enum_field_value" : 16,
     "name" : "RTNLGRP_DECnet_RULE"
    },
    {
     "enum_field_value" : 17,
     "name" : "RTNLGRP_NOP4"
    },
    {
     "enum_field_value" : 18,
     "name" : "RTNLGRP_IPV6_PREFIX"
    },
    {
     "enum_field_value" : 19,
     "name" : "RTNLGRP_IPV6_RULE"
    },
    {
     "enum_field_value" : 20,
     "name" : "RTNLGRP_ND_USEROPT"
    },
    {
     "enum_field_value" : 21,
     "name" : "RTNLGRP_PHONET_IFADDR"
    },
    {
     "enum_field_value" : 22,
     "name" : "RTNLGRP_PHONET_ROUTE"
    },
    {
     "enum_field_value" : 23,
     "name" : "RTNLGRP_DCB"
    },
    {
     "enum_field_value" : 24,
     "name" : "RTNLGRP_IPV4_NETCONF"
    },
    {
     "enum_field_value" : 25,
     "name" : "RTNLGRP_IPV6_NETCONF"
    },
    {
     "enum_field_value" : 26,
     "name" : "RTNLGRP_MDB"
    },
    {
     "enum_field_value" : 27,
     "name" : "RTNLGRP_MPLS_ROUTE"
    },
    {
     "enum_field_value" : 28,
     "name" : "RTNLGRP_NSID"
    },
    {
     "enum_field_value" : 29,
     "name" : "RTNLGRP_MPLS_NETCONF"
    },
    {
     "enum_field_value" : 30,
     "name" : "RTNLGRP_IPV4_MROUTE_R"
    },
    {
     "enum_field_value" : 31,
     "name" : "RTNLGRP_IPV6_MROUTE_R"
    },
    {
     "enum_field_value" : 32,
     "name" : "RTNLGRP_NEXTHOP"
    },
    {
     "enum_field_value" : 33,
     "name" : "RTNLGRP_BRVLAN"
    },
    {
     "enum_field_value" : 34,
     "name" : "RTNLGRP_MCTP_IFADDR"
    },
    {
     "enum_field_value" : 35,
     "name" : "RTNLGRP_TUNNEL"
    },
    {
     "enum_field_value" : 36,
     "name" : "RTNLGRP_STATS"
    },
    {
     "enum_field_value" : 37,
     "name" : "__RTNLGRP_MAX"
    }
   ],
   "linker_set_key" : "_ZTI16rtnetlink_groups",
   "name" : "rtnetlink_groups",
   "size" : 4,
   "source_file" : "bionic/libc/kernel/uapi/linux/rtnetlink.h",
   "underlying_type" : "_ZTIj"
  },
  {
   "alignment" : 4,
   "enum_fields" :
   [
    {
     "enum_field_value" : 0,
     "name" : "TPACKET_V1"
    },
    {
     "enum_field_value" : 1,
     "name" : "TPACKET_V2"
    },
    {
     "enum_field_value" : 2,
     "name" : "TPACKET_V3"
    }
   ],
   "linker_set_key" : "_ZTI16tpacket_versions",
   "name" : "tpacket_versions",
   "size" : 4,
   "source_file" : "bionic/libc/kernel/uapi/linux/if_packet.h",
   "underlying_type" : "_ZTIj"
  },
  {
   "alignment" : 4,
   "enum_fields" :
   [
    {
     "enum_field_value" : 0,
     "name" : "HSR_PROTOCOL_HSR"
    },
    {
     "enum_field_value" : 1,
     "name" : "HSR_PROTOCOL_PRP"
    },
    {
     "enum_field_value" : 2,
     "name" : "HSR_PROTOCOL_MAX"
    }
   ],
   "linker_set_key" : "_ZTI17$HSR_PROTOCOL_HSR",
   "name" : "(unnamed)",
   "size" : 4,
   "source_file" : "bionic/libc/kernel/uapi/linux/if_link.h",
   "underlying_type" : "_ZTIj"
  },
  {
   "alignment" : 4,
   "enum_fields" :
   [
    {
     "enum_field_value" : 0,
     "name" : "IFLA_DSA_UNSPEC"
    },
    {
     "enum_field_value" : 1,
     "name" : "IFLA_DSA_CONDUIT"
    },
    {
     "enum_field_value" : 1,
     "name" : "IFLA_DSA_MASTER"
    },
    {
     "enum_field_value" : 2,
     "name" : "__IFLA_DSA_MAX"
    }
   ],
   "linker_set_key" : "_ZTI17$IFLA_DSA_CONDUIT",
   "name" : "(unnamed)",
   "size" : 4,
   "source_file" : "bionic/libc/kernel/uapi/linux/if_link.h",
   "underlying_type" : "_ZTIj"
  },
  {
   "alignment" : 4,
   "enum_fields" :
   [
    {
     "enum_field_value" : 0,
     "name" : "IFLA_NETKIT_UNSPEC"
    },
    {
     "enum_field_value" : 1,
     "name" : "IFLA_NETKIT_PEER_INFO"
    },
    {
     "enum_field_value" : 2,
     "name" : "IFLA_NETKIT_PRIMARY"
    },
    {
     "enum_field_value" : 3,
     "name" : "IFLA_NETKIT_POLICY"
    },
    {
     "enum_field_value" : 4,
     "name" : "IFLA_NETKIT_PEER_POLICY"
    },
    {
     "enum_field_value" : 5,
     "name" : "IFLA_NETKIT_MODE"
    },
    {
     "enum_field_value" : 6,
     "name" : "__IFLA_NETKIT_MAX"
    }
   ],
   "linker_set_key" : "_ZTI17$IFLA_NETKIT_MODE",
   "name" : "(unnamed)",
   "size" : 4,
   "source_file" : "bionic/libc/kernel/uapi/linux/if_link.h",
   "underlying_type" : "_ZTIj"
  },
  {
   "alignment" : 4,
   "enum_fields" :
   [
    {
     "enum_field_value" : 0,
     "name" : "IFLA_RMNET_UNSPEC"
    },
    {
     "enum_field_value" : 1,
     "name" : "IFLA_RMNET_MUX_ID"
    },
    {
     "enum_field_value" : 2,
     "name" : "IFLA_RMNET_FLAGS"
    },
    {
     "enum_field_value" : 3,
     "name" : "__IFLA_RMNET_MAX"
    }
   ],
   "linker_set_key" : "_ZTI17$IFLA_RMNET_FLAGS",
   "name" : "(unnamed)",
   "size" : 4,
   "source_file" : "bionic/libc/kernel/uapi/linux/if_link.h",
   "underlying_type" : "_ZTIj"
  },
  {
   "alignment" : 4,
   "enum_fields" :
   [
    {
     "enum_field_value" : 0,
     "name" : "XDP_ATTACHED_NONE"
    },
    {
     "enum_field_value" : 1,
     "name" : "XDP_ATTACHED_DRV"
    },
    {
     "enum_field_value" : 2,
     "name" : "XDP_ATTACHED_SKB"
    },
    {
     "enum_field_value" : 3,
     "name" : "XDP_ATTACHED_HW"
    },
    {
     "enum_field_value" : 4,
     "name" : "XDP_ATTACHED_MULTI"
    }
   ],
   "linker_set_key" : "_ZTI17$XDP_ATTACHED_DRV",
   "name" : "(unnamed)",
   "size" : 4,
   "source_file" : "bionic/libc/kernel/uapi/linux/if_link.h",
   "underlying_type" : "_ZTIj"
  },
  {
   "alignment" : 4,
   "enum_fields" :
   [
    {
     "enum_field_value" : 0,
     "name" : "IN6_ADDR_GEN_MODE_EUI64"
    },
    {
     "enum_field_value" : 1,
     "name" : "IN6_ADDR_GEN_MODE_NONE"
    },
    {
     "enum_field_value" : 2,
     "name" : "IN6_ADDR_GEN_MODE_STABLE_PRIVACY"
    },
    {
     "enum_field_value" : 3,
     "name" : "IN6_ADDR_GEN_MODE_RANDOM"
    }
   ],
   "linker_set_key" : "_ZTI17in6_addr_gen_mode",
   "name" : "in6_addr_gen_mode",
   "size" : 4,
   "source_file" : "bionic/libc/kernel/uapi/linux/if_link.h",
   "underlying_type" : "_ZTIj"
  },
  {
   "alignment" : 4,
   "enum_fields" :
   [
    {
     "enum_field_value" : 0,
     "name" : "IFLA_IPVLAN_UNSPEC"
    },
    {
     "enum_field_value" : 1,
     "name" : "IFLA_IPVLAN_MODE"
    },
    {
     "enum_field_value" : 2,
     "name" : "IFLA_IPVLAN_FLAGS"
    },
    {
     "enum_field_value" : 3,
     "name" : "__IFLA_IPVLAN_MAX"
    }
   ],
   "linker_set_key" : "_ZTI18$IFLA_IPVLAN_FLAGS",
   "name" : "(unnamed)",
   "size" : 4,
   "source_file" : "bionic/libc/kernel/uapi/linux/if_link.h",
   "underlying_type" : "_ZTIj"
  },
  {
   "alignment" : 4,
   "enum_fields" :
   [
    {
     "enum_field_value" : 0,
     "name" : "IFLA_VF_UNSPEC"
    },
    {
     "enum_field_value" : 1,
     "name" : "IFLA_VF_MAC"
    },
    {
     "enum_field_value" : 2,
     "name" : "IFLA_VF_VLAN"
    },
    {
     "enum_field_value" : 3,
     "name" : "IFLA_VF_TX_RATE"
    },
    {
     "enum_field_value" : 4,
     "name" : "IFLA_VF_SPOOFCHK"
    },
    {
     "enum_field_value" : 5,
     "name" : "IFLA_VF_LINK_STATE"
    },
    {
     "enum_field_value" : 6,
     "name" : "IFLA_VF_RATE"
    },
    {
     "enum_field_value" : 7,
     "name" : "IFLA_VF_RSS_QUERY_EN"
    },
    {
     "enum_field_value" : 8,
     "name" : "IFLA_VF_STATS"
    },
    {
     "enum_field_value" : 9,
     "name" : "IFLA_VF_TRUST"
    },
    {
     "enum_field_value" : 10,
     "name" : "IFLA_VF_IB_NODE_GUID"
    },
    {
     "enum_field_value" : 11,
     "name" : "IFLA_VF_IB_PORT_GUID"
    },
    {
     "enum_field_value" : 12,
     "name" : "IFLA_VF_VLAN_LIST"
    },
    {
     "enum_field_value" : 13,
     "name" : "IFLA_VF_BROADCAST"
    },
    {
     "enum_field_value" : 14,
     "name" : "__IFLA_VF_MAX"
    }
   ],
   "linker_set_key" : "_ZTI18$IFLA_VF_BROADCAST",
   "name" : "(unnamed)",
   "size" : 4,
   "source_file" : "bionic/libc/kernel/uapi/linux/if_link.h",
   "underlying_type" : "_ZTIj"
  },
  {
   "alignment" : 4,
   "enum_fields" :
   [
    {
     "enum_field_value" : 0,
     "name" : "IFLA_VF_VLAN_INFO_UNSPEC"
    },
    {
     "enum_field_value" : 1,
     "name" : "IFLA_VF_VLAN_INFO"
    },
    {
     "enum_field_value" : 2,
     "name" : "__IFLA_VF_VLAN_INFO_MAX"
    }
   ],
   "linker_set_key" : "_ZTI18$IFLA_VF_VLAN_INFO",
   "name" : "(unnamed)",
   "size" : 4,
   "source_file" : "bionic/libc/kernel/uapi/linux/if_link.h",
   "underlying_type" : "_ZTIj"
  },
  {
   "alignment" : 4,
   "enum_fields" :
   [
    {
     "enum_field_value" : 0,
     "name" : "IFLA_VXLAN_UNSPEC"
    },
    {
     "enum_field_value" : 1,
     "name" : "IFLA_VXLAN_ID"
    },
    {
     "enum_field_value" : 2,
     "name" : "IFLA_VXLAN_GROUP"
    },
    {
     "enum_field_value" : 3,
     "name" : "IFLA_VXLAN_LINK"
    },
    {
     "enum_field_value" : 4,
     "name" : "IFLA_VXLAN_LOCAL"
    },
    {
     "enum_field_value" : 5,
     "name" : "IFLA_VXLAN_TTL"
    },
    {
     "enum_field_value" : 6,
     "name" : "IFLA_VXLAN_TOS"
    },
    {
     "enum_field_value" : 7,
     "name" : "IFLA_VXLAN_LEARNING"
    },
    {
     "enum_field_value" : 8,
     "name" : "IFLA_VXLAN_AGEING"
    },
    {
     "enum_field_value" : 9,
     "name" : "IFLA_VXLAN_LIMIT"
    },
    {
     "enum_field_value" : 10,
     "name" : "IFLA_VXLAN_PORT_RANGE"
    },
    {
     "enum_field_value" : 11,
     "name" : "IFLA_VXLAN_PROXY"
    },
    {
     "enum_field_value" : 12,
     "name" : "IFLA_VXLAN_RSC"
    },
    {
     "enum_field_value" : 13,
     "name" : "IFLA_VXLAN_L2MISS"
    },
    {
     "enum_field_value" : 14,
     "name" : "IFLA_VXLAN_L3MISS"
    },
    {
     "enum_field_value" : 15,
     "name" : "IFLA_VXLAN_PORT"
    },
    {
     "enum_field_value" : 16,
     "name" : "IFLA_VXLAN_GROUP6"
    },
    {
     "enum_field_value" : 17,
     "name" : "IFLA_VXLAN_LOCAL6"
    },
    {
     "enum_field_value" : 18,
     "name" : "IFLA_VXLAN_UDP_CSUM"
    },
    {
     "enum_field_value" : 19,
     "name" : "IFLA_VXLAN_UDP_ZERO_CSUM6_TX"
    },
    {
     "enum_field_value" : 20,
     "name" : "IFLA_VXLAN_UDP_ZERO_CSUM6_RX"
    },
    {
     "enum_field_value" : 21,
     "name" : "IFLA_VXLAN_REMCSUM_TX"
    },
    {
     "enum_field_value" : 22,
     "name" : "IFLA_VXLAN_REMCSUM_RX"
    },
    {
     "enum_field_value" : 23,
     "name" : "IFLA_VXLAN_GBP"
    },
    {
     "enum_field_value" : 24,
     "name" : "IFLA_VXLAN_REMCSUM_NOPARTIAL"
    },
    {
     "enum_field_value" : 25,
     "name" : "IFLA_VXLAN_COLLECT_METADATA"
    },
    {
     "enum_field_value" : 26,
     "name" : "IFLA_VXLAN_LABEL"
    },
    {
     "enum_field_value" : 27,
     "name" : "IFLA_VXLAN_GPE"
    },
    {
     "enum_field_value" : 28,
     "name" : "IFLA_VXLAN_TTL_INHERIT"
    },
    {
     "enum_field_value" : 29,
     "name" : "IFLA_VXLAN_DF"
    },
    {
     "enum_field_value" : 30,
     "name" : "IFLA_VXLAN_VNIFILTER"
    },
    {
     "enum_field_value" : 31,
     "name" : "IFLA_VXLAN_LOCALBYPASS"
    },
    {
     "enum_field_value" : 32,
     "name" : "IFLA_VXLAN_LABEL_POLICY"
    },
    {
     "enum_field_value" : 33,
     "name" : "__IFLA_VXLAN_MAX"
    }
   ],
   "linker_set_key" : "_ZTI18$IFLA_VXLAN_AGEING",
   "name" : "(unnamed)",
   "size" : 4,
   "source_file" : "bionic/libc/kernel/uapi/linux/if_link.h",
   "underlying_type" : "_ZTIj"
  },
  {
   "alignment" : 4,
   "enum_fields" :
   [
    {
     "enum_field_value" : 0,
     "name" : "IFLA_XDP_UNSPEC"
    },
    {
     "enum_field_value" : 1,
     "name" : "IFLA_XDP_FD"
    },
    {
     "enum_field_value" : 2,
     "name" : "IFLA_XDP_ATTACHED"
    },
    {
     "enum_field_value" : 3,
     "name" : "IFLA_XDP_FLAGS"
    },
    {
     "enum_field_value" : 4,
     "name" : "IFLA_XDP_PROG_ID"
    },
    {
     "enum_field_value" : 5,
     "name" : "IFLA_XDP_DRV_PROG_ID"
    },
    {
     "enum_field_value" : 6,
     "name" : "IFLA_XDP_SKB_PROG_ID"
    },
    {
     "enum_field_value" : 7,
     "name" : "IFLA_XDP_HW_PROG_ID"
    },
    {
     "enum_field_value" : 8,
     "name" : "IFLA_XDP_EXPECTED_FD"
    },
    {
     "enum_field_value" : 9,
     "name" : "__IFLA_XDP_MAX"
    }
   ],
   "linker_set_key" : "_ZTI18$IFLA_XDP_ATTACHED",
   "name" : "(unnamed)",
   "size" : 4,
   "source_file" : "bionic/libc/kernel/uapi/linux/if_link.h",
   "underlying_type" : "_ZTIj"
  },
  {
   "alignment" : 4,
   "enum_fields" :
   [
    {
     "enum_field_value" : 0,
     "name" : "IF_PORT_UNKNOWN"
    },
    {
     "enum_field_value" : 1,
     "name" : "IF_PORT_10BASE2"
    },
    {
     "enum_field_value" : 2,
     "name" : "IF_PORT_10BASET"
    },
    {
     "enum_field_value" : 3,
     "name" : "IF_PORT_AUI"
    },
    {
     "enum_field_value" : 4,
     "name" : "IF_PORT_100BASET"
    },
    {
     "enum_field_value" : 5,
     "name" : "IF_PORT_100BASETX"
    },
    {
     "enum_field_value" : 6,
     "name" : "IF_PORT_100BASEFX"
    }
   ],
   "linker_set_key" : "_ZTI18$IF_PORT_100BASEFX",
   "name" : "(unnamed)",
   "size" : 4,
   "source_file" : "bionic/libc/kernel/uapi/linux/netdevice.h",
   "underlying_type" : "_ZTIj"
  },
  {
   "alignment" : 4,
   "enum_fields" :
   [
    {
     "enum_field_value" : 0,
     "name" : "NDUSEROPT_UNSPEC"
    },
    {
     "enum_field_value" : 1,
     "name" : "NDUSEROPT_SRCADDR"
    },
    {
     "enum_field_value" : 2,
     "name" : "__NDUSEROPT_MAX"
    }
   ],
   "linker_set_key" : "_ZTI18$NDUSEROPT_SRCADDR",
   "name" : "(unnamed)",
   "size" : 4,
   "source_file" : "bionic/libc/kernel/uapi/linux/rtnetlink.h",
   "underlying_type" : "_ZTIj"
  },
  {
   "alignment" : 4,
   "enum_fields" :
   [
    {
     "enum_field_value" : 0,
     "name" : "NETLINK_UNCONNECTED"
    },
    {
     "enum_field_value" : 1,
     "name" : "NETLINK_CONNECTED"
    }
   ],
   "linker_set_key" : "_ZTI18$NETLINK_CONNECTED",
   "name" : "(unnamed)",
   "size" : 4,
   "source_file" : "bionic/libc/kernel/uapi/linux/netlink.h",
   "underlying_type" : "_ZTIj"
  },
  {
   "alignment" : 4,
   "enum_fields" :
   [
    {
     "enum_field_value" : 131072,
     "name" : "UNAME26"
    },
    {
     "enum_field_value" : 262144,
     "name" : "ADDR_NO_RANDOMIZE"
    },
    {
     "enum_field_value" : 524288,
     "name" : "FDPIC_FUNCPTRS"
    },
    {
     "enum_field_value" : 1048576,
     "name" : "MMAP_PAGE_ZERO"
    },
    {
     "enum_field_value" : 2097152,
     "name" : "ADDR_COMPAT_LAYOUT"
    },
    {
     "enum_field_value" : 4194304,
     "name" : "READ_IMPLIES_EXEC"
    },
    {
     "enum_field_value" : 8388608,
     "name" : "ADDR_LIMIT_32BIT"
    },
    {
     "enum_field_value" : 16777216,
     "name" : "SHORT_INODE"
    },
    {
     "enum_field_value" : 33554432,
     "name" : "WHOLE_SECONDS"
    },
    {
     "enum_field_value" : 67108864,
     "name" : "STICKY_TIMEOUTS"
    },
    {
     "enum_field_value" : 134217728,
     "name" : "ADDR_LIMIT_3GB"
    }
   ],
   "linker_set_key" : "_ZTI19$ADDR_COMPAT_LAYOUT",
   "name" : "(unnamed)",
   "size" : 4,
   "source_file" : "bionic/libc/kernel/uapi/linux/personality.h",
   "underlying_type" : "_ZTIj"
  },
  {
   "alignment" : 4,
   "enum_fields" :
   [
    {
     "enum_field_value" : 0,
     "name" : "DEVCONF_FORWARDING"
    },
    {
     "enum_field_value" : 1,
     "name" : "DEVCONF_HOPLIMIT"
    },
    {
     "enum_field_value" : 2,
     "name" : "DEVCONF_MTU6"
    },
    {
     "enum_field_value" : 3,
     "name" : "DEVCONF_ACCEPT_RA"
    },
    {
     "enum_field_value" : 4,
     "name" : "DEVCONF_ACCEPT_REDIRECTS"
    },
    {
     "enum_field_value" : 5,
     "name" : "DEVCONF_AUTOCONF"
    },
    {
     "enum_field_value" : 6,
     "name" : "DEVCONF_DAD_TRANSMITS"
    },
    {
     "enum_field_value" : 7,
     "name" : "DEVCONF_RTR_SOLICITS"
    },
    {
     "enum_field_value" : 8,
     "name" : "DEVCONF_RTR_SOLICIT_INTERVAL"
    },
    {
     "enum_field_value" : 9,
     "name" : "DEVCONF_RTR_SOLICIT_DELAY"
    },
    {
     "enum_field_value" : 10,
     "name" : "DEVCONF_USE_TEMPADDR"
    },
    {
     "enum_field_value" : 11,
     "name" : "DEVCONF_TEMP_VALID_LFT"
    },
    {
     "enum_field_value" : 12,
     "name" : "DEVCONF_TEMP_PREFERED_LFT"
    },
    {
     "enum_field_value" : 13,
     "name" : "DEVCONF_REGEN_MAX_RETRY"
    },
    {
     "enum_field_value" : 14,
     "name" : "DEVCONF_MAX_DESYNC_FACTOR"
    },
    {
     "enum_field_value" : 15,
     "name" : "DEVCONF_MAX_ADDRESSES"
    },
    {
     "enum_field_value" : 16,
     "name" : "DEVCONF_FORCE_MLD_VERSION"
    },
    {
     "enum_field_value" : 17,
     "name" : "DEVCONF_ACCEPT_RA_DEFRTR"
    },
    {
     "enum_field_value" : 18,
     "name" : "DEVCONF_ACCEPT_RA_PINFO"
    },
    {
     "enum_field_value" : 19,
     "name" : "DEVCONF_ACCEPT_RA_RTR_PREF"
    },
    {
     "enum_field_value" : 20,
     "name" : "DEVCONF_RTR_PROBE_INTERVAL"
    },
    {
     "enum_field_value" : 21,
     "name" : "DEVCONF_ACCEPT_RA_RT_INFO_MAX_PLEN"
    },
    {
     "enum_field_value" : 22,
     "name" : "DEVCONF_PROXY_NDP"
    },
    {
     "enum_field_value" : 23,
     "name" : "DEVCONF_OPTIMISTIC_DAD"
    },
    {
     "enum_field_value" : 24,
     "name" : "DEVCONF_ACCEPT_SOURCE_ROUTE"
    },
    {
     "enum_field_value" : 25,
     "name" : "DEVCONF_MC_FORWARDING"
    },
    {
     "enum_field_value" : 26,
     "name" : "DEVCONF_DISABLE_IPV6"
    },
    {
     "enum_field_value" : 27,
     "name" : "DEVCONF_ACCEPT_DAD"
    },
    {
     "enum_field_value" : 28,
     "name" : "DEVCONF_FORCE_TLLAO"
    },
    {
     "enum_field_value" : 29,
     "name" : "DEVCONF_NDISC_NOTIFY"
    },
    {
     "enum_field_value" : 30,
     "name" : "DEVCONF_MLDV1_UNSOLICITED_REPORT_INTERVAL"
    },
    {
     "enum_field_value" : 31,
     "name" : "DEVCONF_MLDV2_UNSOLICITED_REPORT_INTERVAL"
    },
    {
     "enum_field_value" : 32,
     "name" : "DEVCONF_SUPPRESS_FRAG_NDISC"
    },
    {
     "enum_field_value" : 33,
     "name" : "DEVCONF_ACCEPT_RA_FROM_LOCAL"
    },
    {
     "enum_field_value" : 34,
     "name" : "DEVCONF_USE_OPTIMISTIC"
    },
    {
     "enum_field_value" : 35,
     "name" : "DEVCONF_ACCEPT_RA_MTU"
    },
    {
     "enum_field_value" : 36,
     "name" : "DEVCONF_STABLE_SECRET"
    },
    {
     "enum_field_value" : 37,
     "name" : "DEVCONF_USE_OIF_ADDRS_ONLY"
    },
    {
     "enum_field_value" : 38,
     "name" : "DEVCONF_ACCEPT_RA_MIN_HOP_LIMIT"
    },
    {
     "enum_field_value" : 39,
     "name" : "DEVCONF_IGNORE_ROUTES_WITH_LINKDOWN"
    },
    {
     "enum_field_value" : 40,
     "name" : "DEVCONF_DROP_UNICAST_IN_L2_MULTICAST"
    },
    {
     "enum_field_value" : 41,
     "name" : "DEVCONF_DROP_UNSOLICITED_NA"
    },
    {
     "enum_field_value" : 42,
     "name" : "DEVCONF_KEEP_ADDR_ON_DOWN"
    },
    {
     "enum_field_value" : 43,
     "name" : "DEVCONF_RTR_SOLICIT_MAX_INTERVAL"
    },
    {
     "enum_field_value" : 44,
     "name" : "DEVCONF_SEG6_ENABLED"
    },
    {
     "enum_field_value" : 45,
     "name" : "DEVCONF_SEG6_REQUIRE_HMAC"
    },
    {
     "enum_field_value" : 46,
     "name" : "DEVCONF_ENHANCED_DAD"
    },
    {
     "enum_field_value" : 47,
     "name" : "DEVCONF_ADDR_GEN_MODE"
    },
    {
     "enum_field_value" : 48,
     "name" : "DEVCONF_DISABLE_POLICY"
    },
    {
     "enum_field_value" : 49,
     "name" : "DEVCONF_ACCEPT_RA_RT_INFO_MIN_PLEN"
    },
    {
     "enum_field_value" : 50,
     "name" : "DEVCONF_NDISC_TCLASS"
    },
    {
     "enum_field_value" : 51,
     "name" : "DEVCONF_RPL_SEG_ENABLED"
    },
    {
     "enum_field_value" : 52,
     "name" : "DEVCONF_RA_DEFRTR_METRIC"
    },
    {
     "enum_field_value" : 53,
     "name" : "DEVCONF_IOAM6_ENABLED"
    },
    {
     "enum_field_value" : 54,
     "name" : "DEVCONF_IOAM6_ID"
    },
    {
     "enum_field_value" : 55,
     "name" : "DEVCONF_IOAM6_ID_WIDE"
    },
    {
     "enum_field_value" : 56,
     "name" : "DEVCONF_NDISC_EVICT_NOCARRIER"
    },
    {
     "enum_field_value" : 57,
     "name" : "DEVCONF_ACCEPT_UNTRACKED_NA"
    },
    {
     "enum_field_value" : 58,
     "name" : "DEVCONF_ACCEPT_RA_MIN_LFT"
    },
    {
     "enum_field_value" : 59,
     "name" : "DEVCONF_MAX"
    }
   ],
   "linker_set_key" : "_ZTI19$DEVCONF_ACCEPT_DAD",
   "name" : "(unnamed)",
   "size" : 4,
   "source_file" : "bionic/libc/kernel/uapi/linux/ipv6.h",
   "underlying_type" : "_ZTIj"
  },
  {
   "alignment" : 4,
   "enum_fields" :
   [
    {
     "enum_field_value" : 0,
     "name" : "IFLA_STATS_UNSPEC"
    },
    {
     "enum_field_value" : 1,
     "name" : "IFLA_STATS_LINK_64"
    },
    {
     "enum_field_value" : 2,
     "name" : "IFLA_STATS_LINK_XSTATS"
    },
    {
     "enum_field_value" : 3,
     "name" : "IFLA_STATS_LINK_XSTATS_SLAVE"
    },
    {
     "enum_field_value" : 4,
     "name" : "IFLA_STATS_LINK_OFFLOAD_XSTATS"
    },
    {
     "enum_field_value" : 5,
     "name" : "IFLA_STATS_AF_SPEC"
    },
    {
     "enum_field_value" : 6,
     "name" : "__IFLA_STATS_MAX"
    }
   ],
   "linker_set_key" : "_ZTI19$IFLA_STATS_AF_SPEC",
   "name" : "(unnamed)",
   "size" : 4,
   "source_file" : "bionic/libc/kernel/uapi/linux/if_link.h",
   "underlying_type" : "_ZTIj"
  },
  {
   "alignment" : 4,
   "enum_fields" :
   [
    {
     "enum_field_value" : 0,
     "name" : "ANDROID_LOG_UNKNOWN"
    },
    {
     "enum_field_value" : 1,
     "name" : "ANDROID_LOG_DEFAULT"
    },
    {
     "enum_field_value" : 2,
     "name" : "ANDROID_LOG_VERBOSE"
    },
    {
     "enum_field_value" : 3,
     "name" : "ANDROID_LOG_DEBUG"
    },
    {
     "enum_field_value" : 4,
     "name" : "ANDROID_LOG_INFO"
    },
    {
     "enum_field_value" : 5,
     "name" : "ANDROID_LOG_WARN"
    },
    {
     "enum_field_value" : 6,
     "name" : "ANDROID_LOG_ERROR"
    },
    {
     "enum_field_value" : 7,
     "name" : "ANDROID_LOG_FATAL"
    },
    {
     "enum_field_value" : 8,
     "name" : "ANDROID_LOG_SILENT"
    }
   ],
   "linker_set_key" : "_ZTI19android_LogPriority",
   "name" : "android_LogPriority",
   "size" : 4,
   "source_file" : "system/logging/liblog/include/android/log.h",
   "underlying_type" : "_ZTIj"
  },
  {
   "alignment" : 4,
   "enum_fields" :
   [
    {
     "enum_field_value" : 0,
     "name" : "BRIDGE_MODE_UNSPEC"
    },
    {
     "enum_field_value" : 1,
     "name" : "BRIDGE_MODE_HAIRPIN"
    }
   ],
   "linker_set_key" : "_ZTI20$BRIDGE_MODE_HAIRPIN",
   "name" : "(unnamed)",
   "size" : 4,
   "source_file" : "bionic/libc/kernel/uapi/linux/if_link.h",
   "underlying_type" : "_ZTIj"
  },
  {
   "alignment" : 4,
   "enum_fields" :
   [
    {
     "enum_field_value" : 0,
     "name" : "IFLA_BR_UNSPEC"
    },
    {
     "enum_field_value" : 1,
     "name" : "IFLA_BR_FORWARD_DELAY"
    },
    {
     "enum_field_value" : 2,
     "name" : "IFLA_BR_HELLO_TIME"
    },
    {
     "enum_field_value" : 3,
     "name" : "IFLA_BR_MAX_AGE"
    },
    {
     "enum_field_value" : 4,
     "name" : "IFLA_BR_AGEING_TIME"
    },
    {
     "enum_field_value" : 5,
     "name" : "IFLA_BR_STP_STATE"
    },
    {
     "enum_field_value" : 6,
     "name" : "IFLA_BR_PRIORITY"
    },
    {
     "enum_field_value" : 7,
     "name" : "IFLA_BR_VLAN_FILTERING"
    },
    {
     "enum_field_value" : 8,
     "name" : "IFLA_BR_VLAN_PROTOCOL"
    },
    {
     "enum_field_value" : 9,
     "name" : "IFLA_BR_GROUP_FWD_MASK"
    },
    {
     "enum_field_value" : 10,
     "name" : "IFLA_BR_ROOT_ID"
    },
    {
     "enum_field_value" : 11,
     "name" : "IFLA_BR_BRIDGE_ID"
    },
    {
     "enum_field_value" : 12,
     "name" : "IFLA_BR_ROOT_PORT"
    },
    {
     "enum_field_value" : 13,
     "name" : "IFLA_BR_ROOT_PATH_COST"
    },
    {
     "enum_field_value" : 14,
     "name" : "IFLA_BR_TOPOLOGY_CHANGE"
    },
    {
     "enum_field_value" : 15,
     "name" : "IFLA_BR_TOPOLOGY_CHANGE_DETECTED"
    },
    {
     "enum_field_value" : 16,
     "name" : "IFLA_BR_HELLO_TIMER"
    },
    {
     "enum_field_value" : 17,
     "name" : "IFLA_BR_TCN_TIMER"
    },
    {
     "enum_field_value" : 18,
     "name" : "IFLA_BR_TOPOLOGY_CHANGE_TIMER"
    },
    {
     "enum_field_value" : 19,
     "name" : "IFLA_BR_GC_TIMER"
    },
    {
     "enum_field_value" : 20,
     "name" : "IFLA_BR_GROUP_ADDR"
    },
    {
     "enum_field_value" : 21,
     "name" : "IFLA_BR_FDB_FLUSH"
    },
    {
     "enum_field_value" : 22,
     "name" : "IFLA_BR_MCAST_ROUTER"
    },
    {
     "enum_field_value" : 23,
     "name" : "IFLA_BR_MCAST_SNOOPING"
    },
    {
     "enum_field_value" : 24,
     "name" : "IFLA_BR_MCAST_QUERY_USE_IFADDR"
    },
    {
     "enum_field_value" : 25,
     "name" : "IFLA_BR_MCAST_QUERIER"
    },
    {
     "enum_field_value" : 26,
     "name" : "IFLA_BR_MCAST_HASH_ELASTICITY"
    },
    {
     "enum_field_value" : 27,
     "name" : "IFLA_BR_MCAST_HASH_MAX"
    },
    {
     "enum_field_value" : 28,
     "name" : "IFLA_BR_MCAST_LAST_MEMBER_CNT"
    },
    {
     "enum_field_value" : 29,
     "name" : "IFLA_BR_MCAST_STARTUP_QUERY_CNT"
    },
    {
     "enum_field_value" : 30,
     "name" : "IFLA_BR_MCAST_LAST_MEMBER_INTVL"
    },
    {
     "enum_field_value" : 31,
     "name" : "IFLA_BR_MCAST_MEMBERSHIP_INTVL"
    },
    {
     "enum_field_value" : 32,
     "name" : "IFLA_BR_MCAST_QUERIER_INTVL"
    },
    {
     "enum_field_value" : 33,
     "name" : "IFLA_BR_MCAST_QUERY_INTVL"
    },
    {
     "enum_field_value" : 34,
     "name" : "IFLA_BR_MCAST_QUERY_RESPONSE_INTVL"
    },
    {
     "enum_field_value" : 35,
     "name" : "IFLA_BR_MCAST_STARTUP_QUERY_INTVL"
    },
    {
     "enum_field_value" : 36,
     "name" : "IFLA_BR_NF_CALL_IPTABLES"
    },
    {
     "enum_field_value" : 37,
     "name" : "IFLA_BR_NF_CALL_IP6TABLES"
    },
    {
     "enum_field_value" : 38,
     "name" : "IFLA_BR_NF_CALL_ARPTABLES"
    },
    {
     "enum_field_value" : 39,
     "name" : "IFLA_BR_VLAN_DEFAULT_PVID"
    },
    {
     "enum_field_value" : 40,
     "name" : "IFLA_BR_PAD"
    },
    {
     "enum_field_value" : 41,
     "name" : "IFLA_BR_VLAN_STATS_ENABLED"
    },
    {
     "enum_field_value" : 42,
     "name" : "IFLA_BR_MCAST_STATS_ENABLED"
    },
    {
     "enum_field_value" : 43,
     "name" : "IFLA_BR_MCAST_IGMP_VERSION"
    },
    {
     "enum_field_value" : 44,
     "name" : "IFLA_BR_MCAST_MLD_VERSION"
    },
    {
     "enum_field_value" : 45,
     "name" : "IFLA_BR_VLAN_STATS_PER_PORT"
    },
    {
     "enum_field_value" : 46,
     "name" : "IFLA_BR_MULTI_BOOLOPT"
    },
    {
     "enum_field_value" : 47,
     "name" : "IFLA_BR_MCAST_QUERIER_STATE"
    },
    {
     "enum_field_value" : 48,
     "name" : "IFLA_BR_FDB_N_LEARNED"
    },
    {
     "enum_field_value" : 49,
     "name" : "IFLA_BR_FDB_MAX_LEARNED"
    },
    {
     "enum_field_value" : 50,
     "name" : "__IFLA_BR_MAX"
    }
   ],
   "linker_set_key" : "_ZTI20$IFLA_BR_AGEING_TIME",
   "name" : "(unnamed)",
   "size" : 4,
   "source_file" : "bionic/libc/kernel/uapi/linux/if_link.h",
   "underlying_type" : "_ZTIj"
  },
  {
   "alignment" : 4,
   "enum_fields" :
   [
    {
     "enum_field_value" : 0,
     "name" : "IFLA_PORT_UNSPEC"
    },
    {
     "enum_field_value" : 1,
     "name" : "IFLA_PORT_VF"
    },
    {
     "enum_field_value" : 2,
     "name" : "IFLA_PORT_PROFILE"
    },
    {
     "enum_field_value" : 3,
     "name" : "IFLA_PORT_VSI_TYPE"
    },
    {
     "enum_field_value" : 4,
     "name" : "IFLA_PORT_INSTANCE_UUID"
    },
    {
     "enum_field_value" : 5,
     "name" : "IFLA_PORT_HOST_UUID"
    },
    {
     "enum_field_value" : 6,
     "name" : "IFLA_PORT_REQUEST"
    },
    {
     "enum_field_value" : 7,
     "name" : "IFLA_PORT_RESPONSE"
    },
    {
     "enum_field_value" : 8,
     "name" : "__IFLA_PORT_MAX"
    }
   ],
   "linker_set_key" : "_ZTI20$IFLA_PORT_HOST_UUID",
   "name" : "(unnamed)",
   "size" : 4,
   "source_file" : "bionic/libc/kernel/uapi/linux/if_link.h",
   "underlying_type" : "_ZTIj"
  },
  {
   "alignment" : 4,
   "enum_fields" :
   [
    {
     "enum_field_value" : 0,
     "name" : "IFLA_VRF_PORT_UNSPEC"
    },
    {
     "enum_field_value" : 1,
     "name" : "IFLA_VRF_PORT_TABLE"
    },
    {
     "enum_field_value" : 2,
     "name" : "__IFLA_VRF_PORT_MAX"
    }
   ],
   "linker_set_key" : "_ZTI20$IFLA_VRF_PORT_TABLE",
   "name" : "(unnamed)",
   "size" : 4,
   "source_file" : "bionic/libc/kernel/uapi/linux/if_link.h",
   "underlying_type" : "_ZTIj"
  },
  {
   "alignment" : 4,
   "enum_fields" :
   [
    {
     "enum_field_value" : 0,
     "name" : "NDTPA_UNSPEC"
    },
    {
     "enum_field_value" : 1,
     "name" : "NDTPA_IFINDEX"
    },
    {
     "enum_field_value" : 2,
     "name" : "NDTPA_REFCNT"
    },
    {
     "enum_field_value" : 3,
     "name" : "NDTPA_REACHABLE_TIME"
    },
    {
     "enum_field_value" : 4,
     "name" : "NDTPA_BASE_REACHABLE_TIME"
    },
    {
     "enum_field_value" : 5,
     "name" : "NDTPA_RETRANS_TIME"
    },
    {
     "enum_field_value" : 6,
     "name" : "NDTPA_GC_STALETIME"
    },
    {
     "enum_field_value" : 7,
     "name" : "NDTPA_DELAY_PROBE_TIME"
    },
    {
     "enum_field_value" : 8,
     "name" : "NDTPA_QUEUE_LEN"
    },
    {
     "enum_field_value" : 9,
     "name" : "NDTPA_APP_PROBES"
    },
    {
     "enum_field_value" : 10,
     "name" : "NDTPA_UCAST_PROBES"
    },
    {
     "enum_field_value" : 11,
     "name" : "NDTPA_MCAST_PROBES"
    },
    {
     "enum_field_value" : 12,
     "name" : "NDTPA_ANYCAST_DELAY"
    },
    {
     "enum_field_value" : 13,
     "name" : "NDTPA_PROXY_DELAY"
    },
    {
     "enum_field_value" : 14,
     "name" : "NDTPA_PROXY_QLEN"
    },
    {
     "enum_field_value" : 15,
     "name" : "NDTPA_LOCKTIME"
    },
    {
     "enum_field_value" : 16,
     "name" : "NDTPA_QUEUE_LENBYTES"
    },
    {
     "enum_field_value" : 17,
     "name" : "NDTPA_MCAST_REPROBES"
    },
    {
     "enum_field_value" : 18,
     "name" : "NDTPA_PAD"
    },
    {
     "enum_field_value" : 19,
     "name" : "NDTPA_INTERVAL_PROBE_TIME_MS"
    },
    {
     "enum_field_value" : 20,
     "name" : "__NDTPA_MAX"
    }
   ],
   "linker_set_key" : "_ZTI20$NDTPA_ANYCAST_DELAY",
   "name" : "(unnamed)",
   "size" : 4,
   "source_file" : "bionic/libc/kernel/uapi/linux/neighbour.h",
   "underlying_type" : "_ZTIj"
  },
  {
   "alignment" : 4,
   "enum_fields" :
   [
    {
     "enum_field_value" : 0,
     "name" : "MACVLAN_MACADDR_ADD"
    },
    {
     "enum_field_value" : 1,
     "name" : "MACVLAN_MACADDR_DEL"
    },
    {
     "enum_field_value" : 2,
     "name" : "MACVLAN_MACADDR_FLUSH"
    },
    {
     "enum_field_value" : 3,
     "name" : "MACVLAN_MACADDR_SET"
    }
   ],
   "linker_set_key" : "_ZTI20macvlan_macaddr_mode",
   "name" : "macvlan_macaddr_mode",
   "size" : 4,
   "source_file" : "bionic/libc/kernel/uapi/linux/if_link.h",
   "underlying_type" : "_ZTIj"
  },
  {
   "alignment" : 4,
   "enum_fields" :
   [
    {
     "enum_field_value" : 0,
     "name" : "IFLA_VLAN_UNSPEC"
    },
    {
     "enum_field_value" : 1,
     "name" : "IFLA_VLAN_ID"
    },
    {
     "enum_field_value" : 2,
     "name" : "IFLA_VLAN_FLAGS"
    },
    {
     "enum_field_value" : 3,
     "name" : "IFLA_VLAN_EGRESS_QOS"
    },
    {
     "enum_field_value" : 4,
     "name" : "IFLA_VLAN_INGRESS_QOS"
    },
    {
     "enum_field_value" : 5,
     "name" : "IFLA_VLAN_PROTOCOL"
    },
    {
     "enum_field_value" : 6,
     "name" : "__IFLA_VLAN_MAX"
    }
   ],
   "linker_set_key" : "_ZTI21$IFLA_VLAN_EGRESS_QOS",
   "name" : "(unnamed)",
   "size" : 4,
   "source_file" : "bionic/libc/kernel/uapi/linux/if_link.h",
   "underlying_type" : "_ZTIj"
  },
  {
   "alignment" : 4,
   "enum_fields" :
   [
    {
     "enum_field_value" : 0,
     "name" : "IF_LINK_MODE_DEFAULT"
    },
    {
     "enum_field_value" : 1,
     "name" : "IF_LINK_MODE_DORMANT"
    },
    {
     "enum_field_value" : 2,
     "name" : "IF_LINK_MODE_TESTING"
    }
   ],
   "linker_set_key" : "_ZTI21$IF_LINK_MODE_DEFAULT",
   "name" : "(unnamed)",
   "size" : 4,
   "source_file" : "bionic/libc/kernel/uapi/linux/if.h",
   "underlying_type" : "_ZTIj"
  },
  {
   "alignment" : 4,
   "enum_fields" :
   [
    {
     "enum_field_value" : 0,
     "name" : "IPOIB_MODE_DATAGRAM"
    },
    {
     "enum_field_value" : 1,
     "name" : "IPOIB_MODE_CONNECTED"
    }
   ],
   "linker_set_key" : "_ZTI21$IPOIB_MODE_CONNECTED",
   "name" : "(unnamed)",
   "size" : 4,
   "source_file" : "bionic/libc/kernel/uapi/linux/if_link.h",
   "underlying_type" : "_ZTIj"
  },
  {
   "alignment" : 4,
   "enum_fields" :
   [
    {
     "enum_field_value" : 0,
     "name" : "NFEA_UNSPEC"
    },
    {
     "enum_field_value" : 1,
     "name" : "NFEA_ACTIVITY_NOTIFY"
    },
    {
     "enum_field_value" : 2,
     "name" : "NFEA_DONT_REFRESH"
    },
    {
     "enum_field_value" : 3,
     "name" : "__NFEA_MAX"
    }
   ],
   "linker_set_key" : "_ZTI21$NFEA_ACTIVITY_NOTIFY",
   "name" : "(unnamed)",
   "size" : 4,
   "source_file" : "bionic/libc/kernel/uapi/linux/neighbour.h",
   "underlying_type" : "_ZTIj"
  },
  {
   "alignment" : 4,
   "enum_fields" :
   [
    {
     "enum_field_value" : 0,
     "name" : "ns_uop_delete"
    },
    {
     "enum_field_value" : 1,
     "name" : "ns_uop_add"
    },
    {
     "enum_field_value" : 2,
     "name" : "ns_uop_max"
    }
   ],
   "linker_set_key" : "_ZTI21__ns_update_operation",
   "name" : "__ns_update_operation",
   "size" : 4,
   "source_file" : "bionic/libc/include/arpa/nameser.h",
   "underlying_type" : "_ZTIj"
  },
  {
   "alignment" : 4,
   "enum_fields" :
   [
    {
     "enum_field_value" : 0,
     "name" : "IFLA_VLAN_QOS_UNSPEC"
    },
    {
     "enum_field_value" : 1,
     "name" : "IFLA_VLAN_QOS_MAPPING"
    },
    {
     "enum_field_value" : 2,
     "name" : "__IFLA_VLAN_QOS_MAX"
    }
   ],
   "linker_set_key" : "_ZTI22$IFLA_VLAN_QOS_MAPPING",
   "name" : "(unnamed)",
   "size" : 4,
   "source_file" : "bionic/libc/kernel/uapi/linux/if_link.h",
   "underlying_type" : "_ZTIj"
  },
  {
   "alignment" : 4,
   "enum_fields" :
   [
    {
     "enum_field_value" : 0,
     "name" : "LINK_XSTATS_TYPE_UNSPEC"
    },
    {
     "enum_field_value" : 1,
     "name" : "LINK_XSTATS_TYPE_BRIDGE"
    },
    {
     "enum_field_value" : 2,
     "name" : "LINK_XSTATS_TYPE_BOND"
    },
    {
     "enum_field_value" : 3,
     "name" : "__LINK_XSTATS_TYPE_MAX"
    }
   ],
   "linker_set_key" : "_ZTI22$LINK_XSTATS_TYPE_BOND",
   "name" : "(unnamed)",
   "size" : 4,
   "source_file" : "bionic/libc/kernel/uapi/linux/if_link.h",
   "underlying_type" : "_ZTIj"
  },
  {
   "alignment" : 4,
   "enum_fields" :
   [
    {
     "enum_field_value" : 0,
     "name" : "PTHREAD_MUTEX_NORMAL"
    },
    {
     "enum_field_value" : 1,
     "name" : "PTHREAD_MUTEX_RECURSIVE"
    },
    {
     "enum_field_value" : 2,
     "name" : "PTHREAD_MUTEX_ERRORCHECK"
    },
    {
     "enum_field_value" : 2,
     "name" : "PTHREAD_MUTEX_ERRORCHECK_NP"
    },
    {
     "enum_field_value" : 1,
     "name" : "PTHREAD_MUTEX_RECURSIVE_NP"
    },
    {
     "enum_field_value" : 0,
     "name" : "PTHREAD_MUTEX_DEFAULT"
    }
   ],
   "linker_set_key" : "_ZTI22$PTHREAD_MUTEX_DEFAULT",
   "name" : "(unnamed)",
   "size" : 4,
   "source_file" : "bionic/libc/include/pthread.h",
   "underlying_type" : "_ZTIj"
  },
  {
   "alignment" : 4,
   "enum_fields" :
   [
    {
     "enum_field_value" : 0,
     "name" : "VXLAN_VNIFILTER_UNSPEC"
    },
    {
     "enum_field_value" : 1,
     "name" : "VXLAN_VNIFILTER_ENTRY"
    },
    {
     "enum_field_value" : 2,
     "name" : "__VXLAN_VNIFILTER_MAX"
    }
   ],
   "linker_set_key" : "_ZTI22$VXLAN_VNIFILTER_ENTRY",
   "name" : "(unnamed)",
   "size" : 4,
   "source_file" : "bionic/libc/kernel/uapi/linux/if_link.h",
   "underlying_type" : "_ZTIj"
  },
  {
   "alignment" : 4,
   "enum_fields" :
   [
    {
     "enum_field_value" : 0,
     "name" : "MACSEC_VALIDATE_DISABLED"
    },
    {
     "enum_field_value" : 1,
     "name" : "MACSEC_VALIDATE_CHECK"
    },
    {
     "enum_field_value" : 2,
     "name" : "MACSEC_VALIDATE_STRICT"
    },
    {
     "enum_field_value" : 3,
     "name" : "__MACSEC_VALIDATE_END"
    },
    {
     "enum_field_value" : 2,
     "name" : "MACSEC_VALIDATE_MAX"
    }
   ],
   "linker_set_key" : "_ZTI22macsec_validation_type",
   "name" : "macsec_validation_type",
   "size" : 4,
   "source_file" : "bionic/libc/kernel/uapi/linux/if_link.h",
   "underlying_type" : "_ZTIj"
  },
  {
   "alignment" : 4,
   "enum_fields" :
   [
    {
     "enum_field_value" : 0,
     "name" : "NL_ATTR_TYPE_INVALID"
    },
    {
     "enum_field_value" : 1,
     "name" : "NL_ATTR_TYPE_FLAG"
    },
    {
     "enum_field_value" : 2,
     "name" : "NL_ATTR_TYPE_U8"
    },
    {
     "enum_field_value" : 3,
     "name" : "NL_ATTR_TYPE_U16"
    },
    {
     "enum_field_value" : 4,
     "name" : "NL_ATTR_TYPE_U32"
    },
    {
     "enum_field_value" : 5,
     "name" : "NL_ATTR_TYPE_U64"
    },
    {
     "enum_field_value" : 6,
     "name" : "NL_ATTR_TYPE_S8"
    },
    {
     "enum_field_value" : 7,
     "name" : "NL_ATTR_TYPE_S16"
    },
    {
     "enum_field_value" : 8,
     "name" : "NL_ATTR_TYPE_S32"
    },
    {
     "enum_field_value" : 9,
     "name" : "NL_ATTR_TYPE_S64"
    },
    {
     "enum_field_value" : 10,
     "name" : "NL_ATTR_TYPE_BINARY"
    },
    {
     "enum_field_value" : 11,
     "name" : "NL_ATTR_TYPE_STRING"
    },
    {
     "enum_field_value" : 12,
     "name" : "NL_ATTR_TYPE_NUL_STRING"
    },
    {
     "enum_field_value" : 13,
     "name" : "NL_ATTR_TYPE_NESTED"
    },
    {
     "enum_field_value" : 14,
     "name" : "NL_ATTR_TYPE_NESTED_ARRAY"
    },
    {
     "enum_field_value" : 15,
     "name" : "NL_ATTR_TYPE_BITFIELD32"
    },
    {
     "enum_field_value" : 16,
     "name" : "NL_ATTR_TYPE_SINT"
    },
    {
     "enum_field_value" : 17,
     "name" : "NL_ATTR_TYPE_UINT"
    }
   ],
   "linker_set_key" : "_ZTI22netlink_attribute_type",
   "name" : "netlink_attribute_type",
   "size" : 4,
   "source_file" : "bionic/libc/kernel/uapi/linux/netlink.h",
   "underlying_type" : "_ZTIj"
  },
  {
   "alignment" : 4,
   "enum_fields" :
   [
    {
     "enum_field_value" : 0,
     "name" : "IFLA_BAREUDP_UNSPEC"
    },
    {
     "enum_field_value" : 1,
     "name" : "IFLA_BAREUDP_PORT"
    },
    {
     "enum_field_value" : 2,
     "name" : "IFLA_BAREUDP_ETHERTYPE"
    },
    {
     "enum_field_value" : 3,
     "name" : "IFLA_BAREUDP_SRCPORT_MIN"
    },
    {
     "enum_field_value" : 4,
     "name" : "IFLA_BAREUDP_MULTIPROTO_MODE"
    },
    {
     "enum_field_value" : 5,
     "name" : "__IFLA_BAREUDP_MAX"
    }
   ],
   "linker_set_key" : "_ZTI23$IFLA_BAREUDP_ETHERTYPE",
   "name" : "(unnamed)",
   "size" : 4,
   "source_file" : "bionic/libc/kernel/uapi/linux/if_link.h",
   "underlying_type" : "_ZTIj"
  },
  {
   "alignment" : 4,
   "enum_fields" :
   [
    {
     "enum_field_value" : 0,
     "name" : "IFLA_BOND_UNSPEC"
    },
    {
     "enum_field_value" : 1,
     "name" : "IFLA_BOND_MODE"
    },
    {
     "enum_field_value" : 2,
     "name" : "IFLA_BOND_ACTIVE_SLAVE"
    },
    {
     "enum_field_value" : 3,
     "name" : "IFLA_BOND_MIIMON"
    },
    {
     "enum_field_value" : 4,
     "name" : "IFLA_BOND_UPDELAY"
    },
    {
     "enum_field_value" : 5,
     "name" : "IFLA_BOND_DOWNDELAY"
    },
    {
     "enum_field_value" : 6,
     "name" : "IFLA_BOND_USE_CARRIER"
    },
    {
     "enum_field_value" : 7,
     "name" : "IFLA_BOND_ARP_INTERVAL"
    },
    {
     "enum_field_value" : 8,
     "name" : "IFLA_BOND_ARP_IP_TARGET"
    },
    {
     "enum_field_value" : 9,
     "name" : "IFLA_BOND_ARP_VALIDATE"
    },
    {
     "enum_field_value" : 10,
     "name" : "IFLA_BOND_ARP_ALL_TARGETS"
    },
    {
     "enum_field_value" : 11,
     "name" : "IFLA_BOND_PRIMARY"
    },
    {
     "enum_field_value" : 12,
     "name" : "IFLA_BOND_PRIMARY_RESELECT"
    },
    {
     "enum_field_value" : 13,
     "name" : "IFLA_BOND_FAIL_OVER_MAC"
    },
    {
     "enum_field_value" : 14,
     "name" : "IFLA_BOND_XMIT_HASH_POLICY"
    },
    {
     "enum_field_value" : 15,
     "name" : "IFLA_BOND_RESEND_IGMP"
    },
    {
     "enum_field_value" : 16,
     "name" : "IFLA_BOND_NUM_PEER_NOTIF"
    },
    {
     "enum_field_value" : 17,
     "name" : "IFLA_BOND_ALL_SLAVES_ACTIVE"
    },
    {
     "enum_field_value" : 18,
     "name" : "IFLA_BOND_MIN_LINKS"
    },
    {
     "enum_field_value" : 19,
     "name" : "IFLA_BOND_LP_INTERVAL"
    },
    {
     "enum_field_value" : 20,
     "name" : "IFLA_BOND_PACKETS_PER_SLAVE"
    },
    {
     "enum_field_value" : 21,
     "name" : "IFLA_BOND_AD_LACP_RATE"
    },
    {
     "enum_field_value" : 22,
     "name" : "IFLA_BOND_AD_SELECT"
    },
    {
     "enum_field_value" : 23,
     "name" : "IFLA_BOND_AD_INFO"
    },
    {
     "enum_field_value" : 24,
     "name" : "IFLA_BOND_AD_ACTOR_SYS_PRIO"
    },
    {
     "enum_field_value" : 25,
     "name" : "IFLA_BOND_AD_USER_PORT_KEY"
    },
    {
     "enum_field_value" : 26,
     "name" : "IFLA_BOND_AD_ACTOR_SYSTEM"
    },
    {
     "enum_field_value" : 27,
     "name" : "IFLA_BOND_TLB_DYNAMIC_LB"
    },
    {
     "enum_field_value" : 28,
     "name" : "IFLA_BOND_PEER_NOTIF_DELAY"
    },
    {
     "enum_field_value" : 29,
     "name" : "IFLA_BOND_AD_LACP_ACTIVE"
    },
    {
     "enum_field_value" : 30,
     "name" : "IFLA_BOND_MISSED_MAX"
    },
    {
     "enum_field_value" : 31,
     "name" : "IFLA_BOND_NS_IP6_TARGET"
    },
    {
     "enum_field_value" : 32,
     "name" : "__IFLA_BOND_MAX"
    }
   ],
   "linker_set_key" : "_ZTI23$IFLA_BOND_ACTIVE_SLAVE",
   "name" : "(unnamed)",
   "size" : 4,
   "source_file" : "bionic/libc/kernel/uapi/linux/if_link.h",
   "underlying_type" : "_ZTIj"
  },
  {
   "alignment" : 4,
   "enum_fields" :
   [
    {
     "enum_field_value" : 0,
     "name" : "IFLA_MACVLAN_UNSPEC"
    },
    {
     "enum_field_value" : 1,
     "name" : "IFLA_MACVLAN_MODE"
    },
    {
     "enum_field_value" : 2,
     "name" : "IFLA_MACVLAN_FLAGS"
    },
    {
     "enum_field_value" : 3,
     "name" : "IFLA_MACVLAN_MACADDR_MODE"
    },
    {
     "enum_field_value" : 4,
     "name" : "IFLA_MACVLAN_MACADDR"
    },
    {
     "enum_field_value" : 5,
     "name" : "IFLA_MACVLAN_MACADDR_DATA"
    },
    {
     "enum_field_value" : 6,
     "name" : "IFLA_MACVLAN_MACADDR_COUNT"
    },
    {
     "enum_field_value" : 7,
     "name" : "IFLA_MACVLAN_BC_QUEUE_LEN"
    },
    {
     "enum_field_value" : 8,
     "name" : "IFLA_MACVLAN_BC_QUEUE_LEN_USED"
    },
    {
     "enum_field_value" : 9,
     "name" : "IFLA_MACVLAN_BC_CUTOFF"
    },
    {
     "enum_field_value" : 10,
     "name" : "__IFLA_MACVLAN_MAX"
    }
   ],
   "linker_set_key" : "_ZTI23$IFLA_MACVLAN_BC_CUTOFF",
   "name" : "(unnamed)",
   "size" : 4,
   "source_file" : "bionic/libc/kernel/uapi/linux/if_link.h",
   "underlying_type" : "_ZTIj"
  },
  {
   "alignment" : 4,
   "enum_fields" :
   [
    {
     "enum_field_value" : 0,
     "name" : "PORT_REQUEST_PREASSOCIATE"
    },
    {
     "enum_field_value" : 1,
     "name" : "PORT_REQUEST_PREASSOCIATE_RR"
    },
    {
     "enum_field_value" : 2,
     "name" : "PORT_REQUEST_ASSOCIATE"
    },
    {
     "enum_field_value" : 3,
     "name" : "PORT_REQUEST_DISASSOCIATE"
    }
   ],
   "linker_set_key" : "_ZTI23$PORT_REQUEST_ASSOCIATE",
   "name" : "(unnamed)",
   "size" : 4,
   "source_file" : "bionic/libc/kernel/uapi/linux/if_link.h",
   "underlying_type" : "_ZTIj"
  },
  {
   "alignment" : 4,
   "enum_fields" :
   [
    {
     "enum_field_value" : 0,
     "name" : "VXLAN_LABEL_FIXED"
    },
    {
     "enum_field_value" : 1,
     "name" : "VXLAN_LABEL_INHERIT"
    },
    {
     "enum_field_value" : 2,
     "name" : "__VXLAN_LABEL_END"
    },
    {
     "enum_field_value" : 1,
     "name" : "VXLAN_LABEL_MAX"
    }
   ],
   "linker_set_key" : "_ZTI23ifla_vxlan_label_policy",
   "name" : "ifla_vxlan_label_policy",
   "size" : 4,
   "source_file" : "bionic/libc/kernel/uapi/linux/if_link.h",
   "underlying_type" : "_ZTIj"
  },
  {
   "alignment" : 4,
   "enum_fields" :
   [
    {
     "enum_field_value" : 0,
     "name" : "IFLA_BRPORT_UNSPEC"
    },
    {
     "enum_field_value" : 1,
     "name" : "IFLA_BRPORT_STATE"
    },
    {
     "enum_field_value" : 2,
     "name" : "IFLA_BRPORT_PRIORITY"
    },
    {
     "enum_field_value" : 3,
     "name" : "IFLA_BRPORT_COST"
    },
    {
     "enum_field_value" : 4,
     "name" : "IFLA_BRPORT_MODE"
    },
    {
     "enum_field_value" : 5,
     "name" : "IFLA_BRPORT_GUARD"
    },
    {
     "enum_field_value" : 6,
     "name" : "IFLA_BRPORT_PROTECT"
    },
    {
     "enum_field_value" : 7,
     "name" : "IFLA_BRPORT_FAST_LEAVE"
    },
    {
     "enum_field_value" : 8,
     "name" : "IFLA_BRPORT_LEARNING"
    },
    {
     "enum_field_value" : 9,
     "name" : "IFLA_BRPORT_UNICAST_FLOOD"
    },
    {
     "enum_field_value" : 10,
     "name" : "IFLA_BRPORT_PROXYARP"
    },
    {
     "enum_field_value" : 11,
     "name" : "IFLA_BRPORT_LEARNING_SYNC"
    },
    {
     "enum_field_value" : 12,
     "name" : "IFLA_BRPORT_PROXYARP_WIFI"
    },
    {
     "enum_field_value" : 13,
     "name" : "IFLA_BRPORT_ROOT_ID"
    },
    {
     "enum_field_value" : 14,
     "name" : "IFLA_BRPORT_BRIDGE_ID"
    },
    {
     "enum_field_value" : 15,
     "name" : "IFLA_BRPORT_DESIGNATED_PORT"
    },
    {
     "enum_field_value" : 16,
     "name" : "IFLA_BRPORT_DESIGNATED_COST"
    },
    {
     "enum_field_value" : 17,
     "name" : "IFLA_BRPORT_ID"
    },
    {
     "enum_field_value" : 18,
     "name" : "IFLA_BRPORT_NO"
    },
    {
     "enum_field_value" : 19,
     "name" : "IFLA_BRPORT_TOPOLOGY_CHANGE_ACK"
    },
    {
     "enum_field_value" : 20,
     "name" : "IFLA_BRPORT_CONFIG_PENDING"
    },
    {
     "enum_field_value" : 21,
     "name" : "IFLA_BRPORT_MESSAGE_AGE_TIMER"
    },
    {
     "enum_field_value" : 22,
     "name" : "IFLA_BRPORT_FORWARD_DELAY_TIMER"
    },
    {
     "enum_field_value" : 23,
     "name" : "IFLA_BRPORT_HOLD_TIMER"
    },
    {
     "enum_field_value" : 24,
     "name" : "IFLA_BRPORT_FLUSH"
    },
    {
     "enum_field_value" : 25,
     "name" : "IFLA_BRPORT_MULTICAST_ROUTER"
    },
    {
     "enum_field_value" : 26,
     "name" : "IFLA_BRPORT_PAD"
    },
    {
     "enum_field_value" : 27,
     "name" : "IFLA_BRPORT_MCAST_FLOOD"
    },
    {
     "enum_field_value" : 28,
     "name" : "IFLA_BRPORT_MCAST_TO_UCAST"
    },
    {
     "enum_field_value" : 29,
     "name" : "IFLA_BRPORT_VLAN_TUNNEL"
    },
    {
     "enum_field_value" : 30,
     "name" : "IFLA_BRPORT_BCAST_FLOOD"
    },
    {
     "enum_field_value" : 31,
     "name" : "IFLA_BRPORT_GROUP_FWD_MASK"
    },
    {
     "enum_field_value" : 32,
     "name" : "IFLA_BRPORT_NEIGH_SUPPRESS"
    },
    {
     "enum_field_value" : 33,
     "name" : "IFLA_BRPORT_ISOLATED"
    },
    {
     "enum_field_value" : 34,
     "name" : "IFLA_BRPORT_BACKUP_PORT"
    },
    {
     "enum_field_value" : 35,
     "name" : "IFLA_BRPORT_MRP_RING_OPEN"
    },
    {
     "enum_field_value" : 36,
     "name" : "IFLA_BRPORT_MRP_IN_OPEN"
    },
    {
     "enum_field_value" : 37,
     "name" : "IFLA_BRPORT_MCAST_EHT_HOSTS_LIMIT"
    },
    {
     "enum_field_value" : 38,
     "name" : "IFLA_BRPORT_MCAST_EHT_HOSTS_CNT"
    },
    {
     "enum_field_value" : 39,
     "name" : "IFLA_BRPORT_LOCKED"
    },
    {
     "enum_field_value" : 40,
     "name" : "IFLA_BRPORT_MAB"
    },
    {
     "enum_field_value" : 41,
     "name" : "IFLA_BRPORT_MCAST_N_GROUPS"
    },
    {
     "enum_field_value" : 42,
     "name" : "IFLA_BRPORT_MCAST_MAX_GROUPS"
    },
    {
     "enum_field_value" : 43,
     "name" : "IFLA_BRPORT_NEIGH_VLAN_SUPPRESS"
    },
    {
     "enum_field_value" : 44,
     "name" : "IFLA_BRPORT_BACKUP_NHID"
    },
    {
     "enum_field_value" : 45,
     "name" : "__IFLA_BRPORT_MAX"
    }
   ],
   "linker_set_key" : "_ZTI24$IFLA_BRPORT_BACKUP_NHID",
   "name" : "(unnamed)",
   "size" : 4,
   "source_file" : "bionic/libc/kernel/uapi/linux/if_link.h",
   "underlying_type" : "_ZTIj"
  },
  {
   "alignment" : 4,
   "enum_fields" :
   [
    {
     "enum_field_value" : 0,
     "name" : "IFLA_GTP_UNSPEC"
    },
    {
     "enum_field_value" : 1,
     "name" : "IFLA_GTP_FD0"
    },
    {
     "enum_field_value" : 2,
     "name" : "IFLA_GTP_FD1"
    },
    {
     "enum_field_value" : 3,
     "name" : "IFLA_GTP_PDP_HASHSIZE"
    },
    {
     "enum_field_value" : 4,
     "name" : "IFLA_GTP_ROLE"
    },
    {
     "enum_field_value" : 5,
     "name" : "IFLA_GTP_CREATE_SOCKETS"
    },
    {
     "enum_field_value" : 6,
     "name" : "IFLA_GTP_RESTART_COUNT"
    },
    {
     "enum_field_value" : 7,
     "name" : "__IFLA_GTP_MAX"
    }
   ],
   "linker_set_key" : "_ZTI24$IFLA_GTP_CREATE_SOCKETS",
   "name" : "(unnamed)",
   "size" : 4,
   "source_file" : "bionic/libc/kernel/uapi/linux/if_link.h",
   "underlying_type" : "_ZTIj"
  },
  {
   "alignment" : 4,
   "enum_fields" :
   [
    {
     "enum_field_value" : 0,
     "name" : "IFLA_HSR_UNSPEC"
    },
    {
     "enum_field_value" : 1,
     "name" : "IFLA_HSR_SLAVE1"
    },
    {
     "enum_field_value" : 2,
     "name" : "IFLA_HSR_SLAVE2"
    },
    {
     "enum_field_value" : 3,
     "name" : "IFLA_HSR_MULTICAST_SPEC"
    },
    {
     "enum_field_value" : 4,
     "name" : "IFLA_HSR_SUPERVISION_ADDR"
    },
    {
     "enum_field_value" : 5,
     "name" : "IFLA_HSR_SEQ_NR"
    },
    {
     "enum_field_value" : 6,
     "name" : "IFLA_HSR_VERSION"
    },
    {
     "enum_field_value" : 7,
     "name" : "IFLA_HSR_PROTOCOL"
    },
    {
     "enum_field_value" : 8,
     "name" : "__IFLA_HSR_MAX"
    }
   ],
   "linker_set_key" : "_ZTI24$IFLA_HSR_MULTICAST_SPEC",
   "name" : "(unnamed)",
   "size" : 4,
   "source_file" : "bionic/libc/kernel/uapi/linux/if_link.h",
   "underlying_type" : "_ZTIj"
  },
  {
   "alignment" : 4,
   "enum_fields" :
   [
    {
     "enum_field_value" : 0,
     "name" : "IFLA_VF_LINK_STATE_AUTO"
    },
    {
     "enum_field_value" : 1,
     "name" : "IFLA_VF_LINK_STATE_ENABLE"
    },
    {
     "enum_field_value" : 2,
     "name" : "IFLA_VF_LINK_STATE_DISABLE"
    },
    {
     "enum_field_value" : 3,
     "name" : "__IFLA_VF_LINK_STATE_MAX"
    }
   ],
   "linker_set_key" : "_ZTI24$IFLA_VF_LINK_STATE_AUTO",
   "name" : "(unnamed)",
   "size" : 4,
   "source_file" : "bionic/libc/kernel/uapi/linux/if_link.h",
   "underlying_type" : "_ZTIj"
  },
  {
   "alignment" : 4,
   "enum_fields" :
   [
    {
     "enum_field_value" : 0,
     "name" : "IFLA_VF_STATS_RX_PACKETS"
    },
    {
     "enum_field_value" : 1,
     "name" : "IFLA_VF_STATS_TX_PACKETS"
    },
    {
     "enum_field_value" : 2,
     "name" : "IFLA_VF_STATS_RX_BYTES"
    },
    {
     "enum_field_value" : 3,
     "name" : "IFLA_VF_STATS_TX_BYTES"
    },
    {
     "enum_field_value" : 4,
     "name" : "IFLA_VF_STATS_BROADCAST"
    },
    {
     "enum_field_value" : 5,
     "name" : "IFLA_VF_STATS_MULTICAST"
    },
    {
     "enum_field_value" : 6,
     "name" : "IFLA_VF_STATS_PAD"
    },
    {
     "enum_field_value" : 7,
     "name" : "IFLA_VF_STATS_RX_DROPPED"
    },
    {
     "enum_field_value" : 8,
     "name" : "IFLA_VF_STATS_TX_DROPPED"
    },
    {
     "enum_field_value" : 9,
     "name" : "__IFLA_VF_STATS_MAX"
    }
   ],
   "linker_set_key" : "_ZTI24$IFLA_VF_STATS_BROADCAST",
   "name" : "(unnamed)",
   "size" : 4,
   "source_file" : "bionic/libc/kernel/uapi/linux/if_link.h",
   "underlying_type" : "_ZTIj"
  },
  {
   "alignment" : 4,
   "enum_fields" :
   [
    {
     "enum_field_value" : 0,
     "name" : "ANDROID_FDSAN_OWNER_TYPE_GENERIC_00"
    },
    {
     "enum_field_value" : 255,
     "name" : "ANDROID_FDSAN_OWNER_TYPE_GENERIC_FF"
    },
    {
     "enum_field_value" : 1,
     "name" : "ANDROID_FDSAN_OWNER_TYPE_FILE"
    },
    {
     "enum_field_value" : 2,
     "name" : "ANDROID_FDSAN_OWNER_TYPE_DIR"
    },
    {
     "enum_field_value" : 3,
     "name" : "ANDROID_FDSAN_OWNER_TYPE_UNIQUE_FD"
    },
    {
     "enum_field_value" : 4,
     "name" : "ANDROID_FDSAN_OWNER_TYPE_SQLITE"
    },
    {
     "enum_field_value" : 5,
     "name" : "ANDROID_FDSAN_OWNER_TYPE_FILEINPUTSTREAM"
    },
    {
     "enum_field_value" : 6,
     "name" : "ANDROID_FDSAN_OWNER_TYPE_FILEOUTPUTSTREAM"
    },
    {
     "enum_field_value" : 7,
     "name" : "ANDROID_FDSAN_OWNER_TYPE_RANDOMACCESSFILE"
    },
    {
     "enum_field_value" : 8,
     "name" : "ANDROID_FDSAN_OWNER_TYPE_PARCELFILEDESCRIPTOR"
    },
    {
     "enum_field_value" : 9,
     "name" : "ANDROID_FDSAN_OWNER_TYPE_ART_FDFILE"
    },
    {
     "enum_field_value" : 10,
     "name" : "ANDROID_FDSAN_OWNER_TYPE_DATAGRAMSOCKETIMPL"
    },
    {
     "enum_field_value" : 11,
     "name" : "ANDROID_FDSAN_OWNER_TYPE_SOCKETIMPL"
    },
    {
     "enum_field_value" : 12,
     "name" : "ANDROID_FDSAN_OWNER_TYPE_ZIPARCHIVE"
    },
    {
     "enum_field_value" : 13,
     "name" : "ANDROID_FDSAN_OWNER_TYPE_NATIVE_HANDLE"
    },
    {
     "enum_field_value" : 14,
     "name" : "ANDROID_FDSAN_OWNER_TYPE_PARCEL"
    }
   ],
   "linker_set_key" : "_ZTI24android_fdsan_owner_type",
   "name" : "android_fdsan_owner_type",
   "size" : 4,
   "source_file" : "bionic/libc/include/android/fdsan.h",
   "underlying_type" : "_ZTIj"
  },
  {
   "alignment" : 4,
   "enum_fields" :
   [
    {
     "enum_field_value" : 0,
     "name" : "NL_POLICY_TYPE_ATTR_UNSPEC"
    },
    {
     "enum_field_value" : 1,
     "name" : "NL_POLICY_TYPE_ATTR_TYPE"
    },
    {
     "enum_field_value" : 2,
     "name" : "NL_POLICY_TYPE_ATTR_MIN_VALUE_S"
    },
    {
     "enum_field_value" : 3,
     "name" : "NL_POLICY_TYPE_ATTR_MAX_VALUE_S"
    },
    {
     "enum_field_value" : 4,
     "name" : "NL_POLICY_TYPE_ATTR_MIN_VALUE_U"
    },
    {
     "enum_field_value" : 5,
     "name" : "NL_POLICY_TYPE_ATTR_MAX_VALUE_U"
    },
    {
     "enum_field_value" : 6,
     "name" : "NL_POLICY_TYPE_ATTR_MIN_LENGTH"
    },
    {
     "enum_field_value" : 7,
     "name" : "NL_POLICY_TYPE_ATTR_MAX_LENGTH"
    },
    {
     "enum_field_value" : 8,
     "name" : "NL_POLICY_TYPE_ATTR_POLICY_IDX"
    },
    {
     "enum_field_value" : 9,
     "name" : "NL_POLICY_TYPE_ATTR_POLICY_MAXTYPE"
    },
    {
     "enum_field_value" : 10,
     "name" : "NL_POLICY_TYPE_ATTR_BITFIELD32_MASK"
    },
    {
     "enum_field_value" : 11,
     "name" : "NL_POLICY_TYPE_ATTR_PAD"
    },
    {
     "enum_field_value" : 12,
     "name" : "NL_POLICY_TYPE_ATTR_MASK"
    },
    {
     "enum_field_value" : 13,
     "name" : "__NL_POLICY_TYPE_ATTR_MAX"
    },
    {
     "enum_field_value" : 12,
     "name" : "NL_POLICY_TYPE_ATTR_MAX"
    }
   ],
   "linker_set_key" : "_ZTI24netlink_policy_type_attr",
   "name" : "netlink_policy_type_attr",
   "size" : 4,
   "source_file" : "bionic/libc/kernel/uapi/linux/netlink.h",
   "underlying_type" : "_ZTIj"
  },
  {
   "alignment" : 4,
   "enum_fields" :
   [
    {
     "enum_field_value" : 1,
     "name" : "ANDROID_DLEXT_RESERVED_ADDRESS"
    },
    {
     "enum_field_value" : 2,
     "name" : "ANDROID_DLEXT_RESERVED_ADDRESS_HINT"
    },
    {
     "enum_field_value" : 4,
     "name" : "ANDROID_DLEXT_WRITE_RELRO"
    },
    {
     "enum_field_value" : 8,
     "name" : "ANDROID_DLEXT_USE_RELRO"
    },
    {
     "enum_field_value" : 16,
     "name" : "ANDROID_DLEXT_USE_LIBRARY_FD"
    },
    {
     "enum_field_value" : 32,
     "name" : "ANDROID_DLEXT_USE_LIBRARY_FD_OFFSET"
    },
    {
     "enum_field_value" : 64,
     "name" : "ANDROID_DLEXT_FORCE_LOAD"
    },
    {
     "enum_field_value" : 512,
     "name" : "ANDROID_DLEXT_USE_NAMESPACE"
    },
    {
     "enum_field_value" : 1024,
     "name" : "ANDROID_DLEXT_RESERVED_ADDRESS_RECURSIVE"
    },
    {
     "enum_field_value" : 1663,
     "name" : "ANDROID_DLEXT_VALID_FLAG_BITS"
    }
   ],
   "linker_set_key" : "_ZTI25$ANDROID_DLEXT_FORCE_LOAD",
   "name" : "(unnamed)",
   "size" : 4,
   "source_file" : "bionic/libc/include/android/dlext.h",
   "underlying_type" : "_ZTIj"
  },
  {
   "alignment" : 4,
   "enum_fields" :
   [
    {
     "enum_field_value" : 0,
     "name" : "IFLA_INET6_UNSPEC"
    },
    {
     "enum_field_value" : 1,
     "name" : "IFLA_INET6_FLAGS"
    },
    {
     "enum_field_value" : 2,
     "name" : "IFLA_INET6_CONF"
    },
    {
     "enum_field_value" : 3,
     "name" : "IFLA_INET6_STATS"
    },
    {
     "enum_field_value" : 4,
     "name" : "IFLA_INET6_MCAST"
    },
    {
     "enum_field_value" : 5,
     "name" : "IFLA_INET6_CACHEINFO"
    },
    {
     "enum_field_value" : 6,
     "name" : "IFLA_INET6_ICMP6STATS"
    },
    {
     "enum_field_value" : 7,
     "name" : "IFLA_INET6_TOKEN"
    },
    {
     "enum_field_value" : 8,
     "name" : "IFLA_INET6_ADDR_GEN_MODE"
    },
    {
     "enum_field_value" : 9,
     "name" : "IFLA_INET6_RA_MTU"
    },
    {
     "enum_field_value" : 10,
     "name" : "__IFLA_INET6_MAX"
    }
   ],
   "linker_set_key" : "_ZTI25$IFLA_INET6_ADDR_GEN_MODE",
   "name" : "(unnamed)",
   "size" : 4,
   "source_file" : "bionic/libc/kernel/uapi/linux/if_link.h",
   "underlying_type" : "_ZTIj"
  },
  {
   "alignment" : 4,
   "enum_fields" :
   [
    {
     "enum_field_value" : 0,
     "name" : "IFLA_MACSEC_UNSPEC"
    },
    {
     "enum_field_value" : 1,
     "name" : "IFLA_MACSEC_SCI"
    },
    {
     "enum_field_value" : 2,
     "name" : "IFLA_MACSEC_PORT"
    },
    {
     "enum_field_value" : 3,
     "name" : "IFLA_MACSEC_ICV_LEN"
    },
    {
     "enum_field_value" : 4,
     "name" : "IFLA_MACSEC_CIPHER_SUITE"
    },
    {
     "enum_field_value" : 5,
     "name" : "IFLA_MACSEC_WINDOW"
    },
    {
     "enum_field_value" : 6,
     "name" : "IFLA_MACSEC_ENCODING_SA"
    },
    {
     "enum_field_value" : 7,
     "name" : "IFLA_MACSEC_ENCRYPT"
    },
    {
     "enum_field_value" : 8,
     "name" : "IFLA_MACSEC_PROTECT"
    },
    {
     "enum_field_value" : 9,
     "name" : "IFLA_MACSEC_INC_SCI"
    },
    {
     "enum_field_value" : 10,
     "name" : "IFLA_MACSEC_ES"
    },
    {
     "enum_field_value" : 11,
     "name" : "IFLA_MACSEC_SCB"
    },
    {
     "enum_field_value" : 12,
     "name" : "IFLA_MACSEC_REPLAY_PROTECT"
    },
    {
     "enum_field_value" : 13,
     "name" : "IFLA_MACSEC_VALIDATION"
    },
    {
     "enum_field_value" : 14,
     "name" : "IFLA_MACSEC_PAD"
    },
    {
     "enum_field_value" : 15,
     "name" : "IFLA_MACSEC_OFFLOAD"
    },
    {
     "enum_field_value" : 16,
     "name" : "__IFLA_MACSEC_MAX"
    }
   ],
   "linker_set_key" : "_ZTI25$IFLA_MACSEC_CIPHER_SUITE",
   "name" : "(unnamed)",
   "size" : 4,
   "source_file" : "bionic/libc/kernel/uapi/linux/if_link.h",
   "underlying_type" : "_ZTIj"
  },
  {
   "alignment" : 4,
   "enum_fields" :
   [
    {
     "enum_field_value" : 0,
     "name" : "IFLA_STATS_GETSET_UNSPEC"
    },
    {
     "enum_field_value" : 1,
     "name" : "IFLA_STATS_GET_FILTERS"
    },
    {
     "enum_field_value" : 2,
     "name" : "IFLA_STATS_SET_OFFLOAD_XSTATS_L3_STATS"
    },
    {
     "enum_field_value" : 3,
     "name" : "__IFLA_STATS_GETSET_MAX"
    }
   ],
   "linker_set_key" : "_ZTI25$IFLA_STATS_GETSET_UNSPEC",
   "name" : "(unnamed)",
   "size" : 4,
   "source_file" : "bionic/libc/kernel/uapi/linux/if_link.h",
   "underlying_type" : "_ZTIj"
  },
  {
   "alignment" : 4,
   "enum_fields" :
   [
    {
     "enum_field_value" : 0,
     "name" : "ANDROID_FDSAN_ERROR_LEVEL_DISABLED"
    },
    {
     "enum_field_value" : 1,
     "name" : "ANDROID_FDSAN_ERROR_LEVEL_WARN_ONCE"
    },
    {
     "enum_field_value" : 2,
     "name" : "ANDROID_FDSAN_ERROR_LEVEL_WARN_ALWAYS"
    },
    {
     "enum_field_value" : 3,
     "name" : "ANDROID_FDSAN_ERROR_LEVEL_FATAL"
    }
   ],
   "linker_set_key" : "_ZTI25android_fdsan_error_level",
   "name" : "android_fdsan_error_level",
   "size" : 4,
   "source_file" : "bionic/libc/include/android/fdsan.h",
   "underlying_type" : "_ZTIj"
  },
  {
   "alignment" : 4,
   "enum_fields" :
   [
    {
     "enum_field_value" : 0,
     "name" : "VNIFILTER_ENTRY_STATS_UNSPEC"
    },
    {
     "enum_field_value" : 1,
     "name" : "VNIFILTER_ENTRY_STATS_RX_BYTES"
    },
    {
     "enum_field_value" : 2,
     "name" : "VNIFILTER_ENTRY_STATS_RX_PKTS"
    },
    {
     "enum_field_value" : 3,
     "name" : "VNIFILTER_ENTRY_STATS_RX_DROPS"
    },
    {
     "enum_field_value" : 4,
     "name" : "VNIFILTER_ENTRY_STATS_RX_ERRORS"
    },
    {
     "enum_field_value" : 5,
     "name" : "VNIFILTER_ENTRY_STATS_TX_BYTES"
    },
    {
     "enum_field_value" : 6,
     "name" : "VNIFILTER_ENTRY_STATS_TX_PKTS"
    },
    {
     "enum_field_value" : 7,
     "name" : "VNIFILTER_ENTRY_STATS_TX_DROPS"
    },
    {
     "enum_field_value" : 8,
     "name" : "VNIFILTER_ENTRY_STATS_TX_ERRORS"
    },
    {
     "enum_field_value" : 9,
     "name" : "VNIFILTER_ENTRY_STATS_PAD"
    },
    {
     "enum_field_value" : 10,
     "name" : "__VNIFILTER_ENTRY_STATS_MAX"
    }
   ],
   "linker_set_key" : "_ZTI26$VNIFILTER_ENTRY_STATS_PAD",
   "name" : "(unnamed)",
   "size" : 4,
   "source_file" : "bionic/libc/kernel/uapi/linux/if_link.h",
   "underlying_type" : "_ZTIj"
  },
  {
   "alignment" : 4,
   "enum_fields" :
   [
    {
     "enum_field_value" : 0,
     "name" : "VXLAN_VNIFILTER_ENTRY_UNSPEC"
    },
    {
     "enum_field_value" : 1,
     "name" : "VXLAN_VNIFILTER_ENTRY_START"
    },
    {
     "enum_field_value" : 2,
     "name" : "VXLAN_VNIFILTER_ENTRY_END"
    },
    {
     "enum_field_value" : 3,
     "name" : "VXLAN_VNIFILTER_ENTRY_GROUP"
    },
    {
     "enum_field_value" : 4,
     "name" : "VXLAN_VNIFILTER_ENTRY_GROUP6"
    },
    {
     "enum_field_value" : 5,
     "name" : "VXLAN_VNIFILTER_ENTRY_STATS"
    },
    {
     "enum_field_value" : 6,
     "name" : "__VXLAN_VNIFILTER_ENTRY_MAX"
    }
   ],
   "linker_set_key" : "_ZTI26$VXLAN_VNIFILTER_ENTRY_END",
   "name" : "(unnamed)",
   "size" : 4,
   "source_file" : "bionic/libc/kernel/uapi/linux/if_link.h",
   "underlying_type" : "_ZTIj"
  },
  {
   "alignment" : 4,
   "enum_fields" :
   [
    {
     "enum_field_value" : 0,
     "name" : "IFLA_XFRM_UNSPEC"
    },
    {
     "enum_field_value" : 1,
     "name" : "IFLA_XFRM_LINK"
    },
    {
     "enum_field_value" : 2,
     "name" : "IFLA_XFRM_IF_ID"
    },
    {
     "enum_field_value" : 3,
     "name" : "IFLA_XFRM_COLLECT_METADATA"
    },
    {
     "enum_field_value" : 4,
     "name" : "__IFLA_XFRM_MAX"
    }
   ],
   "linker_set_key" : "_ZTI27$IFLA_XFRM_COLLECT_METADATA",
   "name" : "(unnamed)",
   "size" : 4,
   "source_file" : "bionic/libc/kernel/uapi/linux/if_link.h",
   "underlying_type" : "_ZTIj"
  },
  {
   "alignment" : 4,
   "enum_fields" :
   [
    {
     "enum_field_value" : 0,
     "name" : "IFLA_BOND_AD_INFO_UNSPEC"
    },
    {
     "enum_field_value" : 1,
     "name" : "IFLA_BOND_AD_INFO_AGGREGATOR"
    },
    {
     "enum_field_value" : 2,
     "name" : "IFLA_BOND_AD_INFO_NUM_PORTS"
    },
    {
     "enum_field_value" : 3,
     "name" : "IFLA_BOND_AD_INFO_ACTOR_KEY"
    },
    {
     "enum_field_value" : 4,
     "name" : "IFLA_BOND_AD_INFO_PARTNER_KEY"
    },
    {
     "enum_field_value" : 5,
     "name" : "IFLA_BOND_AD_INFO_PARTNER_MAC"
    },
    {
     "enum_field_value" : 6,
     "name" : "__IFLA_BOND_AD_INFO_MAX"
    }
   ],
   "linker_set_key" : "_ZTI28$IFLA_BOND_AD_INFO_ACTOR_KEY",
   "name" : "(unnamed)",
   "size" : 4,
   "source_file" : "bionic/libc/kernel/uapi/linux/if_link.h",
   "underlying_type" : "_ZTIj"
  },
  {
   "alignment" : 4,
   "enum_fields" :
   [
    {
     "enum_field_value" : 0,
     "name" : "IFLA_EVENT_NONE"
    },
    {
     "enum_field_value" : 1,
     "name" : "IFLA_EVENT_REBOOT"
    },
    {
     "enum_field_value" : 2,
     "name" : "IFLA_EVENT_FEATURES"
    },
    {
     "enum_field_value" : 3,
     "name" : "IFLA_EVENT_BONDING_FAILOVER"
    },
    {
     "enum_field_value" : 4,
     "name" : "IFLA_EVENT_NOTIFY_PEERS"
    },
    {
     "enum_field_value" : 5,
     "name" : "IFLA_EVENT_IGMP_RESEND"
    },
    {
     "enum_field_value" : 6,
     "name" : "IFLA_EVENT_BONDING_OPTIONS"
    }
   ],
   "linker_set_key" : "_ZTI28$IFLA_EVENT_BONDING_FAILOVER",
   "name" : "(unnamed)",
   "size" : 4,
   "source_file" : "bionic/libc/kernel/uapi/linux/if_link.h",
   "underlying_type" : "_ZTIj"
  },
  {
   "alignment" : 4,
   "enum_fields" :
   [
    {
     "enum_field_value" : 0,
     "name" : "IFLA_OFFLOAD_XSTATS_UNSPEC"
    },
    {
     "enum_field_value" : 1,
     "name" : "IFLA_OFFLOAD_XSTATS_CPU_HIT"
    },
    {
     "enum_field_value" : 2,
     "name" : "IFLA_OFFLOAD_XSTATS_HW_S_INFO"
    },
    {
     "enum_field_value" : 3,
     "name" : "IFLA_OFFLOAD_XSTATS_L3_STATS"
    },
    {
     "enum_field_value" : 4,
     "name" : "__IFLA_OFFLOAD_XSTATS_MAX"
    }
   ],
   "linker_set_key" : "_ZTI28$IFLA_OFFLOAD_XSTATS_CPU_HIT",
   "name" : "(unnamed)",
   "size" : 4,
   "source_file" : "bionic/libc/kernel/uapi/linux/if_link.h",
   "underlying_type" : "_ZTIj"
  },
  {
   "alignment" : 4,
   "enum_fields" :
   [
    {
     "enum_field_value" : 0,
     "name" : "IFLA_PROTO_DOWN_REASON_UNSPEC"
    },
    {
     "enum_field_value" : 1,
     "name" : "IFLA_PROTO_DOWN_REASON_MASK"
    },
    {
     "enum_field_value" : 2,
     "name" : "IFLA_PROTO_DOWN_REASON_VALUE"
    },
    {
     "enum_field_value" : 3,
     "name" : "__IFLA_PROTO_DOWN_REASON_CNT"
    },
    {
     "enum_field_value" : 2,
     "name" : "IFLA_PROTO_DOWN_REASON_MAX"
    }
   ],
   "linker_set_key" : "_ZTI28$IFLA_PROTO_DOWN_REASON_MASK",
   "name" : "(unnamed)",
   "size" : 4,
   "source_file" : "bionic/libc/kernel/uapi/linux/if_link.h",
   "underlying_type" : "_ZTIj"
  },
  {
   "alignment" : 4,
   "enum_fields" :
   [
    {
     "enum_field_value" : 0,
     "name" : "IFLA_GENEVE_UNSPEC"
    },
    {
     "enum_field_value" : 1,
     "name" : "IFLA_GENEVE_ID"
    },
    {
     "enum_field_value" : 2,
     "name" : "IFLA_GENEVE_REMOTE"
    },
    {
     "enum_field_value" : 3,
     "name" : "IFLA_GENEVE_TTL"
    },
    {
     "enum_field_value" : 4,
     "name" : "IFLA_GENEVE_TOS"
    },
    {
     "enum_field_value" : 5,
     "name" : "IFLA_GENEVE_PORT"
    },
    {
     "enum_field_value" : 6,
     "name" : "IFLA_GENEVE_COLLECT_METADATA"
    },
    {
     "enum_field_value" : 7,
     "name" : "IFLA_GENEVE_REMOTE6"
    },
    {
     "enum_field_value" : 8,
     "name" : "IFLA_GENEVE_UDP_CSUM"
    },
    {
     "enum_field_value" : 9,
     "name" : "IFLA_GENEVE_UDP_ZERO_CSUM6_TX"
    },
    {
     "enum_field_value" : 10,
     "name" : "IFLA_GENEVE_UDP_ZERO_CSUM6_RX"
    },
    {
     "enum_field_value" : 11,
     "name" : "IFLA_GENEVE_LABEL"
    },
    {
     "enum_field_value" : 12,
     "name" : "IFLA_GENEVE_TTL_INHERIT"
    },
    {
     "enum_field_value" : 13,
     "name" : "IFLA_GENEVE_DF"
    },
    {
     "enum_field_value" : 14,
     "name" : "IFLA_GENEVE_INNER_PROTO_INHERIT"
    },
    {
     "enum_field_value" : 15,
     "name" : "__IFLA_GENEVE_MAX"
    }
   ],
   "linker_set_key" : "_ZTI29$IFLA_GENEVE_COLLECT_METADATA",
   "name" : "(unnamed)",
   "size" : 4,
   "source_file" : "bionic/libc/kernel/uapi/linux/if_link.h",
   "underlying_type" : "_ZTIj"
  },
  {
   "alignment" : 4,
   "enum_fields" :
   [
    {
     "enum_field_value" : 0,
     "name" : "PORT_VDP_RESPONSE_SUCCESS"
    },
    {
     "enum_field_value" : 1,
     "name" : "PORT_VDP_RESPONSE_INVALID_FORMAT"
    },
    {
     "enum_field_value" : 2,
     "name" : "PORT_VDP_RESPONSE_INSUFFICIENT_RESOURCES"
    },
    {
     "enum_field_value" : 3,
     "name" : "PORT_VDP_RESPONSE_UNUSED_VTID"
    },
    {
     "enum_field_value" : 4,
     "name" : "PORT_VDP_RESPONSE_VTID_VIOLATION"
    },
    {
     "enum_field_value" : 5,
     "name" : "PORT_VDP_RESPONSE_VTID_VERSION_VIOALTION"
    },
    {
     "enum_field_value" : 6,
     "name" : "PORT_VDP_RESPONSE_OUT_OF_SYNC"
    },
    {
     "enum_field_value" : 256,
     "name" : "PORT_PROFILE_RESPONSE_SUCCESS"
    },
    {
     "enum_field_value" : 257,
     "name" : "PORT_PROFILE_RESPONSE_INPROGRESS"
    },
    {
     "enum_field_value" : 258,
     "name" : "PORT_PROFILE_RESPONSE_INVALID"
    },
    {
     "enum_field_value" : 259,
     "name" : "PORT_PROFILE_RESPONSE_BADSTATE"
    },
    {
     "enum_field_value" : 260,
     "name" : "PORT_PROFILE_RESPONSE_INSUFFICIENT_RESOURCES"
    },
    {
     "enum_field_value" : 261,
     "name" : "PORT_PROFILE_RESPONSE_ERROR"
    }
   ],
   "linker_set_key" : "_ZTI31$PORT_PROFILE_RESPONSE_BADSTATE",
   "name" : "(unnamed)",
   "size" : 4,
   "source_file" : "bionic/libc/kernel/uapi/linux/if_link.h",
   "underlying_type" : "_ZTIj"
  },
  {
   "alignment" : 4,
   "enum_fields" :
   [
    {
     "enum_field_value" : 0,
     "name" : "PTHREAD_RWLOCK_PREFER_READER_NP"
    },
    {
     "enum_field_value" : 1,
     "name" : "PTHREAD_RWLOCK_PREFER_WRITER_NONRECURSIVE_NP"
    }
   ],
   "linker_set_key" : "_ZTI32$PTHREAD_RWLOCK_PREFER_READER_NP",
   "name" : "(unnamed)",
   "size" : 4,
   "source_file" : "bionic/libc/include/pthread.h",
   "underlying_type" : "_ZTIj"
  },
  {
   "alignment" : 4,
   "enum_fields" :
   [
    {
     "enum_field_value" : 0,
     "name" : "IFLA_OFFLOAD_XSTATS_HW_S_INFO_UNSPEC"
    },
    {
     "enum_field_value" : 1,
     "name" : "IFLA_OFFLOAD_XSTATS_HW_S_INFO_REQUEST"
    },
    {
     "enum_field_value" : 2,
     "name" : "IFLA_OFFLOAD_XSTATS_HW_S_INFO_USED"
    },
    {
     "enum_field_value" : 3,
     "name" : "__IFLA_OFFLOAD_XSTATS_HW_S_INFO_MAX"
    }
   ],
   "linker_set_key" : "_ZTI38$IFLA_OFFLOAD_XSTATS_HW_S_INFO_REQUEST",
   "name" : "(unnamed)",
   "size" : 4,
   "source_file" : "bionic/libc/kernel/uapi/linux/if_link.h",
   "underlying_type" : "_ZTIj"
  },
  {
   "alignment" : 4,
   "enum_fields" :
   [
    {
     "enum_field_value" : 4294967295,
     "name" : "BIONIC_MULTIBYTE_RESULT_ILLEGAL_SEQUENCE"
    },
    {
     "enum_field_value" : 4294967294,
     "name" : "BIONIC_MULTIBYTE_RESULT_INCOMPLETE_SEQUENCE"
    },
    {
     "enum_field_value" : 4294967293,
     "name" : "BIONIC_MULTIBYTE_RESULT_NO_BYTES_CONSUMED"
    }
   ],
   "linker_set_key" : "_ZTI41$BIONIC_MULTIBYTE_RESULT_ILLEGAL_SEQUENCE",
   "name" : "(unnamed)",
   "size" : 4,
   "source_file" : "bionic/libc/include/bits/bionic_multibyte_result.h",
   "underlying_type" : "_ZTIj"
  },
  {
   "alignment" : 4,
   "enum_fields" :
   [
    {
     "enum_field_value" : 0,
     "name" : "IFLA_BOND_SLAVE_UNSPEC"
    },
    {
     "enum_field_value" : 1,
     "name" : "IFLA_BOND_SLAVE_STATE"
    },
    {
     "enum_field_value" : 2,
     "name" : "IFLA_BOND_SLAVE_MII_STATUS"
    },
    {
     "enum_field_value" : 3,
     "name" : "IFLA_BOND_SLAVE_LINK_FAILURE_COUNT"
    },
    {
     "enum_field_value" : 4,
     "name" : "IFLA_BOND_SLAVE_PERM_HWADDR"
    },
    {
     "enum_field_value" : 5,
     "name" : "IFLA_BOND_SLAVE_QUEUE_ID"
    },
    {
     "enum_field_value" : 6,
     "name" : "IFLA_BOND_SLAVE_AD_AGGREGATOR_ID"
    },
    {
     "enum_field_value" : 7,
     "name" : "IFLA_BOND_SLAVE_AD_ACTOR_OPER_PORT_STATE"
    },
    {
     "enum_field_value" : 8,
     "name" : "IFLA_BOND_SLAVE_AD_PARTNER_OPER_PORT_STATE"
    },
    {
     "enum_field_value" : 9,
     "name" : "IFLA_BOND_SLAVE_PRIO"
    },
    {
     "enum_field_value" : 10,
     "name" : "__IFLA_BOND_SLAVE_MAX"
    }
   ],
   "linker_set_key" : "_ZTI41$IFLA_BOND_SLAVE_AD_ACTOR_OPER_PORT_STATE",
   "name" : "(unnamed)",
   "size" : 4,
   "source_file" : "bionic/libc/kernel/uapi/linux/if_link.h",
   "underlying_type" : "_ZTIj"
  },
  {
   "alignment" : 4,
   "enum_fields" :
   [
    {
     "enum_field_value" : 0,
     "name" : "preorder"
    },
    {
     "enum_field_value" : 1,
     "name" : "postorder"
    },
    {
     "enum_field_value" : 2,
     "name" : "endorder"
    },
    {
     "enum_field_value" : 3,
     "name" : "leaf"
    }
   ],
   "linker_set_key" : "_ZTI5VISIT",
   "name" : "VISIT",
   "size" : 4,
   "source_file" : "bionic/libc/include/search.h",
   "underlying_type" : "_ZTIj"
  },
  {
   "alignment" : 4,
   "enum_fields" :
   [
    {
     "enum_field_value" : 0,
     "name" : "FIND"
    },
    {
     "enum_field_value" : 1,
     "name" : "ENTER"
    }
   ],
   "linker_set_key" : "_ZTI6ACTION",
   "name" : "ACTION",
   "size" : 4,
   "source_file" : "bionic/libc/include/search.h",
   "underlying_type" : "_ZTIj"
  },
  {
   "alignment" : 4,
   "enum_fields" :
   [
    {
     "enum_field_value" : 0,
     "name" : "LOG_ID_MIN"
    },
    {
     "enum_field_value" : 0,
     "name" : "LOG_ID_MAIN"
    },
    {
     "enum_field_value" : 1,
     "name" : "LOG_ID_RADIO"
    },
    {
     "enum_field_value" : 2,
     "name" : "LOG_ID_EVENTS"
    },
    {
     "enum_field_value" : 3,
     "name" : "LOG_ID_SYSTEM"
    },
    {
     "enum_field_value" : 4,
     "name" : "LOG_ID_CRASH"
    },
    {
     "enum_field_value" : 5,
     "name" : "LOG_ID_STATS"
    },
    {
     "enum_field_value" : 6,
     "name" : "LOG_ID_SECURITY"
    },
    {
     "enum_field_value" : 7,
     "name" : "LOG_ID_KERNEL"
    },
    {
     "enum_field_value" : 8,
     "name" : "LOG_ID_MAX"
    },
    {
     "enum_field_value" : 2147483647,
     "name" : "LOG_ID_DEFAULT"
    }
   ],
   "linker_set_key" : "_ZTI6log_id",
   "name" : "log_id",
   "size" : 4,
   "source_file" : "system/logging/liblog/include/android/log.h",
   "underlying_type" : "_ZTIj"
  },
  {
   "alignment" : 4,
   "enum_fields" :
   [
    {
     "enum_field_value" : 0,
     "name" : "REG_R0"
    },
    {
     "enum_field_value" : 1,
     "name" : "REG_R1"
    },
    {
     "enum_field_value" : 2,
     "name" : "REG_R2"
    },
    {
     "enum_field_value" : 3,
     "name" : "REG_R3"
    },
    {
     "enum_field_value" : 4,
     "name" : "REG_R4"
    },
    {
     "enum_field_value" : 5,
     "name" : "REG_R5"
    },
    {
     "enum_field_value" : 6,
     "name" : "REG_R6"
    },
    {
     "enum_field_value" : 7,
     "name" : "REG_R7"
    },
    {
     "enum_field_value" : 8,
     "name" : "REG_R8"
    },
    {
     "enum_field_value" : 9,
     "name" : "REG_R9"
    },
    {
     "enum_field_value" : 10,
     "name" : "REG_R10"
    },
    {
     "enum_field_value" : 11,
     "name" : "REG_R11"
    },
    {
     "enum_field_value" : 12,
     "name" : "REG_R12"
    },
    {
     "enum_field_value" : 13,
     "name" : "REG_R13"
    },
    {
     "enum_field_value" : 14,
     "name" : "REG_R14"
    },
    {
     "enum_field_value" : 15,
     "name" : "REG_R15"
    }
   ],
   "linker_set_key" : "_ZTI7$REG_R0",
   "name" : "(unnamed)",
   "size" : 4,
   "source_file" : "bionic/libc/include/sys/ucontext.h",
   "underlying_type" : "_ZTIj"
  },
  {
   "alignment" : 4,
   "enum_fields" :
   [
    {
     "enum_field_value" : 0,
     "name" : "PER_LINUX"
    },
    {
     "enum_field_value" : 8388608,
     "name" : "PER_LINUX_32BIT"
    },
    {
     "enum_field_value" : 524288,
     "name" : "PER_LINUX_FDPIC"
    },
    {
     "enum_field_value" : 68157441,
     "name" : "PER_SVR4"
    },
    {
     "enum_field_value" : 83886082,
     "name" : "PER_SVR3"
    },
    {
     "enum_field_value" : 117440515,
     "name" : "PER_SCOSVR3"
    },
    {
     "enum_field_value" : 100663299,
     "name" : "PER_OSR5"
    },
    {
     "enum_field_value" : 83886084,
     "name" : "PER_WYSEV386"
    },
    {
     "enum_field_value" : 67108869,
     "name" : "PER_ISCR4"
    },
    {
     "enum_field_value" : 6,
     "name" : "PER_BSD"
    },
    {
     "enum_field_value" : 67108870,
     "name" : "PER_SUNOS"
    },
    {
     "enum_field_value" : 83886087,
     "name" : "PER_XENIX"
    },
    {
     "enum_field_value" : 8,
     "name" : "PER_LINUX32"
    },
    {
     "enum_field_value" : 134217736,
     "name" : "PER_LINUX32_3GB"
    },
    {
     "enum_field_value" : 67108873,
     "name" : "PER_IRIX32"
    },
    {
     "enum_field_value" : 67108874,
     "name" : "PER_IRIXN32"
    },
    {
     "enum_field_value" : 67108875,
     "name" : "PER_IRIX64"
    },
    {
     "enum_field_value" : 12,
     "name" : "PER_RISCOS"
    },
    {
     "enum_field_value" : 67108877,
     "name" : "PER_SOLARIS"
    },
    {
     "enum_field_value" : 68157454,
     "name" : "PER_UW7"
    },
    {
     "enum_field_value" : 15,
     "name" : "PER_OSF4"
    },
    {
     "enum_field_value" : 16,
     "name" : "PER_HPUX"
    },
    {
     "enum_field_value" : 255,
     "name" : "PER_MASK"
    }
   ],
   "linker_set_key" : "_ZTI8$PER_BSD",
   "name" : "(unnamed)",
   "size" : 4,
   "source_file" : "bionic/libc/kernel/uapi/linux/personality.h",
   "underlying_type" : "_ZTIj"
  },
  {
   "alignment" : 4,
   "enum_fields" :
   [
    {
     "enum_field_value" : 0,
     "name" : "SHUT_RD"
    },
    {
     "enum_field_value" : 1,
     "name" : "SHUT_WR"
    },
    {
     "enum_field_value" : 2,
     "name" : "SHUT_RDWR"
    }
   ],
   "linker_set_key" : "_ZTI8$SHUT_RD",
   "name" : "(unnamed)",
   "size" : 4,
   "source_file" : "bionic/libc/include/sys/socket.h",
   "underlying_type" : "_ZTIj"
  },
  {
   "alignment" : 4,
   "enum_fields" :
   [
    {
     "enum_field_value" : 16,
     "name" : "RTM_BASE"
    },
    {
     "enum_field_value" : 16,
     "name" : "RTM_NEWLINK"
    },
    {
     "enum_field_value" : 17,
     "name" : "RTM_DELLINK"
    },
    {
     "enum_field_value" : 18,
     "name" : "RTM_GETLINK"
    },
    {
     "enum_field_value" : 19,
     "name" : "RTM_SETLINK"
    },
    {
     "enum_field_value" : 20,
     "name" : "RTM_NEWADDR"
    },
    {
     "enum_field_value" : 21,
     "name" : "RTM_DELADDR"
    },
    {
     "enum_field_value" : 22,
     "name" : "RTM_GETADDR"
    },
    {
     "enum_field_value" : 24,
     "name" : "RTM_NEWROUTE"
    },
    {
     "enum_field_value" : 25,
     "name" : "RTM_DELROUTE"
    },
    {
     "enum_field_value" : 26,
     "name" : "RTM_GETROUTE"
    },
    {
     "enum_field_value" : 28,
     "name" : "RTM_NEWNEIGH"
    },
    {
     "enum_field_value" : 29,
     "name" : "RTM_DELNEIGH"
    },
    {
     "enum_field_value" : 30,
     "name" : "RTM_GETNEIGH"
    },
    {
     "enum_field_value" : 32,
     "name" : "RTM_NEWRULE"
    },
    {
     "enum_field_value" : 33,
     "name" : "RTM_DELRULE"
    },
    {
     "enum_field_value" : 34,
     "name" : "RTM_GETRULE"
    },
    {
     "enum_field_value" : 36,
     "name" : "RTM_NEWQDISC"
    },
    {
     "enum_field_value" : 37,
     "name" : "RTM_DELQDISC"
    },
    {
     "enum_field_value" : 38,
     "name" : "RTM_GETQDISC"
    },
    {
     "enum_field_value" : 40,
     "name" : "RTM_NEWTCLASS"
    },
    {
     "enum_field_value" : 41,
     "name" : "RTM_DELTCLASS"
    },
    {
     "enum_field_value" : 42,
     "name" : "RTM_GETTCLASS"
    },
    {
     "enum_field_value" : 44,
     "name" : "RTM_NEWTFILTER"
    },
    {
     "enum_field_value" : 45,
     "name" : "RTM_DELTFILTER"
    },
    {
     "enum_field_value" : 46,
     "name" : "RTM_GETTFILTER"
    },
    {
     "enum_field_value" : 48,
     "name" : "RTM_NEWACTION"
    },
    {
     "enum_field_value" : 49,
     "name" : "RTM_DELACTION"
    },
    {
     "enum_field_value" : 50,
     "name" : "RTM_GETACTION"
    },
    {
     "enum_field_value" : 52,
     "name" : "RTM_NEWPREFIX"
    },
    {
     "enum_field_value" : 58,
     "name" : "RTM_GETMULTICAST"
    },
    {
     "enum_field_value" : 62,
     "name" : "RTM_GETANYCAST"
    },
    {
     "enum_field_value" : 64,
     "name" : "RTM_NEWNEIGHTBL"
    },
    {
     "enum_field_value" : 66,
     "name" : "RTM_GETNEIGHTBL"
    },
    {
     "enum_field_value" : 67,
     "name" : "RTM_SETNEIGHTBL"
    },
    {
     "enum_field_value" : 68,
     "name" : "RTM_NEWNDUSEROPT"
    },
    {
     "enum_field_value" : 72,
     "name" : "RTM_NEWADDRLABEL"
    },
    {
     "enum_field_value" : 73,
     "name" : "RTM_DELADDRLABEL"
    },
    {
     "enum_field_value" : 74,
     "name" : "RTM_GETADDRLABEL"
    },
    {
     "enum_field_value" : 78,
     "name" : "RTM_GETDCB"
    },
    {
     "enum_field_value" : 79,
     "name" : "RTM_SETDCB"
    },
    {
     "enum_field_value" : 80,
     "name" : "RTM_NEWNETCONF"
    },
    {
     "enum_field_value" : 81,
     "name" : "RTM_DELNETCONF"
    },
    {
     "enum_field_value" : 82,
     "name" : "RTM_GETNETCONF"
    },
    {
     "enum_field_value" : 84,
     "name" : "RTM_NEWMDB"
    },
    {
     "enum_field_value" : 85,
     "name" : "RTM_DELMDB"
    },
    {
     "enum_field_value" : 86,
     "name" : "RTM_GETMDB"
    },
    {
     "enum_field_value" : 88,
     "name" : "RTM_NEWNSID"
    },
    {
     "enum_field_value" : 89,
     "name" : "RTM_DELNSID"
    },
    {
     "enum_field_value" : 90,
     "name" : "RTM_GETNSID"
    },
    {
     "enum_field_value" : 92,
     "name" : "RTM_NEWSTATS"
    },
    {
     "enum_field_value" : 94,
     "name" : "RTM_GETSTATS"
    },
    {
     "enum_field_value" : 95,
     "name" : "RTM_SETSTATS"
    },
    {
     "enum_field_value" : 96,
     "name" : "RTM_NEWCACHEREPORT"
    },
    {
     "enum_field_value" : 100,
     "name" : "RTM_NEWCHAIN"
    },
    {
     "enum_field_value" : 101,
     "name" : "RTM_DELCHAIN"
    },
    {
     "enum_field_value" : 102,
     "name" : "RTM_GETCHAIN"
    },
    {
     "enum_field_value" : 104,
     "name" : "RTM_NEWNEXTHOP"
    },
    {
     "enum_field_value" : 105,
     "name" : "RTM_DELNEXTHOP"
    },
    {
     "enum_field_value" : 106,
     "name" : "RTM_GETNEXTHOP"
    },
    {
     "enum_field_value" : 108,
     "name" : "RTM_NEWLINKPROP"
    },
    {
     "enum_field_value" : 109,
     "name" : "RTM_DELLINKPROP"
    },
    {
     "enum_field_value" : 110,
     "name" : "RTM_GETLINKPROP"
    },
    {
     "enum_field_value" : 112,
     "name" : "RTM_NEWVLAN"
    },
    {
     "enum_field_value" : 113,
     "name" : "RTM_DELVLAN"
    },
    {
     "enum_field_value" : 114,
     "name" : "RTM_GETVLAN"
    },
    {
     "enum_field_value" : 116,
     "name" : "RTM_NEWNEXTHOPBUCKET"
    },
    {
     "enum_field_value" : 117,
     "name" : "RTM_DELNEXTHOPBUCKET"
    },
    {
     "enum_field_value" : 118,
     "name" : "RTM_GETNEXTHOPBUCKET"
    },
    {
     "enum_field_value" : 120,
     "name" : "RTM_NEWTUNNEL"
    },
    {
     "enum_field_value" : 121,
     "name" : "RTM_DELTUNNEL"
    },
    {
     "enum_field_value" : 122,
     "name" : "RTM_GETTUNNEL"
    },
    {
     "enum_field_value" : 123,
     "name" : "__RTM_MAX"
    }
   ],
   "linker_set_key" : "_ZTI9$RTM_BASE",
   "name" : "(unnamed)",
   "size" : 4,
   "source_file" : "bionic/libc/kernel/uapi/linux/rtnetlink.h",
   "underlying_type" : "_ZTIj"
  },
  {
   "alignment" : 4,
   "enum_fields" :
   [
    {
     "enum_field_value" : 0,
     "name" : "ns_f_qr"
    },
    {
     "enum_field_value" : 1,
     "name" : "ns_f_opcode"
    },
    {
     "enum_field_value" : 2,
     "name" : "ns_f_aa"
    },
    {
     "enum_field_value" : 3,
     "name" : "ns_f_tc"
    },
    {
     "enum_field_value" : 4,
     "name" : "ns_f_rd"
    },
    {
     "enum_field_value" : 5,
     "name" : "ns_f_ra"
    },
    {
     "enum_field_value" : 6,
     "name" : "ns_f_z"
    },
    {
     "enum_field_value" : 7,
     "name" : "ns_f_ad"
    },
    {
     "enum_field_value" : 8,
     "name" : "ns_f_cd"
    },
    {
     "enum_field_value" : 9,
     "name" : "ns_f_rcode"
    },
    {
     "enum_field_value" : 10,
     "name" : "ns_f_max"
    }
   ],
   "linker_set_key" : "_ZTI9__ns_flag",
   "name" : "__ns_flag",
   "size" : 4,
   "source_file" : "bionic/libc/include/arpa/nameser.h",
   "underlying_type" : "_ZTIj"
  },
  {
   "alignment" : 4,
   "enum_fields" :
   [
    {
     "enum_field_value" : 0,
     "name" : "ns_s_qd"
    },
    {
     "enum_field_value" : 0,
     "name" : "ns_s_zn"
    },
    {
     "enum_field_value" : 1,
     "name" : "ns_s_an"
    },
    {
     "enum_field_value" : 1,
     "name" : "ns_s_pr"
    },
    {
     "enum_field_value" : 2,
     "name" : "ns_s_ns"
    },
    {
     "enum_field_value" : 2,
     "name" : "ns_s_ud"
    },
    {
     "enum_field_value" : 3,
     "name" : "ns_s_ar"
    },
    {
     "enum_field_value" : 4,
     "name" : "ns_s_max"
    }
   ],
   "linker_set_key" : "_ZTI9__ns_sect",
   "name" : "__ns_sect",
   "size" : 4,
   "source_file" : "bionic/libc/include/arpa/nameser.h",
   "underlying_type" : "_ZTIj"
  },
  {
   "alignment" : 4,
   "enum_fields" :
   [
    {
     "enum_field_value" : 0,
     "name" : "ns_t_invalid"
    },
    {
     "enum_field_value" : 1,
     "name" : "ns_t_a"
    },
    {
     "enum_field_value" : 2,
     "name" : "ns_t_ns"
    },
    {
     "enum_field_value" : 3,
     "name" : "ns_t_md"
    },
    {
     "enum_field_value" : 4,
     "name" : "ns_t_mf"
    },
    {
     "enum_field_value" : 5,
     "name" : "ns_t_cname"
    },
    {
     "enum_field_value" : 6,
     "name" : "ns_t_soa"
    },
    {
     "enum_field_value" : 7,
     "name" : "ns_t_mb"
    },
    {
     "enum_field_value" : 8,
     "name" : "ns_t_mg"
    },
    {
     "enum_field_value" : 9,
     "name" : "ns_t_mr"
    },
    {
     "enum_field_value" : 10,
     "name" : "ns_t_null"
    },
    {
     "enum_field_value" : 11,
     "name" : "ns_t_wks"
    },
    {
     "enum_field_value" : 12,
     "name" : "ns_t_ptr"
    },
    {
     "enum_field_value" : 13,
     "name" : "ns_t_hinfo"
    },
    {
     "enum_field_value" : 14,
     "name" : "ns_t_minfo"
    },
    {
     "enum_field_value" : 15,
     "name" : "ns_t_mx"
    },
    {
     "enum_field_value" : 16,
     "name" : "ns_t_txt"
    },
    {
     "enum_field_value" : 17,
     "name" : "ns_t_rp"
    },
    {
     "enum_field_value" : 18,
     "name" : "ns_t_afsdb"
    },
    {
     "enum_field_value" : 19,
     "name" : "ns_t_x25"
    },
    {
     "enum_field_value" : 20,
     "name" : "ns_t_isdn"
    },
    {
     "enum_field_value" : 21,
     "name" : "ns_t_rt"
    },
    {
     "enum_field_value" : 22,
     "name" : "ns_t_nsap"
    },
    {
     "enum_field_value" : 23,
     "name" : "ns_t_nsap_ptr"
    },
    {
     "enum_field_value" : 24,
     "name" : "ns_t_sig"
    },
    {
     "enum_field_value" : 25,
     "name" : "ns_t_key"
    },
    {
     "enum_field_value" : 26,
     "name" : "ns_t_px"
    },
    {
     "enum_field_value" : 27,
     "name" : "ns_t_gpos"
    },
    {
     "enum_field_value" : 28,
     "name" : "ns_t_aaaa"
    },
    {
     "enum_field_value" : 29,
     "name" : "ns_t_loc"
    },
    {
     "enum_field_value" : 30,
     "name" : "ns_t_nxt"
    },
    {
     "enum_field_value" : 31,
     "name" : "ns_t_eid"
    },
    {
     "enum_field_value" : 32,
     "name" : "ns_t_nimloc"
    },
    {
     "enum_field_value" : 33,
     "name" : "ns_t_srv"
    },
    {
     "enum_field_value" : 34,
     "name" : "ns_t_atma"
    },
    {
     "enum_field_value" : 35,
     "name" : "ns_t_naptr"
    },
    {
     "enum_field_value" : 36,
     "name" : "ns_t_kx"
    },
    {
     "enum_field_value" : 37,
     "name" : "ns_t_cert"
    },
    {
     "enum_field_value" : 38,
     "name" : "ns_t_a6"
    },
    {
     "enum_field_value" : 39,
     "name" : "ns_t_dname"
    },
    {
     "enum_field_value" : 40,
     "name" : "ns_t_sink"
    },
    {
     "enum_field_value" : 41,
     "name" : "ns_t_opt"
    },
    {
     "enum_field_value" : 42,
     "name" : "ns_t_apl"
    },
    {
     "enum_field_value" : 43,
     "name" : "ns_t_ds"
    },
    {
     "enum_field_value" : 44,
     "name" : "ns_t_sshfp"
    },
    {
     "enum_field_value" : 45,
     "name" : "ns_t_ipseckey"
    },
    {
     "enum_field_value" : 46,
     "name" : "ns_t_rrsig"
    },
    {
     "enum_field_value" : 47,
     "name" : "ns_t_nsec"
    },
    {
     "enum_field_value" : 48,
     "name" : "ns_t_dnskey"
    },
    {
     "enum_field_value" : 49,
     "name" : "ns_t_dhcid"
    },
    {
     "enum_field_value" : 50,
     "name" : "ns_t_nsec3"
    },
    {
     "enum_field_value" : 51,
     "name" : "ns_t_nsec3param"
    },
    {
     "enum_field_value" : 55,
     "name" : "ns_t_hip"
    },
    {
     "enum_field_value" : 99,
     "name" : "ns_t_spf"
    },
    {
     "enum_field_value" : 249,
     "name" : "ns_t_tkey"
    },
    {
     "enum_field_value" : 250,
     "name" : "ns_t_tsig"
    },
    {
     "enum_field_value" : 251,
     "name" : "ns_t_ixfr"
    },
    {
     "enum_field_value" : 252,
     "name" : "ns_t_axfr"
    },
    {
     "enum_field_value" : 253,
     "name" : "ns_t_mailb"
    },
    {
     "enum_field_value" : 254,
     "name" : "ns_t_maila"
    },
    {
     "enum_field_value" : 255,
     "name" : "ns_t_any"
    },
    {
     "enum_field_value" : 256,
     "name" : "ns_t_zxfr"
    },
    {
     "enum_field_value" : 32769,
     "name" : "ns_t_dlv"
    },
    {
     "enum_field_value" : 65536,
     "name" : "ns_t_max"
    }
   ],
   "linker_set_key" : "_ZTI9__ns_type",
   "name" : "__ns_type",
   "size" : 4,
   "source_file" : "bionic/libc/include/arpa/nameser.h",
   "underlying_type" : "_ZTIj"
  },
  {
   "alignment" : 4,
   "enum_fields" :
   [
    {
     "enum_field_value" : 0,
     "name" : "r_debug::RT_CONSISTENT"
    },
    {
     "enum_field_value" : 1,
     "name" : "r_debug::RT_ADD"
    },
    {
     "enum_field_value" : 2,
     "name" : "r_debug::RT_DELETE"
    }
   ],
   "linker_set_key" : "_ZTIN7r_debug7$RT_ADDE",
   "name" : "r_debug::(unnamed)",
   "size" : 4,
   "source_file" : "bionic/libc/include/link.h",
   "underlying_type" : "_ZTIj"
  }
 ],
 "function_types" :
 [
  {
   "alignment" : 4,
   "linker_set_key" : "_ZTIFP6direntPvE",
   "name" : "dirent *(void *)",
   "parameters" :
   [
    {
     "referenced_type" : "_ZTIPv"
    }
   ],
   "return_type" : "_ZTIP6dirent",
   "source_file" : "bionic/libc/include/glob.h"
  },
  {
   "alignment" : 4,
   "linker_set_key" : "_ZTIFPvPKcE",
   "name" : "void *(const char *)",
   "parameters" :
   [
    {
     "referenced_type" : "_ZTIPKc"
    }
   ],
   "return_type" : "_ZTIPv",
   "source_file" : "bionic/libc/include/glob.h"
  },
  {
   "alignment" : 4,
   "linker_set_key" : "_ZTIFPvS_E",
   "name" : "void *(void *)",
   "parameters" :
   [
    {
     "referenced_type" : "_ZTIPv"
    }
   ],
   "return_type" : "_ZTIPv",
   "source_file" : "bionic/libc/include/pthread.h"
  },
  {
   "alignment" : 4,
   "linker_set_key" : "_ZTIFPvS_jPKvE",
   "name" : "void *(void *, unsigned int, const void *)",
   "parameters" :
   [
    {
     "referenced_type" : "_ZTIPv"
    },
    {
     "referenced_type" : "_ZTIj"
    },
    {
     "referenced_type" : "_ZTIPKv"
    }
   ],
   "return_type" : "_ZTIPv",
   "source_file" : "bionic/libc/include/malloc.h"
  },
  {
   "alignment" : 4,
   "linker_set_key" : "_ZTIFPvjPKvE",
   "name" : "void *(unsigned int, const void *)",
   "parameters" :
   [
    {
     "referenced_type" : "_ZTIj"
    },
    {
     "referenced_type" : "_ZTIPKv"
    }
   ],
   "return_type" : "_ZTIPv",
   "source_file" : "bionic/libc/include/malloc.h"
  },
  {
   "alignment" : 4,
   "linker_set_key" : "_ZTIFPvjjPKvE",
   "name" : "void *(unsigned int, unsigned int, const void *)",
   "parameters" :
   [
    {
     "referenced_type" : "_ZTIj"
    },
    {
     "referenced_type" : "_ZTIj"
    },
    {
     "referenced_type" : "_ZTIPKv"
    }
   ],
   "return_type" : "_ZTIPv",
   "source_file" : "bionic/libc/include/malloc.h"
  },
  {
   "alignment" : 4,
   "linker_set_key" : "_ZTIFiE",
   "name" : "int ()",
   "return_type" : "_ZTIi",
   "source_file" : "bionic/libc/include/fts.h"
  },
  {
   "alignment" : 4,
   "linker_set_key" : "_ZTIFiPK6direntE",
   "name" : "int (const dirent *)",
   "parameters" :
   [
    {
     "referenced_type" : "_ZTIPK6dirent"
    }
   ],
   "return_type" : "_ZTIi",
   "source_file" : "bionic/libc/include/dirent.h"
  },
  {
   "alignment" : 4,
   "linker_set_key" : "_ZTIFiPKcP4statE",
   "name" : "int (const char *, stat *)",
   "parameters" :
   [
    {
     "referenced_type" : "_ZTIPKc"
    },
    {
     "referenced_type" : "_ZTIP4stat"
    }
   ],
   "return_type" : "_ZTIi",
   "source_file" : "bionic/libc/include/glob.h"
  },
  {
   "alignment" : 4,
   "linker_set_key" : "_ZTIFiPKcPK4statiE",
   "name" : "int (const char *, const stat *, int)",
   "parameters" :
   [
    {
     "referenced_type" : "_ZTIPKc"
    },
    {
     "referenced_type" : "_ZTIPK4stat"
    },
    {
     "referenced_type" : "_ZTIi"
    }
   ],
   "return_type" : "_ZTIi",
   "source_file" : "bionic/libc/include/ftw.h"
  },
  {
   "alignment" : 4,
   "linker_set_key" : "_ZTIFiPKcPK4statiP3FTWE",
   "name" : "int (const char *, const stat *, int, FTW *)",
   "parameters" :
   [
    {
     "referenced_type" : "_ZTIPKc"
    },
    {
     "referenced_type" : "_ZTIPK4stat"
    },
    {
     "referenced_type" : "_ZTIi"
    },
    {
     "referenced_type" : "_ZTIP3FTW"
    }
   ],
   "return_type" : "_ZTIi",
   "source_file" : "bionic/libc/include/ftw.h"
  },
  {
   "alignment" : 4,
   "linker_set_key" : "_ZTIFiPKcPK6stat64iE",
   "name" : "int (const char *, const stat64 *, int)",
   "parameters" :
   [
    {
     "referenced_type" : "_ZTIPKc"
    },
    {
     "referenced_type" : "_ZTIPK6stat64"
    },
    {
     "referenced_type" : "_ZTIi"
    }
   ],
   "return_type" : "_ZTIi",
   "source_file" : "bionic/libc/include/ftw.h"
  },
  {
   "alignment" : 4,
   "linker_set_key" : "_ZTIFiPKcPK6stat64iP3FTWE",
   "name" : "int (const char *, const stat64 *, int, FTW *)",
   "parameters" :
   [
    {
     "referenced_type" : "_ZTIPKc"
    },
    {
     "referenced_type" : "_ZTIPK6stat64"
    },
    {
     "referenced_type" : "_ZTIi"
    },
    {
     "referenced_type" : "_ZTIP3FTW"
    }
   ],
   "return_type" : "_ZTIi",
   "source_file" : "bionic/libc/include/ftw.h"
  },
  {
   "alignment" : 4,
   "linker_set_key" : "_ZTIFiPKciE",
   "name" : "int (const char *, int)",
   "parameters" :
   [
    {
     "referenced_type" : "_ZTIPKc"
    },
    {
     "referenced_type" : "_ZTIi"
    }
   ],
   "return_type" : "_ZTIi",
   "source_file" : "bionic/libc/include/glob.h"
  },
  {
   "alignment" : 4,
   "linker_set_key" : "_ZTIFiPKvS0_E",
   "name" : "int (const void *, const void *)",
   "parameters" :
   [
    {
     "referenced_type" : "_ZTIPKv"
    },
    {
     "referenced_type" : "_ZTIPKv"
    }
   ],
   "return_type" : "_ZTIi",
   "source_file" : "bionic/libc/include/stdlib.h"
  },
  {
   "alignment" : 4,
   "linker_set_key" : "_ZTIFiPPK6direntS2_E",
   "name" : "int (const dirent **, const dirent **)",
   "parameters" :
   [
    {
     "referenced_type" : "_ZTIPPK6dirent"
    },
    {
     "referenced_type" : "_ZTIPPK6dirent"
    }
   ],
   "return_type" : "_ZTIi",
   "source_file" : "bionic/libc/include/dirent.h"
  },
  {
   "alignment" : 4,
   "linker_set_key" : "_ZTIFiPPK7_ftsentS2_E",
   "name" : "int (const _ftsent **, const _ftsent **)",
   "parameters" :
   [
    {
     "referenced_type" : "_ZTIPPK7_ftsent"
    },
    {
     "referenced_type" : "_ZTIPPK7_ftsent"
    }
   ],
   "return_type" : "_ZTIi",
   "source_file" : "bionic/libc/include/fts.h"
  },
  {
   "alignment" : 4,
   "linker_set_key" : "_ZTIFiPvE",
   "name" : "int (void *)",
   "parameters" :
   [
    {
     "referenced_type" : "_ZTIPv"
    }
   ],
   "return_type" : "_ZTIi",
   "source_file" : "bionic/libc/include/sched.h"
  },
  {
   "alignment" : 4,
   "linker_set_key" : "_ZTIFiPvPKciE",
   "name" : "int (void *, const char *, int)",
   "parameters" :
   [
    {
     "referenced_type" : "_ZTIPv"
    },
    {
     "referenced_type" : "_ZTIPKc"
    },
    {
     "referenced_type" : "_ZTIi"
    }
   ],
   "return_type" : "_ZTIi",
   "source_file" : "bionic/libc/include/stdio.h"
  },
  {
   "alignment" : 4,
   "linker_set_key" : "_ZTIFiPvPciE",
   "name" : "int (void *, char *, int)",
   "parameters" :
   [
    {
     "referenced_type" : "_ZTIPv"
    },
    {
     "referenced_type" : "_ZTIPc"
    },
    {
     "referenced_type" : "_ZTIi"
    }
   ],
   "return_type" : "_ZTIi",
   "source_file" : "bionic/libc/include/stdio.h"
  },
  {
   "alignment" : 4,
   "linker_set_key" : "_ZTIFivE",
   "name" : "int ()",
   "return_type" : "_ZTIi",
   "source_file" : "bionic/libc/include/fts.h"
  },
  {
   "alignment" : 4,
   "linker_set_key" : "_ZTIFlPvliE",
   "name" : "long (void *, long, int)",
   "parameters" :
   [
    {
     "referenced_type" : "_ZTIPv"
    },
    {
     "referenced_type" : "_ZTIl"
    },
    {
     "referenced_type" : "_ZTIi"
    }
   ],
   "return_type" : "_ZTIl",
   "source_file" : "bionic/libc/include/stdio.h"
  },
  {
   "alignment" : 4,
   "linker_set_key" : "_ZTIFv6sigvalE",
   "name" : "void (sigval)",
   "parameters" :
   [
    {
     "referenced_type" : "_ZTI6sigval"
    }
   ],
   "return_type" : "_ZTIv",
   "source_file" : "bionic/libc/kernel/uapi/asm-generic/siginfo.h"
  },
  {
   "alignment" : 4,
   "linker_set_key" : "_ZTIFvPK9prop_infoPvE",
   "name" : "void (const prop_info *, void *)",
   "parameters" :
   [
    {
     "referenced_type" : "_ZTIPK9prop_info"
    },
    {
     "referenced_type" : "_ZTIPv"
    }
   ],
   "return_type" : "_ZTIv",
   "source_file" : "bionic/libc/system_properties/include/system_properties/contexts_pre_split.h"
  },
  {
   "alignment" : 4,
   "linker_set_key" : "_ZTIFvPKv5VISITiE",
   "name" : "void (const void *, VISIT, int)",
   "parameters" :
   [
    {
     "referenced_type" : "_ZTIPKv"
    },
    {
     "referenced_type" : "_ZTI5VISIT"
    },
    {
     "referenced_type" : "_ZTIi"
    }
   ],
   "return_type" : "_ZTIv",
   "source_file" : "bionic/libc/include/search.h"
  },
  {
   "alignment" : 4,
   "linker_set_key" : "_ZTIFvPvE",
   "name" : "void (void *)",
   "parameters" :
   [
    {
     "referenced_type" : "_ZTIPv"
    }
   ],
   "return_type" : "_ZTIv",
   "source_file" : "bionic/libc/include/pthread.h"
  },
  {
   "alignment" : 4,
   "linker_set_key" : "_ZTIFvPvPKcS1_jE",
   "name" : "void (void *, const char *, const char *, unsigned int)",
   "parameters" :
   [
    {
     "referenced_type" : "_ZTIPv"
    },
    {
     "referenced_type" : "_ZTIPKc"
    },
    {
     "referenced_type" : "_ZTIPKc"
    },
    {
     "referenced_type" : "_ZTIj"
    }
   ],
   "return_type" : "_ZTIv",
   "source_file" : "bionic/libc/system_properties/include/system_properties/system_properties.h"
  },
  {
   "alignment" : 4,
   "linker_set_key" : "_ZTIFvPvPKvE",
   "name" : "void (void *, const void *)",
   "parameters" :
   [
    {
     "referenced_type" : "_ZTIPv"
    },
    {
     "referenced_type" : "_ZTIPKv"
    }
   ],
   "return_type" : "_ZTIv",
   "source_file" : "bionic/libc/include/malloc.h"
  },
  {
   "alignment" : 4,
   "linker_set_key" : "_ZTIFvPvS_E",
   "name" : "void (void *, void *)",
   "parameters" :
   [
    {
     "referenced_type" : "_ZTIPv"
    },
    {
     "referenced_type" : "_ZTIPv"
    }
   ],
   "return_type" : "_ZTIv",
   "source_file" : "bionic/libc/include/sys/thread_properties.h"
  },
  {
   "alignment" : 4,
   "linker_set_key" : "_ZTIFvPvS_jS_E",
   "name" : "void (void *, void *, unsigned int, void *)",
   "parameters" :
   [
    {
     "referenced_type" : "_ZTIPv"
    },
    {
     "referenced_type" : "_ZTIPv"
    },
    {
     "referenced_type" : "_ZTIj"
    },
    {
     "referenced_type" : "_ZTIPv"
    }
   ],
   "return_type" : "_ZTIv",
   "source_file" : "bionic/libc/include/sys/thread_properties.h"
  },
  {
   "alignment" : 4,
   "linker_set_key" : "_ZTIFviE",
   "name" : "void (int)",
   "parameters" :
   [
    {
     "referenced_type" : "_ZTIi"
    }
   ],
   "return_type" : "_ZTIv",
   "source_file" : "bionic/libc/kernel/uapi/asm-arm/asm/signal.h"
  },
  {
   "alignment" : 4,
   "linker_set_key" : "_ZTIFviP7siginfoPvE",
   "name" : "void (int, siginfo *, void *)",
   "parameters" :
   [
    {
     "referenced_type" : "_ZTIi"
    },
    {
     "referenced_type" : "_ZTIP7siginfo"
    },
    {
     "referenced_type" : "_ZTIPv"
    }
   ],
   "return_type" : "_ZTIv",
   "source_file" : "bionic/libc/kernel/uapi/asm-arm/asm/signal.h"
  },
  {
   "alignment" : 4,
   "linker_set_key" : "_ZTIFviP7siginfoPvE",
   "name" : "void (int, siginfo *, void *)",
   "parameters" :
   [
    {
     "referenced_type" : "_ZTIi"
    },
    {
     "referenced_type" : "_ZTIP7siginfo#ODR:out/soong/.intermediates/bionic/libc/libc_bionic/android_arm_armv7-a-neon_static_apex10000/0e7aadb4ccf134e3003f27a606ef3a68/obj/bionic/libc/bionic/time64.sdump"
    },
    {
     "referenced_type" : "_ZTIPv"
    }
   ],
   "return_type" : "_ZTIv",
   "self_type" : "_ZTIFviP7siginfoPvE#ODR:out/soong/.intermediates/bionic/libc/libc_bionic/android_arm_armv7-a-neon_static_apex10000/0e7aadb4ccf134e3003f27a606ef3a68/obj/bionic/libc/bionic/time64.sdump",
   "source_file" : "bionic/libc/kernel/uapi/asm-arm/asm/signal.h"
  },
  {
   "alignment" : 4,
   "linker_set_key" : "_ZTIFviP7siginfoPvE",
   "name" : "void (int, siginfo *, void *)",
   "parameters" :
   [
    {
     "referenced_type" : "_ZTIi"
    },
    {
     "referenced_type" : "_ZTIP7siginfo#ODR:out/soong/.intermediates/bionic/libc/libc_bionic/android_arm_armv7-a-neon_static_apex10000/0e7aadb4ccf134e3003f27a606ef3a68/obj/bionic/libc/stdio/parsefloat.sdump"
    },
    {
     "referenced_type" : "_ZTIPv"
    }
   ],
   "return_type" : "_ZTIv",
   "self_type" : "_ZTIFviP7siginfoPvE#ODR:out/soong/.intermediates/bionic/libc/libc_bionic/android_arm_armv7-a-neon_static_apex10000/0e7aadb4ccf134e3003f27a606ef3a68/obj/bionic/libc/stdio/parsefloat.sdump",
   "source_file" : "bionic/libc/kernel/uapi/asm-arm/asm/signal.h"
  },
  {
   "alignment" : 4,
   "linker_set_key" : "_ZTIFviP7siginfoPvE",
   "name" : "void (int, siginfo *, void *)",
   "parameters" :
   [
    {
     "referenced_type" : "_ZTIi"
    },
    {
     "referenced_type" : "_ZTIP7siginfo#ODR:out/soong/.intermediates/bionic/libc/libc_bionic/android_arm_armv7-a-neon_static_apex10000/0e7aadb4ccf134e3003f27a606ef3a68/obj/bionic/libc/stdio/refill.sdump"
    },
    {
     "referenced_type" : "_ZTIPv"
    }
   ],
   "return_type" : "_ZTIv",
   "self_type" : "_ZTIFviP7siginfoPvE#ODR:out/soong/.intermediates/bionic/libc/libc_bionic/android_arm_armv7-a-neon_static_apex10000/0e7aadb4ccf134e3003f27a606ef3a68/obj/bionic/libc/stdio/refill.sdump",
   "source_file" : "bionic/libc/kernel/uapi/asm-arm/asm/signal.h"
  },
  {
   "alignment" : 4,
   "linker_set_key" : "_ZTIFviP7siginfoPvE",
   "name" : "void (int, siginfo *, void *)",
   "parameters" :
   [
    {
     "referenced_type" : "_ZTIi"
    },
    {
     "referenced_type" : "_ZTIP7siginfo#ODR:out/soong/.intermediates/bionic/libc/libc_dns/android_arm_armv7-a-neon_static_apex10000/obj/bionic/libc/dns/nameser/ns_name.sdump"
    },
    {
     "referenced_type" : "_ZTIPv"
    }
   ],
   "return_type" : "_ZTIv",
   "self_type" : "_ZTIFviP7siginfoPvE#ODR:out/soong/.intermediates/bionic/libc/libc_dns/android_arm_armv7-a-neon_static_apex10000/obj/bionic/libc/dns/nameser/ns_name.sdump",
   "source_file" : "bionic/libc/kernel/uapi/asm-arm/asm/signal.h"
  },
  {
   "alignment" : 4,
   "linker_set_key" : "_ZTIFviP7siginfoPvE",
   "name" : "void (int, siginfo *, void *)",
   "parameters" :
   [
    {
     "referenced_type" : "_ZTIi"
    },
    {
     "referenced_type" : "_ZTIP7siginfo#ODR:out/soong/.intermediates/bionic/libc/libc_dns/android_arm_armv7-a-neon_static_apex10000/obj/bionic/libc/dns/nameser/ns_parse.sdump"
    },
    {
     "referenced_type" : "_ZTIPv"
    }
   ],
   "return_type" : "_ZTIv",
   "self_type" : "_ZTIFviP7siginfoPvE#ODR:out/soong/.intermediates/bionic/libc/libc_dns/android_arm_armv7-a-neon_static_apex10000/obj/bionic/libc/dns/nameser/ns_parse.sdump",
   "source_file" : "bionic/libc/kernel/uapi/asm-arm/asm/signal.h"
  },
  {
   "alignment" : 4,
   "linker_set_key" : "_ZTIFviP7siginfoPvE",
   "name" : "void (int, siginfo *, void *)",
   "parameters" :
   [
    {
     "referenced_type" : "_ZTIi"
    },
    {
     "referenced_type" : "_ZTIP7siginfo#ODR:out/soong/.intermediates/bionic/libc/libc_dns/android_arm_armv7-a-neon_static_apex10000/obj/bionic/libc/dns/nameser/ns_print.sdump"
    },
    {
     "referenced_type" : "_ZTIPv"
    }
   ],
   "return_type" : "_ZTIv",
   "self_type" : "_ZTIFviP7siginfoPvE#ODR:out/soong/.intermediates/bionic/libc/libc_dns/android_arm_armv7-a-neon_static_apex10000/obj/bionic/libc/dns/nameser/ns_print.sdump",
   "source_file" : "bionic/libc/kernel/uapi/asm-arm/asm/signal.h"
  },
  {
   "alignment" : 4,
   "linker_set_key" : "_ZTIFviP7siginfoPvE",
   "name" : "void (int, siginfo *, void *)",
   "parameters" :
   [
    {
     "referenced_type" : "_ZTIi"
    },
    {
     "referenced_type" : "_ZTIP7siginfo#ODR:out/soong/.intermediates/bionic/libc/libc_dns/android_arm_armv7-a-neon_static_apex10000/obj/bionic/libc/dns/net/getaddrinfo.sdump"
    },
    {
     "referenced_type" : "_ZTIPv"
    }
   ],
   "return_type" : "_ZTIv",
   "self_type" : "_ZTIFviP7siginfoPvE#ODR:out/soong/.intermediates/bionic/libc/libc_dns/android_arm_armv7-a-neon_static_apex10000/obj/bionic/libc/dns/net/getaddrinfo.sdump",
   "source_file" : "bionic/libc/kernel/uapi/asm-arm/asm/signal.h"
  },
  {
   "alignment" : 4,
   "linker_set_key" : "_ZTIFviP7siginfoPvE",
   "name" : "void (int, siginfo *, void *)",
   "parameters" :
   [
    {
     "referenced_type" : "_ZTIi"
    },
    {
     "referenced_type" : "_ZTIP7siginfo#ODR:out/soong/.intermediates/bionic/libc/libc_dns/android_arm_armv7-a-neon_static_apex10000/obj/bionic/libc/dns/resolv/res_cache.sdump"
    },
    {
     "referenced_type" : "_ZTIPv"
    }
   ],
   "return_type" : "_ZTIv",
   "self_type" : "_ZTIFviP7siginfoPvE#ODR:out/soong/.intermediates/bionic/libc/libc_dns/android_arm_armv7-a-neon_static_apex10000/obj/bionic/libc/dns/resolv/res_cache.sdump",
   "source_file" : "bionic/libc/kernel/uapi/asm-arm/asm/signal.h"
  },
  {
   "alignment" : 4,
   "linker_set_key" : "_ZTIFviP7siginfoPvE",
   "name" : "void (int, siginfo *, void *)",
   "parameters" :
   [
    {
     "referenced_type" : "_ZTIi"
    },
    {
     "referenced_type" : "_ZTIP7siginfo#ODR:out/soong/.intermediates/bionic/libc/libc_dns/android_arm_armv7-a-neon_static_apex10000/obj/bionic/libc/dns/resolv/res_data.sdump"
    },
    {
     "referenced_type" : "_ZTIPv"
    }
   ],
   "return_type" : "_ZTIv",
   "self_type" : "_ZTIFviP7siginfoPvE#ODR:out/soong/.intermediates/bionic/libc/libc_dns/android_arm_armv7-a-neon_static_apex10000/obj/bionic/libc/dns/resolv/res_data.sdump",
   "source_file" : "bionic/libc/kernel/uapi/asm-arm/asm/signal.h"
  },
  {
   "alignment" : 4,
   "linker_set_key" : "_ZTIFviP7siginfoPvE",
   "name" : "void (int, siginfo *, void *)",
   "parameters" :
   [
    {
     "referenced_type" : "_ZTIi"
    },
    {
     "referenced_type" : "_ZTIP7siginfo#ODR:out/soong/.intermediates/bionic/libc/libc_dns/android_arm_armv7-a-neon_static_apex10000/obj/bionic/libc/dns/resolv/res_send.sdump"
    },
    {
     "referenced_type" : "_ZTIPv"
    }
   ],
   "return_type" : "_ZTIv",
   "self_type" : "_ZTIFviP7siginfoPvE#ODR:out/soong/.intermediates/bionic/libc/libc_dns/android_arm_armv7-a-neon_static_apex10000/obj/bionic/libc/dns/resolv/res_send.sdump",
   "source_file" : "bionic/libc/kernel/uapi/asm-arm/asm/signal.h"
  },
  {
   "alignment" : 4,
   "linker_set_key" : "_ZTIFviP7siginfoPvE",
   "name" : "void (int, siginfo *, void *)",
   "parameters" :
   [
    {
     "referenced_type" : "_ZTIi"
    },
    {
     "referenced_type" : "_ZTIP7siginfo#ODR:out/soong/.intermediates/bionic/libc/libc_fortify/android_arm_armv7-a-neon_static_apex10000/obj/bionic/libc/bionic/fortify.sdump"
    },
    {
     "referenced_type" : "_ZTIPv"
    }
   ],
   "return_type" : "_ZTIv",
   "self_type" : "_ZTIFviP7siginfoPvE#ODR:out/soong/.intermediates/bionic/libc/libc_fortify/android_arm_armv7-a-neon_static_apex10000/obj/bionic/libc/bionic/fortify.sdump",
   "source_file" : "bionic/libc/kernel/uapi/asm-arm/asm/signal.h"
  },
  {
   "alignment" : 4,
   "linker_set_key" : "_ZTIFviP7siginfoPvE",
   "name" : "void (int, siginfo *, void *)",
   "parameters" :
   [
    {
     "referenced_type" : "_ZTIi"
    },
    {
     "referenced_type" : "_ZTIP7siginfo#ODR:out/soong/.intermediates/bionic/libc/libc_freebsd/android_arm_armv7-a-neon_static_apex10000/obj/bionic/libc/upstream-freebsd/lib/libc/stdlib/quick_exit.sdump"
    },
    {
     "referenced_type" : "_ZTIPv"
    }
   ],
   "return_type" : "_ZTIv",
   "self_type" : "_ZTIFviP7siginfoPvE#ODR:out/soong/.intermediates/bionic/libc/libc_freebsd/android_arm_armv7-a-neon_static_apex10000/obj/bionic/libc/upstream-freebsd/lib/libc/stdlib/quick_exit.sdump",
   "source_file" : "bionic/libc/kernel/uapi/asm-arm/asm/signal.h"
  },
  {
   "alignment" : 4,
   "linker_set_key" : "_ZTIFviP7siginfoPvE",
   "name" : "void (int, siginfo *, void *)",
   "parameters" :
   [
    {
     "referenced_type" : "_ZTIi"
    },
    {
     "referenced_type" : "_ZTIP7siginfo#ODR:out/soong/.intermediates/bionic/libc/libc_freebsd/android_arm_armv7-a-neon_static_apex10000/obj/bionic/libc/upstream-freebsd/lib/libc/string/wcpncpy.sdump"
    },
    {
     "referenced_type" : "_ZTIPv"
    }
   ],
   "return_type" : "_ZTIv",
   "self_type" : "_ZTIFviP7siginfoPvE#ODR:out/soong/.intermediates/bionic/libc/libc_freebsd/android_arm_armv7-a-neon_static_apex10000/obj/bionic/libc/upstream-freebsd/lib/libc/string/wcpncpy.sdump",
   "source_file" : "bionic/libc/kernel/uapi/asm-arm/asm/signal.h"
  },
  {
   "alignment" : 4,
   "linker_set_key" : "_ZTIFviP7siginfoPvE",
   "name" : "void (int, siginfo *, void *)",
   "parameters" :
   [
    {
     "referenced_type" : "_ZTIi"
    },
    {
     "referenced_type" : "_ZTIP7siginfo#ODR:out/soong/.intermediates/bionic/libc/libc_freebsd/android_arm_armv7-a-neon_static_apex10000/obj/bionic/libc/upstream-freebsd/lib/libc/string/wcsdup.sdump"
    },
    {
     "referenced_type" : "_ZTIPv"
    }
   ],
   "return_type" : "_ZTIv",
   "self_type" : "_ZTIFviP7siginfoPvE#ODR:out/soong/.intermediates/bionic/libc/libc_freebsd/android_arm_armv7-a-neon_static_apex10000/obj/bionic/libc/upstream-freebsd/lib/libc/string/wcsdup.sdump",
   "source_file" : "bionic/libc/kernel/uapi/asm-arm/asm/signal.h"
  },
  {
   "alignment" : 4,
   "linker_set_key" : "_ZTIFviP7siginfoPvE",
   "name" : "void (int, siginfo *, void *)",
   "parameters" :
   [
    {
     "referenced_type" : "_ZTIi"
    },
    {
     "referenced_type" : "_ZTIP7siginfo#ODR:out/soong/.intermediates/bionic/libc/libc_freebsd/android_arm_armv7-a-neon_static_apex10000/obj/bionic/libc/upstream-freebsd/lib/libc/string/wcsnlen.sdump"
    },
    {
     "referenced_type" : "_ZTIPv"
    }
   ],
   "return_type" : "_ZTIv",
   "self_type" : "_ZTIFviP7siginfoPvE#ODR:out/soong/.intermediates/bionic/libc/libc_freebsd/android_arm_armv7-a-neon_static_apex10000/obj/bionic/libc/upstream-freebsd/lib/libc/string/wcsnlen.sdump",
   "source_file" : "bionic/libc/kernel/uapi/asm-arm/asm/signal.h"
  },
  {
   "alignment" : 4,
   "linker_set_key" : "_ZTIFviP7siginfoPvE",
   "name" : "void (int, siginfo *, void *)",
   "parameters" :
   [
    {
     "referenced_type" : "_ZTIi"
    },
    {
     "referenced_type" : "_ZTIP7siginfo#ODR:out/soong/.intermediates/bionic/libc/libc_freebsd/android_arm_armv7-a-neon_static_apex10000/obj/bionic/libc/upstream-freebsd/lib/libc/string/wmemcmp.sdump"
    },
    {
     "referenced_type" : "_ZTIPv"
    }
   ],
   "return_type" : "_ZTIv",
   "self_type" : "_ZTIFviP7siginfoPvE#ODR:out/soong/.intermediates/bionic/libc/libc_freebsd/android_arm_armv7-a-neon_static_apex10000/obj/bionic/libc/upstream-freebsd/lib/libc/string/wmemcmp.sdump",
   "source_file" : "bionic/libc/kernel/uapi/asm-arm/asm/signal.h"
  },
  {
   "alignment" : 4,
   "linker_set_key" : "_ZTIFviP7siginfoPvE",
   "name" : "void (int, siginfo *, void *)",
   "parameters" :
   [
    {
     "referenced_type" : "_ZTIi"
    },
    {
     "referenced_type" : "_ZTIP7siginfo#ODR:out/soong/.intermediates/bionic/libc/libc_gdtoa/android_arm_armv7-a-neon_static_apex10000/obj/bionic/libc/upstream-openbsd/android/gdtoa_support.sdump"
    },
    {
     "referenced_type" : "_ZTIPv"
    }
   ],
   "return_type" : "_ZTIv",
   "self_type" : "_ZTIFviP7siginfoPvE#ODR:out/soong/.intermediates/bionic/libc/libc_gdtoa/android_arm_armv7-a-neon_static_apex10000/obj/bionic/libc/upstream-openbsd/android/gdtoa_support.sdump",
   "source_file" : "bionic/libc/kernel/uapi/asm-arm/asm/signal.h"
  },
  {
   "alignment" : 4,
   "linker_set_key" : "_ZTIFviP7siginfoPvE",
   "name" : "void (int, siginfo *, void *)",
   "parameters" :
   [
    {
     "referenced_type" : "_ZTIi"
    },
    {
     "referenced_type" : "_ZTIP7siginfo#ODR:out/soong/.intermediates/bionic/libc/libc_gdtoa/android_arm_armv7-a-neon_static_apex10000/obj/bionic/libc/upstream-openbsd/lib/libc/gdtoa/dmisc.sdump"
    },
    {
     "referenced_type" : "_ZTIPv"
    }
   ],
   "return_type" : "_ZTIv",
   "self_type" : "_ZTIFviP7siginfoPvE#ODR:out/soong/.intermediates/bionic/libc/libc_gdtoa/android_arm_armv7-a-neon_static_apex10000/obj/bionic/libc/upstream-openbsd/lib/libc/gdtoa/dmisc.sdump",
   "source_file" : "bionic/libc/kernel/uapi/asm-arm/asm/signal.h"
  },
  {
   "alignment" : 4,
   "linker_set_key" : "_ZTIFviP7siginfoPvE",
   "name" : "void (int, siginfo *, void *)",
   "parameters" :
   [
    {
     "referenced_type" : "_ZTIi"
    },
    {
     "referenced_type" : "_ZTIP7siginfo#ODR:out/soong/.intermediates/bionic/libc/libc_gdtoa/android_arm_armv7-a-neon_static_apex10000/obj/bionic/libc/upstream-openbsd/lib/libc/gdtoa/hexnan.sdump"
    },
    {
     "referenced_type" : "_ZTIPv"
    }
   ],
   "return_type" : "_ZTIv",
   "self_type" : "_ZTIFviP7siginfoPvE#ODR:out/soong/.intermediates/bionic/libc/libc_gdtoa/android_arm_armv7-a-neon_static_apex10000/obj/bionic/libc/upstream-openbsd/lib/libc/gdtoa/hexnan.sdump",
   "source_file" : "bionic/libc/kernel/uapi/asm-arm/asm/signal.h"
  },
  {
   "alignment" : 4,
   "linker_set_key" : "_ZTIFviP7siginfoPvE",
   "name" : "void (int, siginfo *, void *)",
   "parameters" :
   [
    {
     "referenced_type" : "_ZTIi"
    },
    {
     "referenced_type" : "_ZTIP7siginfo#ODR:out/soong/.intermediates/bionic/libc/libc_gdtoa/android_arm_armv7-a-neon_static_apex10000/obj/bionic/libc/upstream-openbsd/lib/libc/gdtoa/strtord.sdump"
    },
    {
     "referenced_type" : "_ZTIPv"
    }
   ],
   "return_type" : "_ZTIv",
   "self_type" : "_ZTIFviP7siginfoPvE#ODR:out/soong/.intermediates/bionic/libc/libc_gdtoa/android_arm_armv7-a-neon_static_apex10000/obj/bionic/libc/upstream-openbsd/lib/libc/gdtoa/strtord.sdump",
   "source_file" : "bionic/libc/kernel/uapi/asm-arm/asm/signal.h"
  },
  {
   "alignment" : 4,
   "linker_set_key" : "_ZTIFviP7siginfoPvE",
   "name" : "void (int, siginfo *, void *)",
   "parameters" :
   [
    {
     "referenced_type" : "_ZTIi"
    },
    {
     "referenced_type" : "_ZTIP7siginfo#ODR:out/soong/.intermediates/bionic/libc/libc_netbsd/android_arm_armv7-a-neon_static_apex10000/obj/bionic/libc/upstream-netbsd/lib/libc/inet/nsap_addr.sdump"
    },
    {
     "referenced_type" : "_ZTIPv"
    }
   ],
   "return_type" : "_ZTIv",
   "self_type" : "_ZTIFviP7siginfoPvE#ODR:out/soong/.intermediates/bionic/libc/libc_netbsd/android_arm_armv7-a-neon_static_apex10000/obj/bionic/libc/upstream-netbsd/lib/libc/inet/nsap_addr.sdump",
   "source_file" : "bionic/libc/kernel/uapi/asm-arm/asm/signal.h"
  },
  {
   "alignment" : 4,
   "linker_set_key" : "_ZTIFviP7siginfoPvE",
   "name" : "void (int, siginfo *, void *)",
   "parameters" :
   [
    {
     "referenced_type" : "_ZTIi"
    },
    {
     "referenced_type" : "_ZTIP7siginfo#ODR:out/soong/.intermediates/bionic/libc/libc_openbsd/android_arm_armv7-a-neon_static_apex10000/obj/bionic/libc/upstream-openbsd/lib/libc/crypt/arc4random.sdump"
    },
    {
     "referenced_type" : "_ZTIPv"
    }
   ],
   "return_type" : "_ZTIv",
   "self_type" : "_ZTIFviP7siginfoPvE#ODR:out/soong/.intermediates/bionic/libc/libc_openbsd/android_arm_armv7-a-neon_static_apex10000/obj/bionic/libc/upstream-openbsd/lib/libc/crypt/arc4random.sdump",
   "source_file" : "bionic/libc/kernel/uapi/asm-arm/asm/signal.h"
  },
  {
   "alignment" : 4,
   "linker_set_key" : "_ZTIFviP7siginfoPvE",
   "name" : "void (int, siginfo *, void *)",
   "parameters" :
   [
    {
     "referenced_type" : "_ZTIi"
    },
    {
     "referenced_type" : "_ZTIP7siginfo#ODR:out/soong/.intermediates/bionic/libc/libc_openbsd/android_arm_armv7-a-neon_static_apex10000/obj/bionic/libc/upstream-openbsd/lib/libc/gen/alarm.sdump"
    },
    {
     "referenced_type" : "_ZTIPv"
    }
   ],
   "return_type" : "_ZTIv",
   "self_type" : "_ZTIFviP7siginfoPvE#ODR:out/soong/.intermediates/bionic/libc/libc_openbsd/android_arm_armv7-a-neon_static_apex10000/obj/bionic/libc/upstream-openbsd/lib/libc/gen/alarm.sdump",
   "source_file" : "bionic/libc/kernel/uapi/asm-arm/asm/signal.h"
  },
  {
   "alignment" : 4,
   "linker_set_key" : "_ZTIFviP7siginfoPvE",
   "name" : "void (int, siginfo *, void *)",
   "parameters" :
   [
    {
     "referenced_type" : "_ZTIi"
    },
    {
     "referenced_type" : "_ZTIP7siginfo#ODR:out/soong/.intermediates/bionic/libc/libc_openbsd/android_arm_armv7-a-neon_static_apex10000/obj/bionic/libc/upstream-openbsd/lib/libc/gen/getprogname.sdump"
    },
    {
     "referenced_type" : "_ZTIPv"
    }
   ],
   "return_type" : "_ZTIv",
   "self_type" : "_ZTIFviP7siginfoPvE#ODR:out/soong/.intermediates/bionic/libc/libc_openbsd/android_arm_armv7-a-neon_static_apex10000/obj/bionic/libc/upstream-openbsd/lib/libc/gen/getprogname.sdump",
   "source_file" : "bionic/libc/kernel/uapi/asm-arm/asm/signal.h"
  },
  {
   "alignment" : 4,
   "linker_set_key" : "_ZTIFviP7siginfoPvE",
   "name" : "void (int, siginfo *, void *)",
   "parameters" :
   [
    {
     "referenced_type" : "_ZTIi"
    },
    {
     "referenced_type" : "_ZTIP7siginfo#ODR:out/soong/.intermediates/bionic/libc/libc_openbsd/android_arm_armv7-a-neon_static_apex10000/obj/bionic/libc/upstream-openbsd/lib/libc/gen/warnx.sdump"
    },
    {
     "referenced_type" : "_ZTIPv"
    }
   ],
   "return_type" : "_ZTIv",
   "self_type" : "_ZTIFviP7siginfoPvE#ODR:out/soong/.intermediates/bionic/libc/libc_openbsd/android_arm_armv7-a-neon_static_apex10000/obj/bionic/libc/upstream-openbsd/lib/libc/gen/warnx.sdump",
   "source_file" : "bionic/libc/kernel/uapi/asm-arm/asm/signal.h"
  },
  {
   "alignment" : 4,
   "linker_set_key" : "_ZTIFviP7siginfoPvE",
   "name" : "void (int, siginfo *, void *)",
   "parameters" :
   [
    {
     "referenced_type" : "_ZTIi"
    },
    {
     "referenced_type" : "_ZTIP7siginfo#ODR:out/soong/.intermediates/bionic/libc/libc_openbsd/android_arm_armv7-a-neon_static_apex10000/obj/bionic/libc/upstream-openbsd/lib/libc/locale/wcsxfrm.sdump"
    },
    {
     "referenced_type" : "_ZTIPv"
    }
   ],
   "return_type" : "_ZTIv",
   "self_type" : "_ZTIFviP7siginfoPvE#ODR:out/soong/.intermediates/bionic/libc/libc_openbsd/android_arm_armv7-a-neon_static_apex10000/obj/bionic/libc/upstream-openbsd/lib/libc/locale/wcsxfrm.sdump",
   "source_file" : "bionic/libc/kernel/uapi/asm-arm/asm/signal.h"
  },
  {
   "alignment" : 4,
   "linker_set_key" : "_ZTIFviP7siginfoPvE",
   "name" : "void (int, siginfo *, void *)",
   "parameters" :
   [
    {
     "referenced_type" : "_ZTIi"
    },
    {
     "referenced_type" : "_ZTIP7siginfo#ODR:out/soong/.intermediates/bionic/libc/libc_openbsd/android_arm_armv7-a-neon_static_apex10000/obj/bionic/libc/upstream-openbsd/lib/libc/net/inet_makeaddr.sdump"
    },
    {
     "referenced_type" : "_ZTIPv"
    }
   ],
   "return_type" : "_ZTIv",
   "self_type" : "_ZTIFviP7siginfoPvE#ODR:out/soong/.intermediates/bionic/libc/libc_openbsd/android_arm_armv7-a-neon_static_apex10000/obj/bionic/libc/upstream-openbsd/lib/libc/net/inet_makeaddr.sdump",
   "source_file" : "bionic/libc/kernel/uapi/asm-arm/asm/signal.h"
  },
  {
   "alignment" : 4,
   "linker_set_key" : "_ZTIFviP7siginfoPvE",
   "name" : "void (int, siginfo *, void *)",
   "parameters" :
   [
    {
     "referenced_type" : "_ZTIi"
    },
    {
     "referenced_type" : "_ZTIP7siginfo#ODR:out/soong/.intermediates/bionic/libc/libc_openbsd/android_arm_armv7-a-neon_static_apex10000/obj/bionic/libc/upstream-openbsd/lib/libc/net/res_random.sdump"
    },
    {
     "referenced_type" : "_ZTIPv"
    }
   ],
   "return_type" : "_ZTIv",
   "self_type" : "_ZTIFviP7siginfoPvE#ODR:out/soong/.intermediates/bionic/libc/libc_openbsd/android_arm_armv7-a-neon_static_apex10000/obj/bionic/libc/upstream-openbsd/lib/libc/net/res_random.sdump",
   "source_file" : "bionic/libc/kernel/uapi/asm-arm/asm/signal.h"
  },
  {
   "alignment" : 4,
   "linker_set_key" : "_ZTIFviP7siginfoPvE",
   "name" : "void (int, siginfo *, void *)",
   "parameters" :
   [
    {
     "referenced_type" : "_ZTIi"
    },
    {
     "referenced_type" : "_ZTIP7siginfo#ODR:out/soong/.intermediates/bionic/libc/libc_openbsd/android_arm_armv7-a-neon_static_apex10000/obj/bionic/libc/upstream-openbsd/lib/libc/stdio/fputws.sdump"
    },
    {
     "referenced_type" : "_ZTIPv"
    }
   ],
   "return_type" : "_ZTIv",
   "self_type" : "_ZTIFviP7siginfoPvE#ODR:out/soong/.intermediates/bionic/libc/libc_openbsd/android_arm_armv7-a-neon_static_apex10000/obj/bionic/libc/upstream-openbsd/lib/libc/stdio/fputws.sdump",
   "source_file" : "bionic/libc/kernel/uapi/asm-arm/asm/signal.h"
  },
  {
   "alignment" : 4,
   "linker_set_key" : "_ZTIFviP7siginfoPvE",
   "name" : "void (int, siginfo *, void *)",
   "parameters" :
   [
    {
     "referenced_type" : "_ZTIi"
    },
    {
     "referenced_type" : "_ZTIP7siginfo#ODR:out/soong/.intermediates/bionic/libc/libc_openbsd/android_arm_armv7-a-neon_static_apex10000/obj/bionic/libc/upstream-openbsd/lib/libc/stdio/open_memstream.sdump"
    },
    {
     "referenced_type" : "_ZTIPv"
    }
   ],
   "return_type" : "_ZTIv",
   "self_type" : "_ZTIFviP7siginfoPvE#ODR:out/soong/.intermediates/bionic/libc/libc_openbsd/android_arm_armv7-a-neon_static_apex10000/obj/bionic/libc/upstream-openbsd/lib/libc/stdio/open_memstream.sdump",
   "source_file" : "bionic/libc/kernel/uapi/asm-arm/asm/signal.h"
  },
  {
   "alignment" : 4,
   "linker_set_key" : "_ZTIFviP7siginfoPvE",
   "name" : "void (int, siginfo *, void *)",
   "parameters" :
   [
    {
     "referenced_type" : "_ZTIi"
    },
    {
     "referenced_type" : "_ZTIP7siginfo#ODR:out/soong/.intermediates/bionic/libc/libc_openbsd/android_arm_armv7-a-neon_static_apex10000/obj/bionic/libc/upstream-openbsd/lib/libc/stdio/vdprintf.sdump"
    },
    {
     "referenced_type" : "_ZTIPv"
    }
   ],
   "return_type" : "_ZTIv",
   "self_type" : "_ZTIFviP7siginfoPvE#ODR:out/soong/.intermediates/bionic/libc/libc_openbsd/android_arm_armv7-a-neon_static_apex10000/obj/bionic/libc/upstream-openbsd/lib/libc/stdio/vdprintf.sdump",
   "source_file" : "bionic/libc/kernel/uapi/asm-arm/asm/signal.h"
  },
  {
   "alignment" : 4,
   "linker_set_key" : "_ZTIFviP7siginfoPvE",
   "name" : "void (int, siginfo *, void *)",
   "parameters" :
   [
    {
     "referenced_type" : "_ZTIi"
    },
    {
     "referenced_type" : "_ZTIP7siginfo#ODR:out/soong/.intermediates/bionic/libc/libc_openbsd/android_arm_armv7-a-neon_static_apex10000/obj/bionic/libc/upstream-openbsd/lib/libc/stdlib/div.sdump"
    },
    {
     "referenced_type" : "_ZTIPv"
    }
   ],
   "return_type" : "_ZTIv",
   "self_type" : "_ZTIFviP7siginfoPvE#ODR:out/soong/.intermediates/bionic/libc/libc_openbsd/android_arm_armv7-a-neon_static_apex10000/obj/bionic/libc/upstream-openbsd/lib/libc/stdlib/div.sdump",
   "source_file" : "bionic/libc/kernel/uapi/asm-arm/asm/signal.h"
  },
  {
   "alignment" : 4,
   "linker_set_key" : "_ZTIFviP7siginfoPvE",
   "name" : "void (int, siginfo *, void *)",
   "parameters" :
   [
    {
     "referenced_type" : "_ZTIi"
    },
    {
     "referenced_type" : "_ZTIP7siginfo#ODR:out/soong/.intermediates/bionic/libc/libc_openbsd/android_arm_armv7-a-neon_static_apex10000/obj/bionic/libc/upstream-openbsd/lib/libc/stdlib/ldiv.sdump"
    },
    {
     "referenced_type" : "_ZTIPv"
    }
   ],
   "return_type" : "_ZTIv",
   "self_type" : "_ZTIFviP7siginfoPvE#ODR:out/soong/.intermediates/bionic/libc/libc_openbsd/android_arm_armv7-a-neon_static_apex10000/obj/bionic/libc/upstream-openbsd/lib/libc/stdlib/ldiv.sdump",
   "source_file" : "bionic/libc/kernel/uapi/asm-arm/asm/signal.h"
  },
  {
   "alignment" : 4,
   "linker_set_key" : "_ZTIFviP7siginfoPvE",
   "name" : "void (int, siginfo *, void *)",
   "parameters" :
   [
    {
     "referenced_type" : "_ZTIi"
    },
    {
     "referenced_type" : "_ZTIP7siginfo#ODR:out/soong/.intermediates/bionic/libc/libc_openbsd/android_arm_armv7-a-neon_static_apex10000/obj/bionic/libc/upstream-openbsd/lib/libc/stdlib/tfind.sdump"
    },
    {
     "referenced_type" : "_ZTIPv"
    }
   ],
   "return_type" : "_ZTIv",
   "self_type" : "_ZTIFviP7siginfoPvE#ODR:out/soong/.intermediates/bionic/libc/libc_openbsd/android_arm_armv7-a-neon_static_apex10000/obj/bionic/libc/upstream-openbsd/lib/libc/stdlib/tfind.sdump",
   "source_file" : "bionic/libc/kernel/uapi/asm-arm/asm/signal.h"
  },
  {
   "alignment" : 4,
   "linker_set_key" : "_ZTIFviP7siginfoPvE",
   "name" : "void (int, siginfo *, void *)",
   "parameters" :
   [
    {
     "referenced_type" : "_ZTIi"
    },
    {
     "referenced_type" : "_ZTIP7siginfo#ODR:out/soong/.intermediates/bionic/libc/libc_openbsd/android_arm_armv7-a-neon_static_apex10000/obj/bionic/libc/upstream-openbsd/lib/libc/string/strdup.sdump"
    },
    {
     "referenced_type" : "_ZTIPv"
    }
   ],
   "return_type" : "_ZTIv",
   "self_type" : "_ZTIFviP7siginfoPvE#ODR:out/soong/.intermediates/bionic/libc/libc_openbsd/android_arm_armv7-a-neon_static_apex10000/obj/bionic/libc/upstream-openbsd/lib/libc/string/strdup.sdump",
   "source_file" : "bionic/libc/kernel/uapi/asm-arm/asm/signal.h"
  },
  {
   "alignment" : 4,
   "linker_set_key" : "_ZTIFviP7siginfoPvE",
   "name" : "void (int, siginfo *, void *)",
   "parameters" :
   [
    {
     "referenced_type" : "_ZTIi"
    },
    {
     "referenced_type" : "_ZTIP7siginfo#ODR:out/soong/.intermediates/bionic/libc/libc_openbsd/android_arm_armv7-a-neon_static_apex10000/obj/bionic/libc/upstream-openbsd/lib/libc/string/strlcpy.sdump"
    },
    {
     "referenced_type" : "_ZTIPv"
    }
   ],
   "return_type" : "_ZTIv",
   "self_type" : "_ZTIFviP7siginfoPvE#ODR:out/soong/.intermediates/bionic/libc/libc_openbsd/android_arm_armv7-a-neon_static_apex10000/obj/bionic/libc/upstream-openbsd/lib/libc/string/strlcpy.sdump",
   "source_file" : "bionic/libc/kernel/uapi/asm-arm/asm/signal.h"
  },
  {
   "alignment" : 4,
   "linker_set_key" : "_ZTIFviP7siginfoPvE",
   "name" : "void (int, siginfo *, void *)",
   "parameters" :
   [
    {
     "referenced_type" : "_ZTIi"
    },
    {
     "referenced_type" : "_ZTIP7siginfo#ODR:out/soong/.intermediates/bionic/libc/libc_openbsd/android_arm_armv7-a-neon_static_apex10000/obj/bionic/libc/upstream-openbsd/lib/libc/string/wcslcpy.sdump"
    },
    {
     "referenced_type" : "_ZTIPv"
    }
   ],
   "return_type" : "_ZTIv",
   "self_type" : "_ZTIFviP7siginfoPvE#ODR:out/soong/.intermediates/bionic/libc/libc_openbsd/android_arm_armv7-a-neon_static_apex10000/obj/bionic/libc/upstream-openbsd/lib/libc/string/wcslcpy.sdump",
   "source_file" : "bionic/libc/kernel/uapi/asm-arm/asm/signal.h"
  },
  {
   "alignment" : 4,
   "linker_set_key" : "_ZTIFviP7siginfoPvE",
   "name" : "void (int, siginfo *, void *)",
   "parameters" :
   [
    {
     "referenced_type" : "_ZTIi"
    },
    {
     "referenced_type" : "_ZTIP7siginfo#ODR:out/soong/.intermediates/bionic/libc/libc_openbsd_large_stack/android_arm_armv7-a-neon_static_apex10000/obj/bionic/libc/stdio/vfprintf.sdump"
    },
    {
     "referenced_type" : "_ZTIPv"
    }
   ],
   "return_type" : "_ZTIv",
   "self_type" : "_ZTIFviP7siginfoPvE#ODR:out/soong/.intermediates/bionic/libc/libc_openbsd_large_stack/android_arm_armv7-a-neon_static_apex10000/obj/bionic/libc/stdio/vfprintf.sdump",
   "source_file" : "bionic/libc/kernel/uapi/asm-arm/asm/signal.h"
  },
  {
   "alignment" : 4,
   "linker_set_key" : "_ZTIFviP7siginfoPvE",
   "name" : "void (int, siginfo *, void *)",
   "parameters" :
   [
    {
     "referenced_type" : "_ZTIi"
    },
    {
     "referenced_type" : "_ZTIP7siginfo#ODR:out/soong/.intermediates/bionic/libc/libc_openbsd_large_stack/android_arm_armv7-a-neon_static_apex10000/obj/bionic/libc/stdio/vfwprintf.sdump"
    },
    {
     "referenced_type" : "_ZTIPv"
    }
   ],
   "return_type" : "_ZTIv",
   "self_type" : "_ZTIFviP7siginfoPvE#ODR:out/soong/.intermediates/bionic/libc/libc_openbsd_large_stack/android_arm_armv7-a-neon_static_apex10000/obj/bionic/libc/stdio/vfwprintf.sdump",
   "source_file" : "bionic/libc/kernel/uapi/asm-arm/asm/signal.h"
  },
  {
   "alignment" : 4,
   "linker_set_key" : "_ZTIFviP7siginfoPvE",
   "name" : "void (int, siginfo *, void *)",
   "parameters" :
   [
    {
     "referenced_type" : "_ZTIi"
    },
    {
     "referenced_type" : "_ZTIP7siginfo#ODR:out/soong/.intermediates/bionic/libc/libc_openbsd_large_stack/android_arm_armv7-a-neon_static_apex10000/obj/bionic/libc/upstream-openbsd/lib/libc/string/strstr.sdump"
    },
    {
     "referenced_type" : "_ZTIPv"
    }
   ],
   "return_type" : "_ZTIv",
   "self_type" : "_ZTIFviP7siginfoPvE#ODR:out/soong/.intermediates/bionic/libc/libc_openbsd_large_stack/android_arm_armv7-a-neon_static_apex10000/obj/bionic/libc/upstream-openbsd/lib/libc/string/strstr.sdump",
   "source_file" : "bionic/libc/kernel/uapi/asm-arm/asm/signal.h"
  },
  {
   "alignment" : 4,
   "linker_set_key" : "_ZTIFviP7siginfoPvE",
   "name" : "void (int, siginfo *, void *)",
   "parameters" :
   [
    {
     "referenced_type" : "_ZTIi"
    },
    {
     "referenced_type" : "_ZTIP7siginfo#ODR:out/soong/.intermediates/bionic/libc/libc_tzcode/android_arm_armv7-a-neon_static_apex10000/obj/bionic/libc/upstream-freebsd/lib/libc/locale/wcsftime.sdump"
    },
    {
     "referenced_type" : "_ZTIPv"
    }
   ],
   "return_type" : "_ZTIv",
   "self_type" : "_ZTIFviP7siginfoPvE#ODR:out/soong/.intermediates/bionic/libc/libc_tzcode/android_arm_armv7-a-neon_static_apex10000/obj/bionic/libc/upstream-freebsd/lib/libc/locale/wcsftime.sdump",
   "source_file" : "bionic/libc/kernel/uapi/asm-arm/asm/signal.h"
  },
  {
   "alignment" : 4,
   "linker_set_key" : "_ZTIFvvE",
   "name" : "void ()",
   "return_type" : "_ZTIv",
   "source_file" : "bionic/libc/kernel/uapi/asm-arm/asm/signal.h"
  },
  {
   "alignment" : 4,
   "linker_set_key" : "_ZTIFxPvxiE",
   "name" : "long long (void *, long long, int)",
   "parameters" :
   [
    {
     "referenced_type" : "_ZTIPv"
    },
    {
     "referenced_type" : "_ZTIx"
    },
    {
     "referenced_type" : "_ZTIi"
    }
   ],
   "return_type" : "_ZTIx",
   "source_file" : "bionic/libc/include/stdio.h"
  }
 ],
 "functions" :
 [
  {
   "function_name" : "_Fork",
   "linker_set_key" : "_Fork",
   "return_type" : "_ZTIi",
   "source_file" : "bionic/libc/include/unistd.h"
  },
  {
   "function_name" : "__FD_CLR_chk",
   "linker_set_key" : "__FD_CLR_chk",
   "parameters" :
   [
    {
     "referenced_type" : "_ZTIi"
    },
    {
     "referenced_type" : "_ZTIP6fd_set"
    },
    {
     "referenced_type" : "_ZTIj"
    }
   ],
   "return_type" : "_ZTIv",
   "source_file" : "bionic/libc/include/sys/select.h"
  },
  {
   "function_name" : "__FD_ISSET_chk",
   "linker_set_key" : "__FD_ISSET_chk",
   "parameters" :
   [
    {
     "referenced_type" : "_ZTIi"
    },
    {
     "referenced_type" : "_ZTIPK6fd_set"
    },
    {
     "referenced_type" : "_ZTIj"
    }
   ],
   "return_type" : "_ZTIi",
   "source_file" : "bionic/libc/include/sys/select.h"
  },
  {
   "function_name" : "__FD_SET_chk",
   "linker_set_key" : "__FD_SET_chk",
   "parameters" :
   [
    {
     "referenced_type" : "_ZTIi"
    },
    {
     "referenced_type" : "_ZTIP6fd_set"
    },
    {
     "referenced_type" : "_ZTIj"
    }
   ],
   "return_type" : "_ZTIv",
   "source_file" : "bionic/libc/include/sys/select.h"
  },
  {
   "function_name" : "__assert",
   "linker_set_key" : "__assert",
   "parameters" :
   [
    {
     "referenced_type" : "_ZTIPKc"
    },
    {
     "referenced_type" : "_ZTIi"
    },
    {
     "referenced_type" : "_ZTIPKc"
    }
   ],
   "return_type" : "_ZTIv",
   "source_file" : "bionic/libc/include/assert.h"
  },
  {
   "function_name" : "__assert2",
   "linker_set_key" : "__assert2",
   "parameters" :
   [
    {
     "referenced_type" : "_ZTIPKc"
    },
    {
     "referenced_type" : "_ZTIi"
    },
    {
     "referenced_type" : "_ZTIPKc"
    },
    {
     "referenced_type" : "_ZTIPKc"
    }
   ],
   "return_type" : "_ZTIv",
   "source_file" : "bionic/libc/include/assert.h"
  },
  {
   "function_name" : "__b64_ntop",
   "linker_set_key" : "__b64_ntop",
   "parameters" :
   [
    {
     "referenced_type" : "_ZTIPKh"
    },
    {
     "referenced_type" : "_ZTIj"
    },
    {
     "referenced_type" : "_ZTIPc"
    },
    {
     "referenced_type" : "_ZTIj"
    }
   ],
   "return_type" : "_ZTIi",
   "source_file" : "bionic/libc/include/resolv.h"
  },
  {
   "function_name" : "__b64_pton",
   "linker_set_key" : "__b64_pton",
   "parameters" :
   [
    {
     "referenced_type" : "_ZTIPKc"
    },
    {
     "referenced_type" : "_ZTIPh"
    },
    {
     "referenced_type" : "_ZTIj"
    }
   ],
   "return_type" : "_ZTIi",
   "source_file" : "bionic/libc/include/resolv.h"
  },
  {
   "function_name" : "__cmsg_nxthdr",
   "linker_set_key" : "__cmsg_nxthdr",
   "parameters" :
   [
    {
     "referenced_type" : "_ZTIP6msghdr"
    },
    {
     "referenced_type" : "_ZTIP7cmsghdr"
    }
   ],
   "return_type" : "_ZTIP7cmsghdr",
   "source_file" : "bionic/libc/include/sys/socket.h"
  },
  {
   "function_name" : "__ctype_get_mb_cur_max",
   "linker_set_key" : "__ctype_get_mb_cur_max",
   "return_type" : "_ZTIj",
   "source_file" : "bionic/libc/include/stdlib.h"
  },
  {
   "function_name" : "__dn_comp",
   "linker_set_key" : "__dn_comp",
   "parameters" :
   [
    {
     "referenced_type" : "_ZTIPKc"
    },
    {
     "referenced_type" : "_ZTIPh"
    },
    {
     "referenced_type" : "_ZTIi"
    },
    {
     "referenced_type" : "_ZTIPPh"
    },
    {
     "referenced_type" : "_ZTIPPh"
    }
   ],
   "return_type" : "_ZTIi",
   "source_file" : "bionic/libc/include/resolv.h"
  },
  {
   "function_name" : "__errno",
   "linker_set_key" : "__errno",
   "return_type" : "_ZTIPi",
   "source_file" : "bionic/libc/include/errno.h"
  },
  {
   "function_name" : "__fbufsize",
   "linker_set_key" : "__fbufsize",
   "parameters" :
   [
    {
     "referenced_type" : "_ZTIP7__sFILE"
    }
   ],
   "return_type" : "_ZTIj",
   "source_file" : "bionic/libc/include/stdio_ext.h"
  },
  {
   "function_name" : "__fgets_chk",
   "linker_set_key" : "__fgets_chk",
   "parameters" :
   [
    {
     "referenced_type" : "_ZTIPc"
    },
    {
     "referenced_type" : "_ZTIi"
    },
    {
     "referenced_type" : "_ZTIP7__sFILE"
    },
    {
     "referenced_type" : "_ZTIj"
    }
   ],
   "return_type" : "_ZTIPc",
   "source_file" : "bionic/libc/include/bits/fortify/stdio.h"
  },
  {
   "function_name" : "__flbf",
   "linker_set_key" : "__flbf",
   "parameters" :
   [
    {
     "referenced_type" : "_ZTIP7__sFILE"
    }
   ],
   "return_type" : "_ZTIi",
   "source_file" : "bionic/libc/include/stdio_ext.h"
  },
  {
   "function_name" : "__fpending",
   "linker_set_key" : "__fpending",
   "parameters" :
   [
    {
     "referenced_type" : "_ZTIP7__sFILE"
    }
   ],
   "return_type" : "_ZTIj",
   "source_file" : "bionic/libc/include/stdio_ext.h"
  },
  {
   "function_name" : "__fpurge",
   "linker_set_key" : "__fpurge",
   "parameters" :
   [
    {
     "referenced_type" : "_ZTIP7__sFILE"
    }
   ],
   "return_type" : "_ZTIv",
   "source_file" : "bionic/libc/include/stdio_ext.h"
  },
  {
   "function_name" : "__fread_chk",
   "linker_set_key" : "__fread_chk",
   "parameters" :
   [
    {
     "referenced_type" : "_ZTIPv"
    },
    {
     "referenced_type" : "_ZTIj"
    },
    {
     "referenced_type" : "_ZTIj"
    },
    {
     "referenced_type" : "_ZTIP7__sFILE"
    },
    {
     "referenced_type" : "_ZTIj"
    }
   ],
   "return_type" : "_ZTIj",
   "source_file" : "bionic/libc/include/bits/fortify/stdio.h"
  },
  {
   "function_name" : "__freadable",
   "linker_set_key" : "__freadable",
   "parameters" :
   [
    {
     "referenced_type" : "_ZTIP7__sFILE"
    }
   ],
   "return_type" : "_ZTIi",
   "source_file" : "bionic/libc/include/stdio_ext.h"
  },
  {
   "function_name" : "__freadahead",
   "linker_set_key" : "__freadahead",
   "parameters" :
   [
    {
     "referenced_type" : "_ZTIP7__sFILE"
    }
   ],
   "return_type" : "_ZTIj",
   "source_file" : "bionic/libc/include/stdio_ext.h"
  },
  {
   "function_name" : "__freading",
   "linker_set_key" : "__freading",
   "parameters" :
   [
    {
     "referenced_type" : "_ZTIP7__sFILE"
    }
   ],
   "return_type" : "_ZTIi",
   "source_file" : "bionic/libc/include/stdio_ext.h"
  },
  {
   "function_name" : "__fseterr",
   "linker_set_key" : "__fseterr",
   "parameters" :
   [
    {
     "referenced_type" : "_ZTIP7__sFILE"
    }
   ],
   "return_type" : "_ZTIv",
   "source_file" : "bionic/libc/include/stdio_ext.h"
  },
  {
   "function_name" : "__fsetlocking",
   "linker_set_key" : "__fsetlocking",
   "parameters" :
   [
    {
     "referenced_type" : "_ZTIP7__sFILE"
    },
    {
     "referenced_type" : "_ZTIi"
    }
   ],
   "return_type" : "_ZTIi",
   "source_file" : "bionic/libc/include/stdio_ext.h"
  },
  {
   "function_name" : "__fwritable",
   "linker_set_key" : "__fwritable",
   "parameters" :
   [
    {
     "referenced_type" : "_ZTIP7__sFILE"
    }
   ],
   "return_type" : "_ZTIi",
   "source_file" : "bionic/libc/include/stdio_ext.h"
  },
  {
   "function_name" : "__fwrite_chk",
   "linker_set_key" : "__fwrite_chk",
   "parameters" :
   [
    {
     "referenced_type" : "_ZTIPKv"
    },
    {
     "referenced_type" : "_ZTIj"
    },
    {
     "referenced_type" : "_ZTIj"
    },
    {
     "referenced_type" : "_ZTIP7__sFILE"
    },
    {
     "referenced_type" : "_ZTIj"
    }
   ],
   "return_type" : "_ZTIj",
   "source_file" : "bionic/libc/include/bits/fortify/stdio.h"
  },
  {
   "function_name" : "__fwriting",
   "linker_set_key" : "__fwriting",
   "parameters" :
   [
    {
     "referenced_type" : "_ZTIP7__sFILE"
    }
   ],
   "return_type" : "_ZTIi",
   "source_file" : "bionic/libc/include/stdio_ext.h"
  },
  {
   "function_name" : "__get_h_errno",
   "linker_set_key" : "__get_h_errno",
   "return_type" : "_ZTIPi",
   "source_file" : "bionic/libc/include/netdb.h"
  },
  {
   "function_name" : "__getcwd_chk",
   "linker_set_key" : "__getcwd_chk",
   "parameters" :
   [
    {
     "referenced_type" : "_ZTIPc"
    },
    {
     "referenced_type" : "_ZTIj"
    },
    {
     "referenced_type" : "_ZTIj"
    }
   ],
   "return_type" : "_ZTIPc",
   "source_file" : "bionic/libc/include/bits/fortify/unistd.h"
  },
  {
   "function_name" : "__libc_current_sigrtmax",
   "linker_set_key" : "__libc_current_sigrtmax",
   "return_type" : "_ZTIi",
   "source_file" : "bionic/libc/include/signal.h"
  },
  {
   "function_name" : "__libc_current_sigrtmin",
   "linker_set_key" : "__libc_current_sigrtmin",
   "return_type" : "_ZTIi",
   "source_file" : "bionic/libc/include/signal.h"
  },
  {
   "function_name" : "__libc_get_static_tls_bounds",
   "linker_set_key" : "__libc_get_static_tls_bounds",
   "parameters" :
   [
    {
     "referenced_type" : "_ZTIPPv"
    },
    {
     "referenced_type" : "_ZTIPPv"
    }
   ],
   "return_type" : "_ZTIv",
   "source_file" : "bionic/libc/include/sys/thread_properties.h"
  },
  {
   "function_name" : "__libc_iterate_dynamic_tls",
   "linker_set_key" : "__libc_iterate_dynamic_tls",
   "parameters" :
   [
    {
     "referenced_type" : "_ZTIi"
    },
    {
     "referenced_type" : "_ZTIPFvPvS_jS_E"
    },
    {
     "referenced_type" : "_ZTIPv"
    }
   ],
   "return_type" : "_ZTIv",
   "source_file" : "bionic/libc/include/sys/thread_properties.h"
  },
  {
   "function_name" : "__libc_register_dynamic_tls_listeners",
   "linker_set_key" : "__libc_register_dynamic_tls_listeners",
   "parameters" :
   [
    {
     "referenced_type" : "_ZTIPFvPvS_E"
    },
    {
     "referenced_type" : "_ZTIPFvPvS_E"
    }
   ],
   "return_type" : "_ZTIv",
   "source_file" : "bionic/libc/include/sys/thread_properties.h"
  },
  {
   "function_name" : "__libc_register_thread_exit_callback",
   "linker_set_key" : "__libc_register_thread_exit_callback",
   "parameters" :
   [
    {
     "referenced_type" : "_ZTIPFvvE"
    }
   ],
   "return_type" : "_ZTIv",
   "source_file" : "bionic/libc/include/sys/thread_properties.h"
  },
  {
   "function_name" : "__memchr_chk",
   "linker_set_key" : "__memchr_chk",
   "parameters" :
   [
    {
     "referenced_type" : "_ZTIPKv"
    },
    {
     "referenced_type" : "_ZTIi"
    },
    {
     "referenced_type" : "_ZTIj"
    },
    {
     "referenced_type" : "_ZTIj"
    }
   ],
   "return_type" : "_ZTIPv",
   "source_file" : "bionic/libc/include/bits/fortify/string.h"
  },
  {
   "function_name" : "__memrchr_chk",
   "linker_set_key" : "__memrchr_chk",
   "parameters" :
   [
    {
     "referenced_type" : "_ZTIPKv"
    },
    {
     "referenced_type" : "_ZTIi"
    },
    {
     "referenced_type" : "_ZTIj"
    },
    {
     "referenced_type" : "_ZTIj"
    }
   ],
   "return_type" : "_ZTIPv",
   "source_file" : "bionic/libc/include/bits/fortify/string.h"
  },
  {
   "function_name" : "__ns_format_ttl",
   "linker_set_key" : "__ns_format_ttl",
   "parameters" :
   [
    {
     "referenced_type" : "_ZTIm"
    },
    {
     "referenced_type" : "_ZTIPc"
    },
    {
     "referenced_type" : "_ZTIj"
    }
   ],
   "return_type" : "_ZTIi",
   "source_file" : "bionic/libc/include/arpa/nameser.h"
  },
  {
   "function_name" : "__ns_get16",
   "linker_set_key" : "__ns_get16",
   "parameters" :
   [
    {
     "referenced_type" : "_ZTIPKh"
    }
   ],
   "return_type" : "_ZTIt",
   "source_file" : "bionic/libc/include/arpa/nameser.h"
  },
  {
   "function_name" : "__ns_get32",
   "linker_set_key" : "__ns_get32",
   "parameters" :
   [
    {
     "referenced_type" : "_ZTIPKh"
    }
   ],
   "return_type" : "_ZTIj",
   "source_file" : "bionic/libc/include/arpa/nameser.h"
  },
  {
   "function_name" : "__ns_initparse",
   "linker_set_key" : "__ns_initparse",
   "parameters" :
   [
    {
     "referenced_type" : "_ZTIPKh"
    },
    {
     "referenced_type" : "_ZTIi"
    },
    {
     "referenced_type" : "_ZTIP8__ns_msg"
    }
   ],
   "return_type" : "_ZTIi",
   "source_file" : "bionic/libc/include/arpa/nameser.h"
  },
  {
   "function_name" : "__ns_makecanon",
   "linker_set_key" : "__ns_makecanon",
   "parameters" :
   [
    {
     "referenced_type" : "_ZTIPKc"
    },
    {
     "referenced_type" : "_ZTIPc"
    },
    {
     "referenced_type" : "_ZTIj"
    }
   ],
   "return_type" : "_ZTIi",
   "source_file" : "bionic/libc/include/arpa/nameser.h"
  },
  {
   "function_name" : "__ns_msg_getflag",
   "linker_set_key" : "__ns_msg_getflag",
   "parameters" :
   [
    {
     "referenced_type" : "_ZTI8__ns_msg"
    },
    {
     "referenced_type" : "_ZTIi"
    }
   ],
   "return_type" : "_ZTIi",
   "source_file" : "bionic/libc/include/arpa/nameser.h"
  },
  {
   "function_name" : "__ns_name_compress",
   "linker_set_key" : "__ns_name_compress",
   "parameters" :
   [
    {
     "referenced_type" : "_ZTIPKc"
    },
    {
     "referenced_type" : "_ZTIPh"
    },
    {
     "referenced_type" : "_ZTIj"
    },
    {
     "referenced_type" : "_ZTIPPKh"
    },
    {
     "referenced_type" : "_ZTIPPKh"
    }
   ],
   "return_type" : "_ZTIi",
   "source_file" : "bionic/libc/include/arpa/nameser.h"
  },
  {
   "function_name" : "__ns_name_ntol",
   "linker_set_key" : "__ns_name_ntol",
   "parameters" :
   [
    {
     "referenced_type" : "_ZTIPKh"
    },
    {
     "referenced_type" : "_ZTIPh"
    },
    {
     "referenced_type" : "_ZTIj"
    }
   ],
   "return_type" : "_ZTIi",
   "source_file" : "bionic/libc/include/arpa/nameser.h"
  },
  {
   "function_name" : "__ns_name_ntop",
   "linker_set_key" : "__ns_name_ntop",
   "parameters" :
   [
    {
     "referenced_type" : "_ZTIPKh"
    },
    {
     "referenced_type" : "_ZTIPc"
    },
    {
     "referenced_type" : "_ZTIj"
    }
   ],
   "return_type" : "_ZTIi",
   "source_file" : "bionic/libc/include/arpa/nameser.h"
  },
  {
   "function_name" : "__ns_name_pack",
   "linker_set_key" : "__ns_name_pack",
   "parameters" :
   [
    {
     "referenced_type" : "_ZTIPKh"
    },
    {
     "referenced_type" : "_ZTIPh"
    },
    {
     "referenced_type" : "_ZTIi"
    },
    {
     "referenced_type" : "_ZTIPPKh"
    },
    {
     "referenced_type" : "_ZTIPPKh"
    }
   ],
   "return_type" : "_ZTIi",
   "source_file" : "bionic/libc/include/arpa/nameser.h"
  },
  {
   "function_name" : "__ns_name_pton",
   "linker_set_key" : "__ns_name_pton",
   "parameters" :
   [
    {
     "referenced_type" : "_ZTIPKc"
    },
    {
     "referenced_type" : "_ZTIPh"
    },
    {
     "referenced_type" : "_ZTIj"
    }
   ],
   "return_type" : "_ZTIi",
   "source_file" : "bionic/libc/include/arpa/nameser.h"
  },
  {
   "function_name" : "__ns_name_rollback",
   "linker_set_key" : "__ns_name_rollback",
   "parameters" :
   [
    {
     "referenced_type" : "_ZTIPKh"
    },
    {
     "referenced_type" : "_ZTIPPKh"
    },
    {
     "referenced_type" : "_ZTIPPKh"
    }
   ],
   "return_type" : "_ZTIv",
   "source_file" : "bionic/libc/include/arpa/nameser.h"
  },
  {
   "function_name" : "__ns_name_skip",
   "linker_set_key" : "__ns_name_skip",
   "parameters" :
   [
    {
     "referenced_type" : "_ZTIPPKh"
    },
    {
     "referenced_type" : "_ZTIPKh"
    }
   ],
   "return_type" : "_ZTIi",
   "source_file" : "bionic/libc/include/arpa/nameser.h"
  },
  {
   "function_name" : "__ns_name_uncompress",
   "linker_set_key" : "__ns_name_uncompress",
   "parameters" :
   [
    {
     "referenced_type" : "_ZTIPKh"
    },
    {
     "referenced_type" : "_ZTIPKh"
    },
    {
     "referenced_type" : "_ZTIPKh"
    },
    {
     "referenced_type" : "_ZTIPc"
    },
    {
     "referenced_type" : "_ZTIj"
    }
   ],
   "return_type" : "_ZTIi",
   "source_file" : "bionic/libc/include/arpa/nameser.h"
  },
  {
   "function_name" : "__ns_name_unpack",
   "linker_set_key" : "__ns_name_unpack",
   "parameters" :
   [
    {
     "referenced_type" : "_ZTIPKh"
    },
    {
     "referenced_type" : "_ZTIPKh"
    },
    {
     "referenced_type" : "_ZTIPKh"
    },
    {
     "referenced_type" : "_ZTIPh"
    },
    {
     "referenced_type" : "_ZTIj"
    }
   ],
   "return_type" : "_ZTIi",
   "source_file" : "bionic/libc/include/arpa/nameser.h"
  },
  {
   "function_name" : "__ns_parserr",
   "linker_set_key" : "__ns_parserr",
   "parameters" :
   [
    {
     "referenced_type" : "_ZTIP8__ns_msg"
    },
    {
     "referenced_type" : "_ZTI9__ns_sect"
    },
    {
     "referenced_type" : "_ZTIi"
    },
    {
     "referenced_type" : "_ZTIP7__ns_rr"
    }
   ],
   "return_type" : "_ZTIi",
   "source_file" : "bionic/libc/include/arpa/nameser.h"
  },
  {
   "function_name" : "__ns_put16",
   "linker_set_key" : "__ns_put16",
   "parameters" :
   [
    {
     "referenced_type" : "_ZTIt"
    },
    {
     "referenced_type" : "_ZTIPh"
    }
   ],
   "return_type" : "_ZTIv",
   "source_file" : "bionic/libc/include/arpa/nameser.h"
  },
  {
   "function_name" : "__ns_put32",
   "linker_set_key" : "__ns_put32",
   "parameters" :
   [
    {
     "referenced_type" : "_ZTIj"
    },
    {
     "referenced_type" : "_ZTIPh"
    }
   ],
   "return_type" : "_ZTIv",
   "source_file" : "bionic/libc/include/arpa/nameser.h"
  },
  {
   "function_name" : "__ns_samename",
   "linker_set_key" : "__ns_samename",
   "parameters" :
   [
    {
     "referenced_type" : "_ZTIPKc"
    },
    {
     "referenced_type" : "_ZTIPKc"
    }
   ],
   "return_type" : "_ZTIi",
   "source_file" : "bionic/libc/include/arpa/nameser.h"
  },
  {
   "function_name" : "__ns_skiprr",
   "linker_set_key" : "__ns_skiprr",
   "parameters" :
   [
    {
     "referenced_type" : "_ZTIPKh"
    },
    {
     "referenced_type" : "_ZTIPKh"
    },
    {
     "referenced_type" : "_ZTI9__ns_sect"
    },
    {
     "referenced_type" : "_ZTIi"
    }
   ],
   "return_type" : "_ZTIi",
   "source_file" : "bionic/libc/include/arpa/nameser.h"
  },
  {
   "function_name" : "__ns_sprintrr",
   "linker_set_key" : "__ns_sprintrr",
   "parameters" :
   [
    {
     "referenced_type" : "_ZTIPK8__ns_msg"
    },
    {
     "referenced_type" : "_ZTIPK7__ns_rr"
    },
    {
     "referenced_type" : "_ZTIPKc"
    },
    {
     "referenced_type" : "_ZTIPKc"
    },
    {
     "referenced_type" : "_ZTIPc"
    },
    {
     "referenced_type" : "_ZTIj"
    }
   ],
   "return_type" : "_ZTIi",
   "source_file" : "bionic/libc/include/arpa/nameser.h"
  },
  {
   "function_name" : "__ns_sprintrrf",
   "linker_set_key" : "__ns_sprintrrf",
   "parameters" :
   [
    {
     "referenced_type" : "_ZTIPKh"
    },
    {
     "referenced_type" : "_ZTIj"
    },
    {
     "referenced_type" : "_ZTIPKc"
    },
    {
     "referenced_type" : "_ZTI10__ns_class"
    },
    {
     "referenced_type" : "_ZTI9__ns_type"
    },
    {
     "referenced_type" : "_ZTIm"
    },
    {
     "referenced_type" : "_ZTIPKh"
    },
    {
     "referenced_type" : "_ZTIj"
    },
    {
     "referenced_type" : "_ZTIPKc"
    },
    {
     "referenced_type" : "_ZTIPKc"
    },
    {
     "referenced_type" : "_ZTIPc"
    },
    {
     "referenced_type" : "_ZTIj"
    }
   ],
   "return_type" : "_ZTIi",
   "source_file" : "bionic/libc/include/arpa/nameser.h"
  },
  {
   "function_name" : "__open_2",
   "linker_set_key" : "__open_2",
   "parameters" :
   [
    {
     "referenced_type" : "_ZTIPKc"
    },
    {
     "referenced_type" : "_ZTIi"
    }
   ],
   "return_type" : "_ZTIi",
   "source_file" : "bionic/libc/include/bits/fortify/fcntl.h"
  },
  {
   "function_name" : "__openat_2",
   "linker_set_key" : "__openat_2",
   "parameters" :
   [
    {
     "referenced_type" : "_ZTIi"
    },
    {
     "referenced_type" : "_ZTIPKc"
    },
    {
     "referenced_type" : "_ZTIi"
    }
   ],
   "return_type" : "_ZTIi",
   "source_file" : "bionic/libc/include/bits/fortify/fcntl.h"
  },
  {
   "function_name" : "__p_class",
   "linker_set_key" : "__p_class",
   "parameters" :
   [
    {
     "referenced_type" : "_ZTIi"
    }
   ],
   "return_type" : "_ZTIPKc",
   "source_file" : "bionic/libc/include/resolv.h"
  },
  {
   "function_name" : "__p_type",
   "linker_set_key" : "__p_type",
   "parameters" :
   [
    {
     "referenced_type" : "_ZTIi"
    }
   ],
   "return_type" : "_ZTIPKc",
   "source_file" : "bionic/libc/include/resolv.h"
  },
  {
   "function_name" : "__poll_chk",
   "linker_set_key" : "__poll_chk",
   "parameters" :
   [
    {
     "referenced_type" : "_ZTIP6pollfd"
    },
    {
     "referenced_type" : "_ZTIj"
    },
    {
     "referenced_type" : "_ZTIi"
    },
    {
     "referenced_type" : "_ZTIj"
    }
   ],
   "return_type" : "_ZTIi",
   "source_file" : "bionic/libc/include/bits/fortify/poll.h"
  },
  {
   "function_name" : "__ppoll64_chk",
   "linker_set_key" : "__ppoll64_chk",
   "parameters" :
   [
    {
     "referenced_type" : "_ZTIP6pollfd"
    },
    {
     "referenced_type" : "_ZTIj"
    },
    {
     "referenced_type" : "_ZTIPK8timespec"
    },
    {
     "referenced_type" : "_ZTIPK10sigset64_t"
    },
    {
     "referenced_type" : "_ZTIj"
    }
   ],
   "return_type" : "_ZTIi",
   "source_file" : "bionic/libc/include/bits/fortify/poll.h"
  },
  {
   "function_name" : "__ppoll_chk",
   "linker_set_key" : "__ppoll_chk",
   "parameters" :
   [
    {
     "referenced_type" : "_ZTIP6pollfd"
    },
    {
     "referenced_type" : "_ZTIj"
    },
    {
     "referenced_type" : "_ZTIPK8timespec"
    },
    {
     "referenced_type" : "_ZTIPKm"
    },
    {
     "referenced_type" : "_ZTIj"
    }
   ],
   "return_type" : "_ZTIi",
   "source_file" : "bionic/libc/include/bits/fortify/poll.h"
  },
  {
   "function_name" : "__pread64_chk",
   "linker_set_key" : "__pread64_chk",
   "parameters" :
   [
    {
     "referenced_type" : "_ZTIi"
    },
    {
     "referenced_type" : "_ZTIPv"
    },
    {
     "referenced_type" : "_ZTIj"
    },
    {
     "referenced_type" : "_ZTIx"
    },
    {
     "referenced_type" : "_ZTIj"
    }
   ],
   "return_type" : "_ZTIi",
   "source_file" : "bionic/libc/include/bits/fortify/unistd.h"
  },
  {
   "function_name" : "__pread_chk",
   "linker_set_key" : "__pread_chk",
   "parameters" :
   [
    {
     "referenced_type" : "_ZTIi"
    },
    {
     "referenced_type" : "_ZTIPv"
    },
    {
     "referenced_type" : "_ZTIj"
    },
    {
     "referenced_type" : "_ZTIl"
    },
    {
     "referenced_type" : "_ZTIj"
    }
   ],
   "return_type" : "_ZTIi",
   "source_file" : "bionic/libc/include/bits/fortify/unistd.h"
  },
  {
   "function_name" : "__pthread_cleanup_pop",
   "linker_set_key" : "__pthread_cleanup_pop",
   "parameters" :
   [
    {
     "referenced_type" : "_ZTIP19__pthread_cleanup_t"
    },
    {
     "referenced_type" : "_ZTIi"
    }
   ],
   "return_type" : "_ZTIv",
   "source_file" : "bionic/libc/include/pthread.h"
  },
  {
   "function_name" : "__pthread_cleanup_push",
   "linker_set_key" : "__pthread_cleanup_push",
   "parameters" :
   [
    {
     "referenced_type" : "_ZTIP19__pthread_cleanup_t"
    },
    {
     "referenced_type" : "_ZTIPFvPvE"
    },
    {
     "referenced_type" : "_ZTIPv"
    }
   ],
   "return_type" : "_ZTIv",
   "source_file" : "bionic/libc/include/pthread.h"
  },
  {
   "function_name" : "__pwrite64_chk",
   "linker_set_key" : "__pwrite64_chk",
   "parameters" :
   [
    {
     "referenced_type" : "_ZTIi"
    },
    {
     "referenced_type" : "_ZTIPKv"
    },
    {
     "referenced_type" : "_ZTIj"
    },
    {
     "referenced_type" : "_ZTIx"
    },
    {
     "referenced_type" : "_ZTIj"
    }
   ],
   "return_type" : "_ZTIi",
   "source_file" : "bionic/libc/include/bits/fortify/unistd.h"
  },
  {
   "function_name" : "__pwrite_chk",
   "linker_set_key" : "__pwrite_chk",
   "parameters" :
   [
    {
     "referenced_type" : "_ZTIi"
    },
    {
     "referenced_type" : "_ZTIPKv"
    },
    {
     "referenced_type" : "_ZTIj"
    },
    {
     "referenced_type" : "_ZTIl"
    },
    {
     "referenced_type" : "_ZTIj"
    }
   ],
   "return_type" : "_ZTIi",
   "source_file" : "bionic/libc/include/bits/fortify/unistd.h"
  },
  {
   "function_name" : "__read_chk",
   "linker_set_key" : "__read_chk",
   "parameters" :
   [
    {
     "referenced_type" : "_ZTIi"
    },
    {
     "referenced_type" : "_ZTIPv"
    },
    {
     "referenced_type" : "_ZTIj"
    },
    {
     "referenced_type" : "_ZTIj"
    }
   ],
   "return_type" : "_ZTIi",
   "source_file" : "bionic/libc/include/bits/fortify/unistd.h"
  },
  {
   "function_name" : "__readlink_chk",
   "linker_set_key" : "__readlink_chk",
   "parameters" :
   [
    {
     "referenced_type" : "_ZTIPKc"
    },
    {
     "referenced_type" : "_ZTIPc"
    },
    {
     "referenced_type" : "_ZTIj"
    },
    {
     "referenced_type" : "_ZTIj"
    }
   ],
   "return_type" : "_ZTIi",
   "source_file" : "bionic/libc/include/bits/fortify/unistd.h"
  },
  {
   "function_name" : "__readlinkat_chk",
   "linker_set_key" : "__readlinkat_chk",
   "parameters" :
   [
    {
     "referenced_type" : "_ZTIi"
    },
    {
     "referenced_type" : "_ZTIPKc"
    },
    {
     "referenced_type" : "_ZTIPc"
    },
    {
     "referenced_type" : "_ZTIj"
    },
    {
     "referenced_type" : "_ZTIj"
    }
   ],
   "return_type" : "_ZTIi",
   "source_file" : "bionic/libc/include/bits/fortify/unistd.h"
  },
  {
   "function_name" : "__recvfrom_chk",
   "linker_set_key" : "__recvfrom_chk",
   "parameters" :
   [
    {
     "referenced_type" : "_ZTIi"
    },
    {
     "referenced_type" : "_ZTIPv"
    },
    {
     "referenced_type" : "_ZTIj"
    },
    {
     "referenced_type" : "_ZTIj"
    },
    {
     "referenced_type" : "_ZTIi"
    },
    {
     "referenced_type" : "_ZTIP8sockaddr"
    },
    {
     "referenced_type" : "_ZTIPi"
    }
   ],
   "return_type" : "_ZTIi",
   "source_file" : "bionic/libc/include/bits/fortify/socket.h"
  },
  {
   "function_name" : "__res_randomid",
   "linker_set_key" : "__res_randomid",
   "return_type" : "_ZTIj",
   "source_file" : "bionic/libc/include/resolv.h"
  },
  {
   "function_name" : "__sched_cpualloc",
   "linker_set_key" : "__sched_cpualloc",
   "parameters" :
   [
    {
     "referenced_type" : "_ZTIj"
    }
   ],
   "return_type" : "_ZTIP9cpu_set_t",
   "source_file" : "bionic/libc/include/sched.h"
  },
  {
   "function_name" : "__sched_cpucount",
   "linker_set_key" : "__sched_cpucount",
   "parameters" :
   [
    {
     "referenced_type" : "_ZTIj"
    },
    {
     "referenced_type" : "_ZTIPK9cpu_set_t"
    }
   ],
   "return_type" : "_ZTIi",
   "source_file" : "bionic/libc/include/sched.h"
  },
  {
   "function_name" : "__sched_cpufree",
   "linker_set_key" : "__sched_cpufree",
   "parameters" :
   [
    {
     "referenced_type" : "_ZTIP9cpu_set_t"
    }
   ],
   "return_type" : "_ZTIv",
   "source_file" : "bionic/libc/include/sched.h"
  },
  {
   "function_name" : "__sendto_chk",
   "linker_set_key" : "__sendto_chk",
   "parameters" :
   [
    {
     "referenced_type" : "_ZTIi"
    },
    {
     "referenced_type" : "_ZTIPKv"
    },
    {
     "referenced_type" : "_ZTIj"
    },
    {
     "referenced_type" : "_ZTIj"
    },
    {
     "referenced_type" : "_ZTIi"
    },
    {
     "referenced_type" : "_ZTIPK8sockaddr"
    },
    {
     "referenced_type" : "_ZTIi"
    }
   ],
   "return_type" : "_ZTIi",
   "source_file" : "bionic/libc/include/bits/fortify/socket.h"
  },
  {
   "function_name" : "__stpncpy_chk2",
   "linker_set_key" : "__stpncpy_chk2",
   "parameters" :
   [
    {
     "referenced_type" : "_ZTIPc"
    },
    {
     "referenced_type" : "_ZTIPKc"
    },
    {
     "referenced_type" : "_ZTIj"
    },
    {
     "referenced_type" : "_ZTIj"
    },
    {
     "referenced_type" : "_ZTIj"
    }
   ],
   "return_type" : "_ZTIPc",
   "source_file" : "bionic/libc/include/bits/fortify/string.h"
  },
  {
   "function_name" : "__strchr_chk",
   "linker_set_key" : "__strchr_chk",
   "parameters" :
   [
    {
     "referenced_type" : "_ZTIPKc"
    },
    {
     "referenced_type" : "_ZTIi"
    },
    {
     "referenced_type" : "_ZTIj"
    }
   ],
   "return_type" : "_ZTIPc",
   "source_file" : "bionic/libc/include/string.h"
  },
  {
   "function_name" : "__strlcat_chk",
   "linker_set_key" : "__strlcat_chk",
   "parameters" :
   [
    {
     "referenced_type" : "_ZTIPc"
    },
    {
     "referenced_type" : "_ZTIPKc"
    },
    {
     "referenced_type" : "_ZTIj"
    },
    {
     "referenced_type" : "_ZTIj"
    }
   ],
   "return_type" : "_ZTIj",
   "source_file" : "bionic/libc/include/bits/fortify/string.h"
  },
  {
   "function_name" : "__strlcpy_chk",
   "linker_set_key" : "__strlcpy_chk",
   "parameters" :
   [
    {
     "referenced_type" : "_ZTIPc"
    },
    {
     "referenced_type" : "_ZTIPKc"
    },
    {
     "referenced_type" : "_ZTIj"
    },
    {
     "referenced_type" : "_ZTIj"
    }
   ],
   "return_type" : "_ZTIj",
   "source_file" : "bionic/libc/include/bits/fortify/string.h"
  },
  {
   "function_name" : "__strlen_chk",
   "linker_set_key" : "__strlen_chk",
   "parameters" :
   [
    {
     "referenced_type" : "_ZTIPKc"
    },
    {
     "referenced_type" : "_ZTIj"
    }
   ],
   "return_type" : "_ZTIj",
   "source_file" : "bionic/libc/include/string.h"
  },
  {
   "function_name" : "__strncpy_chk2",
   "linker_set_key" : "__strncpy_chk2",
   "parameters" :
   [
    {
     "referenced_type" : "_ZTIPc"
    },
    {
     "referenced_type" : "_ZTIPKc"
    },
    {
     "referenced_type" : "_ZTIj"
    },
    {
     "referenced_type" : "_ZTIj"
    },
    {
     "referenced_type" : "_ZTIj"
    }
   ],
   "return_type" : "_ZTIPc",
   "source_file" : "bionic/libc/include/bits/fortify/string.h"
  },
  {
   "function_name" : "__strrchr_chk",
   "linker_set_key" : "__strrchr_chk",
   "parameters" :
   [
    {
     "referenced_type" : "_ZTIPKc"
    },
    {
     "referenced_type" : "_ZTIi"
    },
    {
     "referenced_type" : "_ZTIj"
    }
   ],
   "return_type" : "_ZTIPc",
   "source_file" : "bionic/libc/include/string.h"
  },
  {
   "function_name" : "__system_properties_init",
   "linker_set_key" : "__system_properties_init",
   "return_type" : "_ZTIi",
   "source_file" : "bionic/libc/include/sys/_system_properties.h"
  },
  {
   "function_name" : "__system_properties_zygote_reload",
   "linker_set_key" : "__system_properties_zygote_reload",
   "return_type" : "_ZTIi",
   "source_file" : "bionic/libc/include/sys/_system_properties.h"
  },
  {
   "function_name" : "__system_property_area_serial",
   "linker_set_key" : "__system_property_area_serial",
   "return_type" : "_ZTIj",
   "source_file" : "bionic/libc/include/sys/_system_properties.h"
  },
  {
   "function_name" : "__system_property_find",
   "linker_set_key" : "__system_property_find",
   "parameters" :
   [
    {
     "referenced_type" : "_ZTIPKc"
    }
   ],
   "return_type" : "_ZTIPK9prop_info",
   "source_file" : "bionic/libc/include/sys/system_properties.h"
  },
  {
   "function_name" : "__system_property_find_nth",
   "linker_set_key" : "__system_property_find_nth",
   "parameters" :
   [
    {
     "referenced_type" : "_ZTIj"
    }
   ],
   "return_type" : "_ZTIPK9prop_info",
   "source_file" : "bionic/libc/include/sys/system_properties.h"
  },
  {
   "function_name" : "__system_property_foreach",
   "linker_set_key" : "__system_property_foreach",
   "parameters" :
   [
    {
     "referenced_type" : "_ZTIPFvPK9prop_infoPvE"
    },
    {
     "referenced_type" : "_ZTIPv"
    }
   ],
   "return_type" : "_ZTIi",
   "source_file" : "bionic/libc/include/sys/system_properties.h"
  },
  {
   "function_name" : "__system_property_get",
   "linker_set_key" : "__system_property_get",
   "parameters" :
   [
    {
     "referenced_type" : "_ZTIPKc"
    },
    {
     "referenced_type" : "_ZTIPc"
    }
   ],
   "return_type" : "_ZTIi",
   "source_file" : "bionic/libc/include/sys/system_properties.h"
  },
  {
   "function_name" : "__system_property_read",
   "linker_set_key" : "__system_property_read",
   "parameters" :
   [
    {
     "referenced_type" : "_ZTIPK9prop_info"
    },
    {
     "referenced_type" : "_ZTIPc"
    },
    {
     "referenced_type" : "_ZTIPc"
    }
   ],
   "return_type" : "_ZTIi",
   "source_file" : "bionic/libc/include/sys/system_properties.h"
  },
  {
   "function_name" : "__system_property_read_callback",
   "linker_set_key" : "__system_property_read_callback",
   "parameters" :
   [
    {
     "referenced_type" : "_ZTIPK9prop_info"
    },
    {
     "referenced_type" : "_ZTIPFvPvPKcS1_jE"
    },
    {
     "referenced_type" : "_ZTIPv"
    }
   ],
   "return_type" : "_ZTIv",
   "source_file" : "bionic/libc/include/sys/system_properties.h"
  },
  {
   "function_name" : "__system_property_serial",
   "linker_set_key" : "__system_property_serial",
   "parameters" :
   [
    {
     "referenced_type" : "_ZTIPK9prop_info"
    }
   ],
   "return_type" : "_ZTIj",
   "source_file" : "bionic/libc/include/sys/_system_properties.h"
  },
  {
   "function_name" : "__system_property_set",
   "linker_set_key" : "__system_property_set",
   "parameters" :
   [
    {
     "referenced_type" : "_ZTIPKc"
    },
    {
     "referenced_type" : "_ZTIPKc"
    }
   ],
   "return_type" : "_ZTIi",
   "source_file" : "bionic/libc/include/sys/system_properties.h"
  },
  {
   "function_name" : "__system_property_wait",
   "linker_set_key" : "__system_property_wait",
   "parameters" :
   [
    {
     "referenced_type" : "_ZTIPK9prop_info"
    },
    {
     "referenced_type" : "_ZTIj"
    },
    {
     "referenced_type" : "_ZTIPj"
    },
    {
     "referenced_type" : "_ZTIPK8timespec"
    }
   ],
   "return_type" : "_ZTIb",
   "source_file" : "bionic/libc/include/sys/system_properties.h"
  },
  {
   "function_name" : "__system_property_wait_any",
   "linker_set_key" : "__system_property_wait_any",
   "parameters" :
   [
    {
     "referenced_type" : "_ZTIj"
    }
   ],
   "return_type" : "_ZTIj",
   "source_file" : "bionic/libc/include/sys/_system_properties.h"
  },
  {
   "function_name" : "__umask_chk",
   "linker_set_key" : "__umask_chk",
   "parameters" :
   [
    {
     "referenced_type" : "_ZTIt"
    }
   ],
   "return_type" : "_ZTIt",
   "source_file" : "bionic/libc/include/bits/fortify/stat.h"
  },
  {
   "function_name" : "__write_chk",
   "linker_set_key" : "__write_chk",
   "parameters" :
   [
    {
     "referenced_type" : "_ZTIi"
    },
    {
     "referenced_type" : "_ZTIPKv"
    },
    {
     "referenced_type" : "_ZTIj"
    },
    {
     "referenced_type" : "_ZTIj"
    }
   ],
   "return_type" : "_ZTIi",
   "source_file" : "bionic/libc/include/bits/fortify/unistd.h"
  },
  {
   "function_name" : "_exit",
   "linker_set_key" : "_exit",
   "parameters" :
   [
    {
     "referenced_type" : "_ZTIi"
    }
   ],
   "return_type" : "_ZTIv",
   "source_file" : "bionic/libc/include/unistd.h"
  },
  {
   "function_name" : "_flushlbf",
   "linker_set_key" : "_flushlbf",
   "return_type" : "_ZTIv",
   "source_file" : "bionic/libc/include/stdio_ext.h"
  },
  {
   "function_name" : "_tolower",
   "linker_set_key" : "_tolower",
   "parameters" :
   [
    {
     "referenced_type" : "_ZTIi"
    }
   ],
   "return_type" : "_ZTIi",
   "source_file" : "bionic/libc/include/ctype.h"
  },
  {
   "function_name" : "_toupper",
   "linker_set_key" : "_toupper",
   "parameters" :
   [
    {
     "referenced_type" : "_ZTIi"
    }
   ],
   "return_type" : "_ZTIi",
   "source_file" : "bionic/libc/include/ctype.h"
  },
  {
   "function_name" : "abort",
   "linker_set_key" : "abort",
   "return_type" : "_ZTIv",
   "source_file" : "bionic/libc/include/stdlib.h"
  },
  {
   "function_name" : "abs",
   "linker_set_key" : "abs",
   "parameters" :
   [
    {
     "referenced_type" : "_ZTIi"
    }
   ],
   "return_type" : "_ZTIi",
   "source_file" : "bionic/libc/include/stdlib.h"
  },
  {
   "function_name" : "accept",
   "linker_set_key" : "accept",
   "parameters" :
   [
    {
     "referenced_type" : "_ZTIi"
    },
    {
     "referenced_type" : "_ZTIP8sockaddr"
    },
    {
     "referenced_type" : "_ZTIPi"
    }
   ],
   "return_type" : "_ZTIi",
   "source_file" : "bionic/libc/include/sys/socket.h"
  },
  {
   "function_name" : "accept4",
   "linker_set_key" : "accept4",
   "parameters" :
   [
    {
     "referenced_type" : "_ZTIi"
    },
    {
     "referenced_type" : "_ZTIP8sockaddr"
    },
    {
     "referenced_type" : "_ZTIPi"
    },
    {
     "referenced_type" : "_ZTIi"
    }
   ],
   "return_type" : "_ZTIi",
   "source_file" : "bionic/libc/include/sys/socket.h"
  },
  {
   "function_name" : "access",
   "linker_set_key" : "access",
   "parameters" :
   [
    {
     "referenced_type" : "_ZTIPKc"
    },
    {
     "referenced_type" : "_ZTIi"
    }
   ],
   "return_type" : "_ZTIi",
   "source_file" : "bionic/libc/include/unistd.h"
  },
  {
   "function_name" : "alarm",
   "linker_set_key" : "alarm",
   "parameters" :
   [
    {
     "referenced_type" : "_ZTIj"
    }
   ],
   "return_type" : "_ZTIj",
   "source_file" : "bionic/libc/include/unistd.h"
  },
  {
   "function_name" : "aligned_alloc",
   "linker_set_key" : "aligned_alloc",
   "parameters" :
   [
    {
     "referenced_type" : "_ZTIj"
    },
    {
     "referenced_type" : "_ZTIj"
    }
   ],
   "return_type" : "_ZTIPv",
   "source_file" : "bionic/libc/include/stdlib.h"
  },
  {
   "function_name" : "alphasort",
   "linker_set_key" : "alphasort",
   "parameters" :
   [
    {
     "referenced_type" : "_ZTIPPK6dirent"
    },
    {
     "referenced_type" : "_ZTIPPK6dirent"
    }
   ],
   "return_type" : "_ZTIi",
   "source_file" : "bionic/libc/include/dirent.h"
  },
  {
   "function_name" : "android_crash_detail_register",
   "linker_set_key" : "android_crash_detail_register",
   "parameters" :
   [
    {
     "referenced_type" : "_ZTIPKv"
    },
    {
     "referenced_type" : "_ZTIj"
    },
    {
     "referenced_type" : "_ZTIPKv"
    },
    {
     "referenced_type" : "_ZTIj"
    }
   ],
   "return_type" : "_ZTIP14crash_detail_t",
   "source_file" : "bionic/libc/include/android/crash_detail.h"
  },
  {
   "function_name" : "android_crash_detail_replace_data",
   "linker_set_key" : "android_crash_detail_replace_data",
   "parameters" :
   [
    {
     "referenced_type" : "_ZTIP14crash_detail_t"
    },
    {
     "referenced_type" : "_ZTIPKv"
    },
    {
     "referenced_type" : "_ZTIj"
    }
   ],
   "return_type" : "_ZTIv",
   "source_file" : "bionic/libc/include/android/crash_detail.h"
  },
  {
   "function_name" : "android_crash_detail_replace_name",
   "linker_set_key" : "android_crash_detail_replace_name",
   "parameters" :
   [
    {
     "referenced_type" : "_ZTIP14crash_detail_t"
    },
    {
     "referenced_type" : "_ZTIPKv"
    },
    {
     "referenced_type" : "_ZTIj"
    }
   ],
   "return_type" : "_ZTIv",
   "source_file" : "bionic/libc/include/android/crash_detail.h"
  },
  {
   "function_name" : "android_crash_detail_unregister",
   "linker_set_key" : "android_crash_detail_unregister",
   "parameters" :
   [
    {
     "referenced_type" : "_ZTIP14crash_detail_t"
    }
   ],
   "return_type" : "_ZTIv",
   "source_file" : "bionic/libc/include/android/crash_detail.h"
  },
  {
   "function_name" : "android_fdsan_close_with_tag",
   "linker_set_key" : "android_fdsan_close_with_tag",
   "parameters" :
   [
    {
     "referenced_type" : "_ZTIi"
    },
    {
     "referenced_type" : "_ZTIy"
    }
   ],
   "return_type" : "_ZTIi",
   "source_file" : "bionic/libc/include/android/fdsan.h"
  },
  {
   "function_name" : "android_fdsan_create_owner_tag",
   "linker_set_key" : "android_fdsan_create_owner_tag",
   "parameters" :
   [
    {
     "referenced_type" : "_ZTI24android_fdsan_owner_type"
    },
    {
     "referenced_type" : "_ZTIy"
    }
   ],
   "return_type" : "_ZTIy",
   "source_file" : "bionic/libc/include/android/fdsan.h"
  },
  {
   "function_name" : "android_fdsan_exchange_owner_tag",
   "linker_set_key" : "android_fdsan_exchange_owner_tag",
   "parameters" :
   [
    {
     "referenced_type" : "_ZTIi"
    },
    {
     "referenced_type" : "_ZTIy"
    },
    {
     "referenced_type" : "_ZTIy"
    }
   ],
   "return_type" : "_ZTIv",
   "source_file" : "bionic/libc/include/android/fdsan.h"
  },
  {
   "function_name" : "android_fdsan_get_error_level",
   "linker_set_key" : "android_fdsan_get_error_level",
   "return_type" : "_ZTI25android_fdsan_error_level",
   "source_file" : "bionic/libc/include/android/fdsan.h"
  },
  {
   "function_name" : "android_fdsan_get_owner_tag",
   "linker_set_key" : "android_fdsan_get_owner_tag",
   "parameters" :
   [
    {
     "referenced_type" : "_ZTIi"
    }
   ],
   "return_type" : "_ZTIy",
   "source_file" : "bionic/libc/include/android/fdsan.h"
  },
  {
   "function_name" : "android_fdsan_get_tag_type",
   "linker_set_key" : "android_fdsan_get_tag_type",
   "parameters" :
   [
    {
     "referenced_type" : "_ZTIy"
    }
   ],
   "return_type" : "_ZTIPKc",
   "source_file" : "bionic/libc/include/android/fdsan.h"
  },
  {
   "function_name" : "android_fdsan_get_tag_value",
   "linker_set_key" : "android_fdsan_get_tag_value",
   "parameters" :
   [
    {
     "referenced_type" : "_ZTIy"
    }
   ],
   "return_type" : "_ZTIy",
   "source_file" : "bionic/libc/include/android/fdsan.h"
  },
  {
   "function_name" : "android_fdsan_set_error_level",
   "linker_set_key" : "android_fdsan_set_error_level",
   "parameters" :
   [
    {
     "referenced_type" : "_ZTI25android_fdsan_error_level"
    }
   ],
   "return_type" : "_ZTI25android_fdsan_error_level",
   "source_file" : "bionic/libc/include/android/fdsan.h"
  },
  {
   "function_name" : "android_get_device_api_level",
   "linker_set_key" : "android_get_device_api_level",
   "return_type" : "_ZTIi",
   "source_file" : "bionic/libc/include/android/api-level.h"
  },
  {
   "function_name" : "android_set_abort_message",
   "linker_set_key" : "android_set_abort_message",
   "parameters" :
   [
    {
     "referenced_type" : "_ZTIPKc"
    }
   ],
   "return_type" : "_ZTIv",
   "source_file" : "bionic/libc/include/android/set_abort_message.h"
  },
  {
   "function_name" : "arc4random",
   "linker_set_key" : "arc4random",
   "return_type" : "_ZTIj",
   "source_file" : "bionic/libc/include/stdlib.h"
  },
  {
   "function_name" : "arc4random_buf",
   "linker_set_key" : "arc4random_buf",
   "parameters" :
   [
    {
     "referenced_type" : "_ZTIPv"
    },
    {
     "referenced_type" : "_ZTIj"
    }
   ],
   "return_type" : "_ZTIv",
   "source_file" : "bionic/libc/include/stdlib.h"
  },
  {
   "function_name" : "arc4random_uniform",
   "linker_set_key" : "arc4random_uniform",
   "parameters" :
   [
    {
     "referenced_type" : "_ZTIj"
    }
   ],
   "return_type" : "_ZTIj",
   "source_file" : "bionic/libc/include/stdlib.h"
  },
  {
   "function_name" : "asctime",
   "linker_set_key" : "asctime",
   "parameters" :
   [
    {
     "referenced_type" : "_ZTIPK2tm"
    }
   ],
   "return_type" : "_ZTIPc",
   "source_file" : "bionic/libc/include/time.h"
  },
  {
   "function_name" : "asctime64",
   "linker_set_key" : "asctime64",
   "parameters" :
   [
    {
     "referenced_type" : "_ZTIPK2tm"
    }
   ],
   "return_type" : "_ZTIPc",
   "source_file" : "bionic/libc/include/time64.h"
  },
  {
   "function_name" : "asctime64_r",
   "linker_set_key" : "asctime64_r",
   "parameters" :
   [
    {
     "referenced_type" : "_ZTIPK2tm"
    },
    {
     "referenced_type" : "_ZTIPc"
    }
   ],
   "return_type" : "_ZTIPc",
   "source_file" : "bionic/libc/include/time64.h"
  },
  {
   "function_name" : "asctime_r",
   "linker_set_key" : "asctime_r",
   "parameters" :
   [
    {
     "referenced_type" : "_ZTIPK2tm"
    },
    {
     "referenced_type" : "_ZTIPc"
    }
   ],
   "return_type" : "_ZTIPc",
   "source_file" : "bionic/libc/include/time.h"
  },
  {
   "function_name" : "asprintf",
   "linker_set_key" : "asprintf",
   "parameters" :
   [
    {
     "referenced_type" : "_ZTIPPc"
    },
    {
     "referenced_type" : "_ZTIPKc"
    }
   ],
   "return_type" : "_ZTIi",
   "source_file" : "bionic/libc/include/stdio.h"
  },
  {
   "function_name" : "at_quick_exit",
   "linker_set_key" : "at_quick_exit",
   "parameters" :
   [
    {
     "referenced_type" : "_ZTIPFvvE"
    }
   ],
   "return_type" : "_ZTIi",
   "source_file" : "bionic/libc/include/stdlib.h"
  },
  {
   "function_name" : "atof",
   "linker_set_key" : "atof",
   "parameters" :
   [
    {
     "referenced_type" : "_ZTIPKc"
    }
   ],
   "return_type" : "_ZTId",
   "source_file" : "bionic/libc/include/stdlib.h"
  },
  {
   "function_name" : "atoi",
   "linker_set_key" : "atoi",
   "parameters" :
   [
    {
     "referenced_type" : "_ZTIPKc"
    }
   ],
   "return_type" : "_ZTIi",
   "source_file" : "bionic/libc/include/stdlib.h"
  },
  {
   "function_name" : "atol",
   "linker_set_key" : "atol",
   "parameters" :
   [
    {
     "referenced_type" : "_ZTIPKc"
    }
   ],
   "return_type" : "_ZTIl",
   "source_file" : "bionic/libc/include/stdlib.h"
  },
  {
   "function_name" : "atoll",
   "linker_set_key" : "atoll",
   "parameters" :
   [
    {
     "referenced_type" : "_ZTIPKc"
    }
   ],
   "return_type" : "_ZTIx",
   "source_file" : "bionic/libc/include/stdlib.h"
  },
  {
   "function_name" : "backtrace",
   "linker_set_key" : "backtrace",
   "parameters" :
   [
    {
     "referenced_type" : "_ZTIPPv"
    },
    {
     "referenced_type" : "_ZTIi"
    }
   ],
   "return_type" : "_ZTIi",
   "source_file" : "bionic/libc/include/execinfo.h"
  },
  {
   "function_name" : "backtrace_symbols",
   "linker_set_key" : "backtrace_symbols",
   "parameters" :
   [
    {
     "referenced_type" : "_ZTIPKPv"
    },
    {
     "referenced_type" : "_ZTIi"
    }
   ],
   "return_type" : "_ZTIPPc",
   "source_file" : "bionic/libc/include/execinfo.h"
  },
  {
   "function_name" : "backtrace_symbols_fd",
   "linker_set_key" : "backtrace_symbols_fd",
   "parameters" :
   [
    {
     "referenced_type" : "_ZTIPKPv"
    },
    {
     "referenced_type" : "_ZTIi"
    },
    {
     "referenced_type" : "_ZTIi"
    }
   ],
   "return_type" : "_ZTIv",
   "source_file" : "bionic/libc/include/execinfo.h"
  },
  {
   "function_name" : "__posix_basename",
   "linker_set_key" : "basename",
   "parameters" :
   [
    {
     "referenced_type" : "_ZTIPKc"
    }
   ],
   "return_type" : "_ZTIPc",
   "source_file" : "bionic/libc/include/libgen.h"
  },
  {
   "function_name" : "basename_r",
   "linker_set_key" : "basename_r",
   "parameters" :
   [
    {
     "referenced_type" : "_ZTIPKc"
    },
    {
     "referenced_type" : "_ZTIPc"
    },
    {
     "referenced_type" : "_ZTIj"
    }
   ],
   "return_type" : "_ZTIi",
   "source_file" : "bionic/libc/include/libgen.h"
  },
  {
   "function_name" : "bindresvport",
   "linker_set_key" : "bindresvport",
   "parameters" :
   [
    {
     "referenced_type" : "_ZTIi"
    },
    {
     "referenced_type" : "_ZTIP11sockaddr_in"
    }
   ],
   "return_type" : "_ZTIi",
   "source_file" : "bionic/libc/include/netinet/in.h"
  },
  {
   "function_name" : "brk",
   "linker_set_key" : "brk",
   "parameters" :
   [
    {
     "referenced_type" : "_ZTIPv"
    }
   ],
   "return_type" : "_ZTIi",
   "source_file" : "bionic/libc/include/unistd.h"
  },
  {
   "function_name" : "bsearch",
   "linker_set_key" : "bsearch",
   "parameters" :
   [
    {
     "referenced_type" : "_ZTIPKv"
    },
    {
     "referenced_type" : "_ZTIPKv"
    },
    {
     "referenced_type" : "_ZTIj"
    },
    {
     "referenced_type" : "_ZTIj"
    },
    {
     "referenced_type" : "_ZTIPFiPKvS0_E"
    }
   ],
   "return_type" : "_ZTIPv",
   "source_file" : "bionic/libc/include/stdlib.h"
  },
  {
   "function_name" : "btowc",
   "linker_set_key" : "btowc",
   "parameters" :
   [
    {
     "referenced_type" : "_ZTIi"
    }
   ],
   "return_type" : "_ZTIj",
   "source_file" : "bionic/libc/include/wchar.h"
  },
  {
   "function_name" : "c16rtomb",
   "linker_set_key" : "c16rtomb",
   "parameters" :
   [
    {
     "referenced_type" : "_ZTIPc"
    },
    {
     "referenced_type" : "_ZTIDs"
    },
    {
     "referenced_type" : "_ZTIP9mbstate_t"
    }
   ],
   "return_type" : "_ZTIj",
   "source_file" : "bionic/libc/include/uchar.h"
  },
  {
   "function_name" : "c32rtomb",
   "linker_set_key" : "c32rtomb",
   "parameters" :
   [
    {
     "referenced_type" : "_ZTIPc"
    },
    {
     "referenced_type" : "_ZTIDi"
    },
    {
     "referenced_type" : "_ZTIP9mbstate_t"
    }
   ],
   "return_type" : "_ZTIj",
   "source_file" : "bionic/libc/include/uchar.h"
  },
  {
   "function_name" : "call_once",
   "linker_set_key" : "call_once",
   "parameters" :
   [
    {
     "referenced_type" : "_ZTIPi"
    },
    {
     "referenced_type" : "_ZTIPFvvE"
    }
   ],
   "return_type" : "_ZTIv",
   "source_file" : "bionic/libc/include/threads.h"
  },
  {
   "function_name" : "calloc",
   "linker_set_key" : "calloc",
   "parameters" :
   [
    {
     "referenced_type" : "_ZTIj"
    },
    {
     "referenced_type" : "_ZTIj"
    }
   ],
   "return_type" : "_ZTIPv",
   "source_file" : "bionic/libc/include/malloc.h"
  },
  {
   "function_name" : "catclose",
   "linker_set_key" : "catclose",
   "parameters" :
   [
    {
     "referenced_type" : "_ZTIPv"
    }
   ],
   "return_type" : "_ZTIi",
   "source_file" : "bionic/libc/include/nl_types.h"
  },
  {
   "function_name" : "catgets",
   "linker_set_key" : "catgets",
   "parameters" :
   [
    {
     "referenced_type" : "_ZTIPv"
    },
    {
     "referenced_type" : "_ZTIi"
    },
    {
     "referenced_type" : "_ZTIi"
    },
    {
     "referenced_type" : "_ZTIPKc"
    }
   ],
   "return_type" : "_ZTIPc",
   "source_file" : "bionic/libc/include/nl_types.h"
  },
  {
   "function_name" : "catopen",
   "linker_set_key" : "catopen",
   "parameters" :
   [
    {
     "referenced_type" : "_ZTIPKc"
    },
    {
     "referenced_type" : "_ZTIi"
    }
   ],
   "return_type" : "_ZTIPv",
   "source_file" : "bionic/libc/include/nl_types.h"
  },
  {
   "function_name" : "cfgetispeed",
   "linker_set_key" : "cfgetispeed",
   "parameters" :
   [
    {
     "referenced_type" : "_ZTIPK7termios"
    }
   ],
   "return_type" : "_ZTIj",
   "source_file" : "bionic/libc/include/termios.h"
  },
  {
   "function_name" : "cfgetospeed",
   "linker_set_key" : "cfgetospeed",
   "parameters" :
   [
    {
     "referenced_type" : "_ZTIPK7termios"
    }
   ],
   "return_type" : "_ZTIj",
   "source_file" : "bionic/libc/include/termios.h"
  },
  {
   "function_name" : "cfmakeraw",
   "linker_set_key" : "cfmakeraw",
   "parameters" :
   [
    {
     "referenced_type" : "_ZTIP7termios"
    }
   ],
   "return_type" : "_ZTIv",
   "source_file" : "bionic/libc/include/termios.h"
  },
  {
   "function_name" : "cfsetispeed",
   "linker_set_key" : "cfsetispeed",
   "parameters" :
   [
    {
     "referenced_type" : "_ZTIP7termios"
    },
    {
     "referenced_type" : "_ZTIj"
    }
   ],
   "return_type" : "_ZTIi",
   "source_file" : "bionic/libc/include/termios.h"
  },
  {
   "function_name" : "cfsetospeed",
   "linker_set_key" : "cfsetospeed",
   "parameters" :
   [
    {
     "referenced_type" : "_ZTIP7termios"
    },
    {
     "referenced_type" : "_ZTIj"
    }
   ],
   "return_type" : "_ZTIi",
   "source_file" : "bionic/libc/include/termios.h"
  },
  {
   "function_name" : "cfsetspeed",
   "linker_set_key" : "cfsetspeed",
   "parameters" :
   [
    {
     "referenced_type" : "_ZTIP7termios"
    },
    {
     "referenced_type" : "_ZTIj"
    }
   ],
   "return_type" : "_ZTIi",
   "source_file" : "bionic/libc/include/termios.h"
  },
  {
   "function_name" : "chmod",
   "linker_set_key" : "chmod",
   "parameters" :
   [
    {
     "referenced_type" : "_ZTIPKc"
    },
    {
     "referenced_type" : "_ZTIt"
    }
   ],
   "return_type" : "_ZTIi",
   "source_file" : "bionic/libc/include/sys/stat.h"
  },
  {
   "function_name" : "chown",
   "linker_set_key" : "chown",
   "parameters" :
   [
    {
     "referenced_type" : "_ZTIPKc"
    },
    {
     "referenced_type" : "_ZTIj"
    },
    {
     "referenced_type" : "_ZTIj"
    }
   ],
   "return_type" : "_ZTIi",
   "source_file" : "bionic/libc/include/unistd.h"
  },
  {
   "function_name" : "clearenv",
   "linker_set_key" : "clearenv",
   "return_type" : "_ZTIi",
   "source_file" : "bionic/libc/include/stdlib.h"
  },
  {
   "function_name" : "clearerr",
   "linker_set_key" : "clearerr",
   "parameters" :
   [
    {
     "referenced_type" : "_ZTIP7__sFILE"
    }
   ],
   "return_type" : "_ZTIv",
   "source_file" : "bionic/libc/include/stdio.h"
  },
  {
   "function_name" : "clearerr_unlocked",
   "linker_set_key" : "clearerr_unlocked",
   "parameters" :
   [
    {
     "referenced_type" : "_ZTIP7__sFILE"
    }
   ],
   "return_type" : "_ZTIv",
   "source_file" : "bionic/libc/include/stdio.h"
  },
  {
   "function_name" : "clock",
   "linker_set_key" : "clock",
   "return_type" : "_ZTIl",
   "source_file" : "bionic/libc/include/time.h"
  },
  {
   "function_name" : "clock_getcpuclockid",
   "linker_set_key" : "clock_getcpuclockid",
   "parameters" :
   [
    {
     "referenced_type" : "_ZTIi"
    },
    {
     "referenced_type" : "_ZTIPi"
    }
   ],
   "return_type" : "_ZTIi",
   "source_file" : "bionic/libc/include/time.h"
  },
  {
   "function_name" : "clock_getres",
   "linker_set_key" : "clock_getres",
   "parameters" :
   [
    {
     "referenced_type" : "_ZTIi"
    },
    {
     "referenced_type" : "_ZTIP8timespec"
    }
   ],
   "return_type" : "_ZTIi",
   "source_file" : "bionic/libc/include/time.h"
  },
  {
   "function_name" : "clock_gettime",
   "linker_set_key" : "clock_gettime",
   "parameters" :
   [
    {
     "referenced_type" : "_ZTIi"
    },
    {
     "referenced_type" : "_ZTIP8timespec"
    }
   ],
   "return_type" : "_ZTIi",
   "source_file" : "bionic/libc/include/time.h"
  },
  {
   "function_name" : "clock_nanosleep",
   "linker_set_key" : "clock_nanosleep",
   "parameters" :
   [
    {
     "referenced_type" : "_ZTIi"
    },
    {
     "referenced_type" : "_ZTIi"
    },
    {
     "referenced_type" : "_ZTIPK8timespec"
    },
    {
     "referenced_type" : "_ZTIP8timespec"
    }
   ],
   "return_type" : "_ZTIi",
   "source_file" : "bionic/libc/include/time.h"
  },
  {
   "function_name" : "clone",
   "linker_set_key" : "clone",
   "parameters" :
   [
    {
     "referenced_type" : "_ZTIPFiPvE"
    },
    {
     "referenced_type" : "_ZTIPv"
    },
    {
     "referenced_type" : "_ZTIi"
    },
    {
     "referenced_type" : "_ZTIPv"
    }
   ],
   "return_type" : "_ZTIi",
   "source_file" : "bionic/libc/include/sched.h"
  },
  {
   "function_name" : "close",
   "linker_set_key" : "close",
   "parameters" :
   [
    {
     "referenced_type" : "_ZTIi"
    }
   ],
   "return_type" : "_ZTIi",
   "source_file" : "bionic/libc/include/unistd.h"
  },
  {
   "function_name" : "closedir",
   "linker_set_key" : "closedir",
   "parameters" :
   [
    {
     "referenced_type" : "_ZTIP3DIR"
    }
   ],
   "return_type" : "_ZTIi",
   "source_file" : "bionic/libc/include/dirent.h"
  },
  {
   "function_name" : "closelog",
   "linker_set_key" : "closelog",
   "return_type" : "_ZTIv",
   "source_file" : "bionic/libc/include/syslog.h"
  },
  {
   "function_name" : "cnd_broadcast",
   "linker_set_key" : "cnd_broadcast",
   "parameters" :
   [
    {
     "referenced_type" : "_ZTIP14pthread_cond_t"
    }
   ],
   "return_type" : "_ZTIi",
   "source_file" : "bionic/libc/include/threads.h"
  },
  {
   "function_name" : "cnd_destroy",
   "linker_set_key" : "cnd_destroy",
   "parameters" :
   [
    {
     "referenced_type" : "_ZTIP14pthread_cond_t"
    }
   ],
   "return_type" : "_ZTIv",
   "source_file" : "bionic/libc/include/threads.h"
  },
  {
   "function_name" : "cnd_init",
   "linker_set_key" : "cnd_init",
   "parameters" :
   [
    {
     "referenced_type" : "_ZTIP14pthread_cond_t"
    }
   ],
   "return_type" : "_ZTIi",
   "source_file" : "bionic/libc/include/threads.h"
  },
  {
   "function_name" : "cnd_signal",
   "linker_set_key" : "cnd_signal",
   "parameters" :
   [
    {
     "referenced_type" : "_ZTIP14pthread_cond_t"
    }
   ],
   "return_type" : "_ZTIi",
   "source_file" : "bionic/libc/include/threads.h"
  },
  {
   "function_name" : "cnd_timedwait",
   "linker_set_key" : "cnd_timedwait",
   "parameters" :
   [
    {
     "referenced_type" : "_ZTIP14pthread_cond_t"
    },
    {
     "referenced_type" : "_ZTIP15pthread_mutex_t"
    },
    {
     "referenced_type" : "_ZTIPK8timespec"
    }
   ],
   "return_type" : "_ZTIi",
   "source_file" : "bionic/libc/include/threads.h"
  },
  {
   "function_name" : "cnd_wait",
   "linker_set_key" : "cnd_wait",
   "parameters" :
   [
    {
     "referenced_type" : "_ZTIP14pthread_cond_t"
    },
    {
     "referenced_type" : "_ZTIP15pthread_mutex_t"
    }
   ],
   "return_type" : "_ZTIi",
   "source_file" : "bionic/libc/include/threads.h"
  },
  {
   "function_name" : "connect",
   "linker_set_key" : "connect",
   "parameters" :
   [
    {
     "referenced_type" : "_ZTIi"
    },
    {
     "referenced_type" : "_ZTIPK8sockaddr"
    },
    {
     "referenced_type" : "_ZTIi"
    }
   ],
   "return_type" : "_ZTIi",
   "source_file" : "bionic/libc/include/sys/socket.h"
  },
  {
   "function_name" : "creat",
   "linker_set_key" : "creat",
   "parameters" :
   [
    {
     "referenced_type" : "_ZTIPKc"
    },
    {
     "referenced_type" : "_ZTIt"
    }
   ],
   "return_type" : "_ZTIi",
   "source_file" : "bionic/libc/include/fcntl.h"
  },
  {
   "function_name" : "ctermid",
   "linker_set_key" : "ctermid",
   "parameters" :
   [
    {
     "referenced_type" : "_ZTIPc"
    }
   ],
   "return_type" : "_ZTIPc",
   "source_file" : "bionic/libc/include/stdio.h"
  },
  {
   "function_name" : "ctime",
   "linker_set_key" : "ctime",
   "parameters" :
   [
    {
     "referenced_type" : "_ZTIPKl"
    }
   ],
   "return_type" : "_ZTIPc",
   "source_file" : "bionic/libc/include/time.h"
  },
  {
   "function_name" : "ctime64",
   "linker_set_key" : "ctime64",
   "parameters" :
   [
    {
     "referenced_type" : "_ZTIPKx"
    }
   ],
   "return_type" : "_ZTIPc",
   "source_file" : "bionic/libc/include/time64.h"
  },
  {
   "function_name" : "ctime64_r",
   "linker_set_key" : "ctime64_r",
   "parameters" :
   [
    {
     "referenced_type" : "_ZTIPKx"
    },
    {
     "referenced_type" : "_ZTIPc"
    }
   ],
   "return_type" : "_ZTIPc",
   "source_file" : "bionic/libc/include/time64.h"
  },
  {
   "function_name" : "ctime_r",
   "linker_set_key" : "ctime_r",
   "parameters" :
   [
    {
     "referenced_type" : "_ZTIPKl"
    },
    {
     "referenced_type" : "_ZTIPc"
    }
   ],
   "return_type" : "_ZTIPc",
   "source_file" : "bionic/libc/include/time.h"
  },
  {
   "function_name" : "daemon",
   "linker_set_key" : "daemon",
   "parameters" :
   [
    {
     "referenced_type" : "_ZTIi"
    },
    {
     "referenced_type" : "_ZTIi"
    }
   ],
   "return_type" : "_ZTIi",
   "source_file" : "bionic/libc/include/unistd.h"
  },
  {
   "function_name" : "difftime",
   "linker_set_key" : "difftime",
   "parameters" :
   [
    {
     "referenced_type" : "_ZTIl"
    },
    {
     "referenced_type" : "_ZTIl"
    }
   ],
   "return_type" : "_ZTId",
   "source_file" : "bionic/libc/include/time.h"
  },
  {
   "function_name" : "dirfd",
   "linker_set_key" : "dirfd",
   "parameters" :
   [
    {
     "referenced_type" : "_ZTIP3DIR"
    }
   ],
   "return_type" : "_ZTIi",
   "source_file" : "bionic/libc/include/dirent.h"
  },
  {
   "function_name" : "dirname",
   "linker_set_key" : "dirname",
   "parameters" :
   [
    {
     "referenced_type" : "_ZTIPKc"
    }
   ],
   "return_type" : "_ZTIPc",
   "source_file" : "bionic/libc/include/libgen.h"
  },
  {
   "function_name" : "dirname_r",
   "linker_set_key" : "dirname_r",
   "parameters" :
   [
    {
     "referenced_type" : "_ZTIPKc"
    },
    {
     "referenced_type" : "_ZTIPc"
    },
    {
     "referenced_type" : "_ZTIj"
    }
   ],
   "return_type" : "_ZTIi",
   "source_file" : "bionic/libc/include/libgen.h"
  },
  {
   "function_name" : "div",
   "linker_set_key" : "div",
   "parameters" :
   [
    {
     "referenced_type" : "_ZTIi"
    },
    {
     "referenced_type" : "_ZTIi"
    }
   ],
   "return_type" : "_ZTI5div_t",
   "source_file" : "bionic/libc/include/stdlib.h"
  },
  {
   "function_name" : "dn_expand",
   "linker_set_key" : "dn_expand",
   "parameters" :
   [
    {
     "referenced_type" : "_ZTIPKh"
    },
    {
     "referenced_type" : "_ZTIPKh"
    },
    {
     "referenced_type" : "_ZTIPKh"
    },
    {
     "referenced_type" : "_ZTIPc"
    },
    {
     "referenced_type" : "_ZTIi"
    }
   ],
   "return_type" : "_ZTIi",
   "source_file" : "bionic/libc/include/resolv.h"
  },
  {
   "function_name" : "dprintf",
   "linker_set_key" : "dprintf",
   "parameters" :
   [
    {
     "referenced_type" : "_ZTIi"
    },
    {
     "referenced_type" : "_ZTIPKc"
    }
   ],
   "return_type" : "_ZTIi",
   "source_file" : "bionic/libc/include/stdio.h"
  },
  {
   "function_name" : "drand48",
   "linker_set_key" : "drand48",
   "return_type" : "_ZTId",
   "source_file" : "bionic/libc/include/stdlib.h"
  },
  {
   "function_name" : "dup",
   "linker_set_key" : "dup",
   "parameters" :
   [
    {
     "referenced_type" : "_ZTIi"
    }
   ],
   "return_type" : "_ZTIi",
   "source_file" : "bionic/libc/include/unistd.h"
  },
  {
   "function_name" : "dup2",
   "linker_set_key" : "dup2",
   "parameters" :
   [
    {
     "referenced_type" : "_ZTIi"
    },
    {
     "referenced_type" : "_ZTIi"
    }
   ],
   "return_type" : "_ZTIi",
   "source_file" : "bionic/libc/include/unistd.h"
  },
  {
   "function_name" : "dup3",
   "linker_set_key" : "dup3",
   "parameters" :
   [
    {
     "referenced_type" : "_ZTIi"
    },
    {
     "referenced_type" : "_ZTIi"
    },
    {
     "referenced_type" : "_ZTIi"
    }
   ],
   "return_type" : "_ZTIi",
   "source_file" : "bionic/libc/include/unistd.h"
  },
  {
   "function_name" : "duplocale",
   "linker_set_key" : "duplocale",
   "parameters" :
   [
    {
     "referenced_type" : "_ZTIP10__locale_t"
    }
   ],
   "return_type" : "_ZTIP10__locale_t",
   "source_file" : "bionic/libc/include/locale.h"
  },
  {
   "function_name" : "endgrent",
   "linker_set_key" : "endgrent",
   "return_type" : "_ZTIv",
   "source_file" : "bionic/libc/include/grp.h"
  },
  {
   "function_name" : "endhostent",
   "linker_set_key" : "endhostent",
   "return_type" : "_ZTIv",
   "source_file" : "bionic/libc/include/netdb.h"
  },
  {
   "function_name" : "endmntent",
   "linker_set_key" : "endmntent",
   "parameters" :
   [
    {
     "referenced_type" : "_ZTIP7__sFILE"
    }
   ],
   "return_type" : "_ZTIi",
   "source_file" : "bionic/libc/include/mntent.h"
  },
  {
   "function_name" : "endnetent",
   "linker_set_key" : "endnetent",
   "return_type" : "_ZTIv",
   "source_file" : "bionic/libc/include/netdb.h"
  },
  {
   "function_name" : "endprotoent",
   "linker_set_key" : "endprotoent",
   "return_type" : "_ZTIv",
   "source_file" : "bionic/libc/include/netdb.h"
  },
  {
   "function_name" : "endpwent",
   "linker_set_key" : "endpwent",
   "return_type" : "_ZTIv",
   "source_file" : "bionic/libc/include/pwd.h"
  },
  {
   "function_name" : "endservent",
   "linker_set_key" : "endservent",
   "return_type" : "_ZTIv",
   "source_file" : "bionic/libc/include/netdb.h"
  },
  {
   "function_name" : "endutent",
   "linker_set_key" : "endutent",
   "return_type" : "_ZTIv",
   "source_file" : "bionic/libc/include/utmp.h"
  },
  {
   "function_name" : "epoll_create",
   "linker_set_key" : "epoll_create",
   "parameters" :
   [
    {
     "referenced_type" : "_ZTIi"
    }
   ],
   "return_type" : "_ZTIi",
   "source_file" : "bionic/libc/include/sys/epoll.h"
  },
  {
   "function_name" : "epoll_create1",
   "linker_set_key" : "epoll_create1",
   "parameters" :
   [
    {
     "referenced_type" : "_ZTIi"
    }
   ],
   "return_type" : "_ZTIi",
   "source_file" : "bionic/libc/include/sys/epoll.h"
  },
  {
   "function_name" : "epoll_pwait",
   "linker_set_key" : "epoll_pwait",
   "parameters" :
   [
    {
     "referenced_type" : "_ZTIi"
    },
    {
     "referenced_type" : "_ZTIP11epoll_event"
    },
    {
     "referenced_type" : "_ZTIi"
    },
    {
     "referenced_type" : "_ZTIi"
    },
    {
     "referenced_type" : "_ZTIPKm"
    }
   ],
   "return_type" : "_ZTIi",
   "source_file" : "bionic/libc/include/sys/epoll.h"
  },
  {
   "function_name" : "epoll_pwait2",
   "linker_set_key" : "epoll_pwait2",
   "parameters" :
   [
    {
     "referenced_type" : "_ZTIi"
    },
    {
     "referenced_type" : "_ZTIP11epoll_event"
    },
    {
     "referenced_type" : "_ZTIi"
    },
    {
     "referenced_type" : "_ZTIPK8timespec"
    },
    {
     "referenced_type" : "_ZTIPKm"
    }
   ],
   "return_type" : "_ZTIi",
   "source_file" : "bionic/libc/include/sys/epoll.h"
  },
  {
   "function_name" : "epoll_pwait2_64",
   "linker_set_key" : "epoll_pwait2_64",
   "parameters" :
   [
    {
     "referenced_type" : "_ZTIi"
    },
    {
     "referenced_type" : "_ZTIP11epoll_event"
    },
    {
     "referenced_type" : "_ZTIi"
    },
    {
     "referenced_type" : "_ZTIPK8timespec"
    },
    {
     "referenced_type" : "_ZTIPK10sigset64_t"
    }
   ],
   "return_type" : "_ZTIi",
   "source_file" : "bionic/libc/include/sys/epoll.h"
  },
  {
   "function_name" : "epoll_pwait64",
   "linker_set_key" : "epoll_pwait64",
   "parameters" :
   [
    {
     "referenced_type" : "_ZTIi"
    },
    {
     "referenced_type" : "_ZTIP11epoll_event"
    },
    {
     "referenced_type" : "_ZTIi"
    },
    {
     "referenced_type" : "_ZTIi"
    },
    {
     "referenced_type" : "_ZTIPK10sigset64_t"
    }
   ],
   "return_type" : "_ZTIi",
   "source_file" : "bionic/libc/include/sys/epoll.h"
  },
  {
   "function_name" : "epoll_wait",
   "linker_set_key" : "epoll_wait",
   "parameters" :
   [
    {
     "referenced_type" : "_ZTIi"
    },
    {
     "referenced_type" : "_ZTIP11epoll_event"
    },
    {
     "referenced_type" : "_ZTIi"
    },
    {
     "referenced_type" : "_ZTIi"
    }
   ],
   "return_type" : "_ZTIi",
   "source_file" : "bionic/libc/include/sys/epoll.h"
  },
  {
   "function_name" : "erand48",
   "linker_set_key" : "erand48",
   "parameters" :
   [
    {
     "referenced_type" : "_ZTIPt"
    }
   ],
   "return_type" : "_ZTId",
   "source_file" : "bionic/libc/include/stdlib.h"
  },
  {
   "function_name" : "err",
   "linker_set_key" : "err",
   "parameters" :
   [
    {
     "referenced_type" : "_ZTIi"
    },
    {
     "referenced_type" : "_ZTIPKc"
    }
   ],
   "return_type" : "_ZTIv",
   "source_file" : "bionic/libc/include/err.h"
  },
  {
   "function_name" : "error",
   "linker_set_key" : "error",
   "parameters" :
   [
    {
     "referenced_type" : "_ZTIi"
    },
    {
     "referenced_type" : "_ZTIi"
    },
    {
     "referenced_type" : "_ZTIPKc"
    }
   ],
   "return_type" : "_ZTIv",
   "source_file" : "bionic/libc/include/error.h"
  },
  {
   "function_name" : "error_at_line",
   "linker_set_key" : "error_at_line",
   "parameters" :
   [
    {
     "referenced_type" : "_ZTIi"
    },
    {
     "referenced_type" : "_ZTIi"
    },
    {
     "referenced_type" : "_ZTIPKc"
    },
    {
     "referenced_type" : "_ZTIj"
    },
    {
     "referenced_type" : "_ZTIPKc"
    }
   ],
   "return_type" : "_ZTIv",
   "source_file" : "bionic/libc/include/error.h"
  },
  {
   "function_name" : "errx",
   "linker_set_key" : "errx",
   "parameters" :
   [
    {
     "referenced_type" : "_ZTIi"
    },
    {
     "referenced_type" : "_ZTIPKc"
    }
   ],
   "return_type" : "_ZTIv",
   "source_file" : "bionic/libc/include/err.h"
  },
  {
   "function_name" : "ether_aton",
   "linker_set_key" : "ether_aton",
   "parameters" :
   [
    {
     "referenced_type" : "_ZTIPKc"
    }
   ],
   "return_type" : "_ZTIP10ether_addr",
   "source_file" : "bionic/libc/include/netinet/ether.h"
  },
  {
   "function_name" : "ether_aton_r",
   "linker_set_key" : "ether_aton_r",
   "parameters" :
   [
    {
     "referenced_type" : "_ZTIPKc"
    },
    {
     "referenced_type" : "_ZTIP10ether_addr"
    }
   ],
   "return_type" : "_ZTIP10ether_addr",
   "source_file" : "bionic/libc/include/netinet/ether.h"
  },
  {
   "function_name" : "ether_ntoa",
   "linker_set_key" : "ether_ntoa",
   "parameters" :
   [
    {
     "referenced_type" : "_ZTIPK10ether_addr"
    }
   ],
   "return_type" : "_ZTIPc",
   "source_file" : "bionic/libc/include/netinet/ether.h"
  },
  {
   "function_name" : "ether_ntoa_r",
   "linker_set_key" : "ether_ntoa_r",
   "parameters" :
   [
    {
     "referenced_type" : "_ZTIPK10ether_addr"
    },
    {
     "referenced_type" : "_ZTIPc"
    }
   ],
   "return_type" : "_ZTIPc",
   "source_file" : "bionic/libc/include/netinet/ether.h"
  },
  {
   "function_name" : "eventfd",
   "linker_set_key" : "eventfd",
   "parameters" :
   [
    {
     "referenced_type" : "_ZTIj"
    },
    {
     "referenced_type" : "_ZTIi"
    }
   ],
   "return_type" : "_ZTIi",
   "source_file" : "bionic/libc/include/sys/eventfd.h"
  },
  {
   "function_name" : "eventfd_read",
   "linker_set_key" : "eventfd_read",
   "parameters" :
   [
    {
     "referenced_type" : "_ZTIi"
    },
    {
     "referenced_type" : "_ZTIPy"
    }
   ],
   "return_type" : "_ZTIi",
   "source_file" : "bionic/libc/include/sys/eventfd.h"
  },
  {
   "function_name" : "eventfd_write",
   "linker_set_key" : "eventfd_write",
   "parameters" :
   [
    {
     "referenced_type" : "_ZTIi"
    },
    {
     "referenced_type" : "_ZTIy"
    }
   ],
   "return_type" : "_ZTIi",
   "source_file" : "bionic/libc/include/sys/eventfd.h"
  },
  {
   "function_name" : "execl",
   "linker_set_key" : "execl",
   "parameters" :
   [
    {
     "referenced_type" : "_ZTIPKc"
    },
    {
     "referenced_type" : "_ZTIPKc"
    }
   ],
   "return_type" : "_ZTIi",
   "source_file" : "bionic/libc/include/unistd.h"
  },
  {
   "function_name" : "execle",
   "linker_set_key" : "execle",
   "parameters" :
   [
    {
     "referenced_type" : "_ZTIPKc"
    },
    {
     "referenced_type" : "_ZTIPKc"
    }
   ],
   "return_type" : "_ZTIi",
   "source_file" : "bionic/libc/include/unistd.h"
  },
  {
   "function_name" : "execlp",
   "linker_set_key" : "execlp",
   "parameters" :
   [
    {
     "referenced_type" : "_ZTIPKc"
    },
    {
     "referenced_type" : "_ZTIPKc"
    }
   ],
   "return_type" : "_ZTIi",
   "source_file" : "bionic/libc/include/unistd.h"
  },
  {
   "function_name" : "execv",
   "linker_set_key" : "execv",
   "parameters" :
   [
    {
     "referenced_type" : "_ZTIPKc"
    },
    {
     "referenced_type" : "_ZTIPKPc"
    }
   ],
   "return_type" : "_ZTIi",
   "source_file" : "bionic/libc/include/unistd.h"
  },
  {
   "function_name" : "execve",
   "linker_set_key" : "execve",
   "parameters" :
   [
    {
     "referenced_type" : "_ZTIPKc"
    },
    {
     "referenced_type" : "_ZTIPKPc"
    },
    {
     "referenced_type" : "_ZTIPKPc"
    }
   ],
   "return_type" : "_ZTIi",
   "source_file" : "bionic/libc/include/unistd.h"
  },
  {
   "function_name" : "execvp",
   "linker_set_key" : "execvp",
   "parameters" :
   [
    {
     "referenced_type" : "_ZTIPKc"
    },
    {
     "referenced_type" : "_ZTIPKPc"
    }
   ],
   "return_type" : "_ZTIi",
   "source_file" : "bionic/libc/include/unistd.h"
  },
  {
   "function_name" : "execvpe",
   "linker_set_key" : "execvpe",
   "parameters" :
   [
    {
     "referenced_type" : "_ZTIPKc"
    },
    {
     "referenced_type" : "_ZTIPKPc"
    },
    {
     "referenced_type" : "_ZTIPKPc"
    }
   ],
   "return_type" : "_ZTIi",
   "source_file" : "bionic/libc/include/unistd.h"
  },
  {
   "function_name" : "exit",
   "linker_set_key" : "exit",
   "parameters" :
   [
    {
     "referenced_type" : "_ZTIi"
    }
   ],
   "return_type" : "_ZTIv",
   "source_file" : "bionic/libc/include/stdlib.h"
  },
  {
   "function_name" : "faccessat",
   "linker_set_key" : "faccessat",
   "parameters" :
   [
    {
     "referenced_type" : "_ZTIi"
    },
    {
     "referenced_type" : "_ZTIPKc"
    },
    {
     "referenced_type" : "_ZTIi"
    },
    {
     "referenced_type" : "_ZTIi"
    }
   ],
   "return_type" : "_ZTIi",
   "source_file" : "bionic/libc/include/unistd.h"
  },
  {
   "function_name" : "fallocate",
   "linker_set_key" : "fallocate",
   "parameters" :
   [
    {
     "referenced_type" : "_ZTIi"
    },
    {
     "referenced_type" : "_ZTIi"
    },
    {
     "referenced_type" : "_ZTIl"
    },
    {
     "referenced_type" : "_ZTIl"
    }
   ],
   "return_type" : "_ZTIi",
   "source_file" : "bionic/libc/include/fcntl.h"
  },
  {
   "function_name" : "fchmod",
   "linker_set_key" : "fchmod",
   "parameters" :
   [
    {
     "referenced_type" : "_ZTIi"
    },
    {
     "referenced_type" : "_ZTIt"
    }
   ],
   "return_type" : "_ZTIi",
   "source_file" : "bionic/libc/include/sys/stat.h"
  },
  {
   "function_name" : "fchmodat",
   "linker_set_key" : "fchmodat",
   "parameters" :
   [
    {
     "referenced_type" : "_ZTIi"
    },
    {
     "referenced_type" : "_ZTIPKc"
    },
    {
     "referenced_type" : "_ZTIt"
    },
    {
     "referenced_type" : "_ZTIi"
    }
   ],
   "return_type" : "_ZTIi",
   "source_file" : "bionic/libc/include/sys/stat.h"
  },
  {
   "function_name" : "fclose",
   "linker_set_key" : "fclose",
   "parameters" :
   [
    {
     "referenced_type" : "_ZTIP7__sFILE"
    }
   ],
   "return_type" : "_ZTIi",
   "source_file" : "bionic/libc/include/stdio.h"
  },
  {
   "function_name" : "fcntl",
   "linker_set_key" : "fcntl",
   "parameters" :
   [
    {
     "referenced_type" : "_ZTIi"
    },
    {
     "referenced_type" : "_ZTIi"
    }
   ],
   "return_type" : "_ZTIi",
   "source_file" : "bionic/libc/include/bits/fcntl.h"
  },
  {
   "function_name" : "fdopen",
   "linker_set_key" : "fdopen",
   "parameters" :
   [
    {
     "referenced_type" : "_ZTIi"
    },
    {
     "referenced_type" : "_ZTIPKc"
    }
   ],
   "return_type" : "_ZTIP7__sFILE",
   "source_file" : "bionic/libc/include/stdio.h"
  },
  {
   "function_name" : "fdopendir",
   "linker_set_key" : "fdopendir",
   "parameters" :
   [
    {
     "referenced_type" : "_ZTIi"
    }
   ],
   "return_type" : "_ZTIP3DIR",
   "source_file" : "bionic/libc/include/dirent.h"
  },
  {
   "function_name" : "feof",
   "linker_set_key" : "feof",
   "parameters" :
   [
    {
     "referenced_type" : "_ZTIP7__sFILE"
    }
   ],
   "return_type" : "_ZTIi",
   "source_file" : "bionic/libc/include/stdio.h"
  },
  {
   "function_name" : "feof_unlocked",
   "linker_set_key" : "feof_unlocked",
   "parameters" :
   [
    {
     "referenced_type" : "_ZTIP7__sFILE"
    }
   ],
   "return_type" : "_ZTIi",
   "source_file" : "bionic/libc/include/stdio.h"
  },
  {
   "function_name" : "ferror",
   "linker_set_key" : "ferror",
   "parameters" :
   [
    {
     "referenced_type" : "_ZTIP7__sFILE"
    }
   ],
   "return_type" : "_ZTIi",
   "source_file" : "bionic/libc/include/stdio.h"
  },
  {
   "function_name" : "ferror_unlocked",
   "linker_set_key" : "ferror_unlocked",
   "parameters" :
   [
    {
     "referenced_type" : "_ZTIP7__sFILE"
    }
   ],
   "return_type" : "_ZTIi",
   "source_file" : "bionic/libc/include/stdio.h"
  },
  {
   "function_name" : "fexecve",
   "linker_set_key" : "fexecve",
   "parameters" :
   [
    {
     "referenced_type" : "_ZTIi"
    },
    {
     "referenced_type" : "_ZTIPKPc"
    },
    {
     "referenced_type" : "_ZTIPKPc"
    }
   ],
   "return_type" : "_ZTIi",
   "source_file" : "bionic/libc/include/unistd.h"
  },
  {
   "function_name" : "fflush",
   "linker_set_key" : "fflush",
   "parameters" :
   [
    {
     "referenced_type" : "_ZTIP7__sFILE"
    }
   ],
   "return_type" : "_ZTIi",
   "source_file" : "bionic/libc/include/stdio.h"
  },
  {
   "function_name" : "fflush_unlocked",
   "linker_set_key" : "fflush_unlocked",
   "parameters" :
   [
    {
     "referenced_type" : "_ZTIP7__sFILE"
    }
   ],
   "return_type" : "_ZTIi",
   "source_file" : "bionic/libc/include/stdio.h"
  },
  {
   "function_name" : "ffs",
   "linker_set_key" : "ffs",
   "parameters" :
   [
    {
     "referenced_type" : "_ZTIi"
    }
   ],
   "return_type" : "_ZTIi",
   "source_file" : "bionic/libc/include/strings.h"
  },
  {
   "function_name" : "ffsl",
   "linker_set_key" : "ffsl",
   "parameters" :
   [
    {
     "referenced_type" : "_ZTIl"
    }
   ],
   "return_type" : "_ZTIi",
   "source_file" : "bionic/libc/include/strings.h"
  },
  {
   "function_name" : "ffsll",
   "linker_set_key" : "ffsll",
   "parameters" :
   [
    {
     "referenced_type" : "_ZTIx"
    }
   ],
   "return_type" : "_ZTIi",
   "source_file" : "bionic/libc/include/strings.h"
  },
  {
   "function_name" : "fgetc",
   "linker_set_key" : "fgetc",
   "parameters" :
   [
    {
     "referenced_type" : "_ZTIP7__sFILE"
    }
   ],
   "return_type" : "_ZTIi",
   "source_file" : "bionic/libc/include/stdio.h"
  },
  {
   "function_name" : "fgetc_unlocked",
   "linker_set_key" : "fgetc_unlocked",
   "parameters" :
   [
    {
     "referenced_type" : "_ZTIP7__sFILE"
    }
   ],
   "return_type" : "_ZTIi",
   "source_file" : "bionic/libc/include/stdio.h"
  },
  {
   "function_name" : "fgetln",
   "linker_set_key" : "fgetln",
   "parameters" :
   [
    {
     "referenced_type" : "_ZTIP7__sFILE"
    },
    {
     "referenced_type" : "_ZTIPj"
    }
   ],
   "return_type" : "_ZTIPc",
   "source_file" : "bionic/libc/include/stdio.h"
  },
  {
   "function_name" : "fgetpos",
   "linker_set_key" : "fgetpos",
   "parameters" :
   [
    {
     "referenced_type" : "_ZTIP7__sFILE"
    },
    {
     "referenced_type" : "_ZTIPl"
    }
   ],
   "return_type" : "_ZTIi",
   "source_file" : "bionic/libc/include/stdio.h"
  },
  {
   "function_name" : "fgetpos64",
   "linker_set_key" : "fgetpos64",
   "parameters" :
   [
    {
     "referenced_type" : "_ZTIP7__sFILE"
    },
    {
     "referenced_type" : "_ZTIPx"
    }
   ],
   "return_type" : "_ZTIi",
   "source_file" : "bionic/libc/include/stdio.h"
  },
  {
   "function_name" : "fgets",
   "linker_set_key" : "fgets",
   "parameters" :
   [
    {
     "referenced_type" : "_ZTIPc"
    },
    {
     "referenced_type" : "_ZTIi"
    },
    {
     "referenced_type" : "_ZTIP7__sFILE"
    }
   ],
   "return_type" : "_ZTIPc",
   "source_file" : "bionic/libc/include/stdio.h"
  },
  {
   "function_name" : "fgets_unlocked",
   "linker_set_key" : "fgets_unlocked",
   "parameters" :
   [
    {
     "referenced_type" : "_ZTIPc"
    },
    {
     "referenced_type" : "_ZTIi"
    },
    {
     "referenced_type" : "_ZTIP7__sFILE"
    }
   ],
   "return_type" : "_ZTIPc",
   "source_file" : "bionic/libc/include/stdio.h"
  },
  {
   "function_name" : "fgetwc",
   "linker_set_key" : "fgetwc",
   "parameters" :
   [
    {
     "referenced_type" : "_ZTIP7__sFILE"
    }
   ],
   "return_type" : "_ZTIj",
   "source_file" : "bionic/libc/include/wchar.h"
  },
  {
   "function_name" : "fgetws",
   "linker_set_key" : "fgetws",
   "parameters" :
   [
    {
     "referenced_type" : "_ZTIPj"
    },
    {
     "referenced_type" : "_ZTIi"
    },
    {
     "referenced_type" : "_ZTIP7__sFILE"
    }
   ],
   "return_type" : "_ZTIPj",
   "source_file" : "bionic/libc/include/wchar.h"
  },
  {
   "function_name" : "fgetxattr",
   "linker_set_key" : "fgetxattr",
   "parameters" :
   [
    {
     "referenced_type" : "_ZTIi"
    },
    {
     "referenced_type" : "_ZTIPKc"
    },
    {
     "referenced_type" : "_ZTIPv"
    },
    {
     "referenced_type" : "_ZTIj"
    }
   ],
   "return_type" : "_ZTIi",
   "source_file" : "bionic/libc/include/sys/xattr.h"
  },
  {
   "function_name" : "fileno",
   "linker_set_key" : "fileno",
   "parameters" :
   [
    {
     "referenced_type" : "_ZTIP7__sFILE"
    }
   ],
   "return_type" : "_ZTIi",
   "source_file" : "bionic/libc/include/stdio.h"
  },
  {
   "function_name" : "fileno_unlocked",
   "linker_set_key" : "fileno_unlocked",
   "parameters" :
   [
    {
     "referenced_type" : "_ZTIP7__sFILE"
    }
   ],
   "return_type" : "_ZTIi",
   "source_file" : "bionic/libc/include/stdio.h"
  },
  {
   "function_name" : "flistxattr",
   "linker_set_key" : "flistxattr",
   "parameters" :
   [
    {
     "referenced_type" : "_ZTIi"
    },
    {
     "referenced_type" : "_ZTIPc"
    },
    {
     "referenced_type" : "_ZTIj"
    }
   ],
   "return_type" : "_ZTIi",
   "source_file" : "bionic/libc/include/sys/xattr.h"
  },
  {
   "function_name" : "flockfile",
   "linker_set_key" : "flockfile",
   "parameters" :
   [
    {
     "referenced_type" : "_ZTIP7__sFILE"
    }
   ],
   "return_type" : "_ZTIv",
   "source_file" : "bionic/libc/include/stdio.h"
  },
  {
   "function_name" : "fmemopen",
   "linker_set_key" : "fmemopen",
   "parameters" :
   [
    {
     "referenced_type" : "_ZTIPv"
    },
    {
     "referenced_type" : "_ZTIj"
    },
    {
     "referenced_type" : "_ZTIPKc"
    }
   ],
   "return_type" : "_ZTIP7__sFILE",
   "source_file" : "bionic/libc/include/stdio.h"
  },
  {
   "function_name" : "fnmatch",
   "linker_set_key" : "fnmatch",
   "parameters" :
   [
    {
     "referenced_type" : "_ZTIPKc"
    },
    {
     "referenced_type" : "_ZTIPKc"
    },
    {
     "referenced_type" : "_ZTIi"
    }
   ],
   "return_type" : "_ZTIi",
   "source_file" : "bionic/libc/include/fnmatch.h"
  },
  {
   "function_name" : "fopen",
   "linker_set_key" : "fopen",
   "parameters" :
   [
    {
     "referenced_type" : "_ZTIPKc"
    },
    {
     "referenced_type" : "_ZTIPKc"
    }
   ],
   "return_type" : "_ZTIP7__sFILE",
   "source_file" : "bionic/libc/include/stdio.h"
  },
  {
   "function_name" : "fork",
   "linker_set_key" : "fork",
   "return_type" : "_ZTIi",
   "source_file" : "bionic/libc/include/unistd.h"
  },
  {
   "function_name" : "forkpty",
   "linker_set_key" : "forkpty",
   "parameters" :
   [
    {
     "referenced_type" : "_ZTIPi"
    },
    {
     "referenced_type" : "_ZTIPc"
    },
    {
     "referenced_type" : "_ZTIPK7termios"
    },
    {
     "referenced_type" : "_ZTIPK7winsize"
    }
   ],
   "return_type" : "_ZTIi",
   "source_file" : "bionic/libc/include/pty.h"
  },
  {
   "function_name" : "fpathconf",
   "linker_set_key" : "fpathconf",
   "parameters" :
   [
    {
     "referenced_type" : "_ZTIi"
    },
    {
     "referenced_type" : "_ZTIi"
    }
   ],
   "return_type" : "_ZTIl",
   "source_file" : "bionic/libc/include/unistd.h"
  },
  {
   "function_name" : "fprintf",
   "linker_set_key" : "fprintf",
   "parameters" :
   [
    {
     "referenced_type" : "_ZTIP7__sFILE"
    },
    {
     "referenced_type" : "_ZTIPKc"
    }
   ],
   "return_type" : "_ZTIi",
   "source_file" : "bionic/libc/include/stdio.h"
  },
  {
   "function_name" : "fpurge",
   "linker_set_key" : "fpurge",
   "parameters" :
   [
    {
     "referenced_type" : "_ZTIP7__sFILE"
    }
   ],
   "return_type" : "_ZTIi",
   "source_file" : "bionic/libc/include/stdio.h"
  },
  {
   "function_name" : "fputc",
   "linker_set_key" : "fputc",
   "parameters" :
   [
    {
     "referenced_type" : "_ZTIi"
    },
    {
     "referenced_type" : "_ZTIP7__sFILE"
    }
   ],
   "return_type" : "_ZTIi",
   "source_file" : "bionic/libc/include/stdio.h"
  },
  {
   "function_name" : "fputc_unlocked",
   "linker_set_key" : "fputc_unlocked",
   "parameters" :
   [
    {
     "referenced_type" : "_ZTIi"
    },
    {
     "referenced_type" : "_ZTIP7__sFILE"
    }
   ],
   "return_type" : "_ZTIi",
   "source_file" : "bionic/libc/include/stdio.h"
  },
  {
   "function_name" : "fputs",
   "linker_set_key" : "fputs",
   "parameters" :
   [
    {
     "referenced_type" : "_ZTIPKc"
    },
    {
     "referenced_type" : "_ZTIP7__sFILE"
    }
   ],
   "return_type" : "_ZTIi",
   "source_file" : "bionic/libc/include/stdio.h"
  },
  {
   "function_name" : "fputs_unlocked",
   "linker_set_key" : "fputs_unlocked",
   "parameters" :
   [
    {
     "referenced_type" : "_ZTIPKc"
    },
    {
     "referenced_type" : "_ZTIP7__sFILE"
    }
   ],
   "return_type" : "_ZTIi",
   "source_file" : "bionic/libc/include/stdio.h"
  },
  {
   "function_name" : "fputwc",
   "linker_set_key" : "fputwc",
   "parameters" :
   [
    {
     "referenced_type" : "_ZTIj"
    },
    {
     "referenced_type" : "_ZTIP7__sFILE"
    }
   ],
   "return_type" : "_ZTIj",
   "source_file" : "bionic/libc/include/wchar.h"
  },
  {
   "function_name" : "fputws",
   "linker_set_key" : "fputws",
   "parameters" :
   [
    {
     "referenced_type" : "_ZTIPKj"
    },
    {
     "referenced_type" : "_ZTIP7__sFILE"
    }
   ],
   "return_type" : "_ZTIi",
   "source_file" : "bionic/libc/include/wchar.h"
  },
  {
   "function_name" : "fread",
   "linker_set_key" : "fread",
   "parameters" :
   [
    {
     "referenced_type" : "_ZTIPv"
    },
    {
     "referenced_type" : "_ZTIj"
    },
    {
     "referenced_type" : "_ZTIj"
    },
    {
     "referenced_type" : "_ZTIP7__sFILE"
    }
   ],
   "return_type" : "_ZTIj",
   "source_file" : "bionic/libc/include/stdio.h"
  },
  {
   "function_name" : "fread_unlocked",
   "linker_set_key" : "fread_unlocked",
   "parameters" :
   [
    {
     "referenced_type" : "_ZTIPv"
    },
    {
     "referenced_type" : "_ZTIj"
    },
    {
     "referenced_type" : "_ZTIj"
    },
    {
     "referenced_type" : "_ZTIP7__sFILE"
    }
   ],
   "return_type" : "_ZTIj",
   "source_file" : "bionic/libc/include/stdio.h"
  },
  {
   "function_name" : "free",
   "linker_set_key" : "free",
   "parameters" :
   [
    {
     "referenced_type" : "_ZTIPv"
    }
   ],
   "return_type" : "_ZTIv",
   "source_file" : "bionic/libc/include/malloc.h"
  },
  {
   "function_name" : "freeaddrinfo",
   "linker_set_key" : "freeaddrinfo",
   "parameters" :
   [
    {
     "referenced_type" : "_ZTIP8addrinfo"
    }
   ],
   "return_type" : "_ZTIv",
   "source_file" : "bionic/libc/include/netdb.h"
  },
  {
   "function_name" : "freeifaddrs",
   "linker_set_key" : "freeifaddrs",
   "parameters" :
   [
    {
     "referenced_type" : "_ZTIP7ifaddrs"
    }
   ],
   "return_type" : "_ZTIv",
   "source_file" : "bionic/libc/include/ifaddrs.h"
  },
  {
   "function_name" : "freelocale",
   "linker_set_key" : "freelocale",
   "parameters" :
   [
    {
     "referenced_type" : "_ZTIP10__locale_t"
    }
   ],
   "return_type" : "_ZTIv",
   "source_file" : "bionic/libc/include/locale.h"
  },
  {
   "function_name" : "freopen",
   "linker_set_key" : "freopen",
   "parameters" :
   [
    {
     "referenced_type" : "_ZTIPKc"
    },
    {
     "referenced_type" : "_ZTIPKc"
    },
    {
     "referenced_type" : "_ZTIP7__sFILE"
    }
   ],
   "return_type" : "_ZTIP7__sFILE",
   "source_file" : "bionic/libc/include/stdio.h"
  },
  {
   "function_name" : "fscanf",
   "linker_set_key" : "fscanf",
   "parameters" :
   [
    {
     "referenced_type" : "_ZTIP7__sFILE"
    },
    {
     "referenced_type" : "_ZTIPKc"
    }
   ],
   "return_type" : "_ZTIi",
   "source_file" : "bionic/libc/include/stdio.h"
  },
  {
   "function_name" : "fseeko",
   "linker_set_key" : "fseeko",
   "parameters" :
   [
    {
     "referenced_type" : "_ZTIP7__sFILE"
    },
    {
     "referenced_type" : "_ZTIl"
    },
    {
     "referenced_type" : "_ZTIi"
    }
   ],
   "return_type" : "_ZTIi",
   "source_file" : "bionic/libc/include/stdio.h"
  },
  {
   "function_name" : "fseeko64",
   "linker_set_key" : "fseeko64",
   "parameters" :
   [
    {
     "referenced_type" : "_ZTIP7__sFILE"
    },
    {
     "referenced_type" : "_ZTIx"
    },
    {
     "referenced_type" : "_ZTIi"
    }
   ],
   "return_type" : "_ZTIi",
   "source_file" : "bionic/libc/include/stdio.h"
  },
  {
   "function_name" : "fsetpos",
   "linker_set_key" : "fsetpos",
   "parameters" :
   [
    {
     "referenced_type" : "_ZTIP7__sFILE"
    },
    {
     "referenced_type" : "_ZTIPKl"
    }
   ],
   "return_type" : "_ZTIi",
   "source_file" : "bionic/libc/include/stdio.h"
  },
  {
   "function_name" : "fsetpos64",
   "linker_set_key" : "fsetpos64",
   "parameters" :
   [
    {
     "referenced_type" : "_ZTIP7__sFILE"
    },
    {
     "referenced_type" : "_ZTIPKx"
    }
   ],
   "return_type" : "_ZTIi",
   "source_file" : "bionic/libc/include/stdio.h"
  },
  {
   "function_name" : "fsetxattr",
   "linker_set_key" : "fsetxattr",
   "parameters" :
   [
    {
     "referenced_type" : "_ZTIi"
    },
    {
     "referenced_type" : "_ZTIPKc"
    },
    {
     "referenced_type" : "_ZTIPKv"
    },
    {
     "referenced_type" : "_ZTIj"
    },
    {
     "referenced_type" : "_ZTIi"
    }
   ],
   "return_type" : "_ZTIi",
   "source_file" : "bionic/libc/include/sys/xattr.h"
  },
  {
   "function_name" : "fstatfs",
   "linker_set_key" : "fstatfs",
   "parameters" :
   [
    {
     "referenced_type" : "_ZTIi"
    },
    {
     "referenced_type" : "_ZTIP6statfs"
    }
   ],
   "return_type" : "_ZTIi",
   "source_file" : "bionic/libc/include/sys/vfs.h"
  },
  {
   "function_name" : "fstatvfs",
   "linker_set_key" : "fstatvfs",
   "parameters" :
   [
    {
     "referenced_type" : "_ZTIi"
    },
    {
     "referenced_type" : "_ZTIP7statvfs"
    }
   ],
   "return_type" : "_ZTIi",
   "source_file" : "bionic/libc/include/sys/statvfs.h"
  },
  {
   "function_name" : "ftello",
   "linker_set_key" : "ftello",
   "parameters" :
   [
    {
     "referenced_type" : "_ZTIP7__sFILE"
    }
   ],
   "return_type" : "_ZTIl",
   "source_file" : "bionic/libc/include/stdio.h"
  },
  {
   "function_name" : "ftello64",
   "linker_set_key" : "ftello64",
   "parameters" :
   [
    {
     "referenced_type" : "_ZTIP7__sFILE"
    }
   ],
   "return_type" : "_ZTIx",
   "source_file" : "bionic/libc/include/stdio.h"
  },
  {
   "function_name" : "ftok",
   "linker_set_key" : "ftok",
   "parameters" :
   [
    {
     "referenced_type" : "_ZTIPKc"
    },
    {
     "referenced_type" : "_ZTIi"
    }
   ],
   "return_type" : "_ZTIi",
   "source_file" : "bionic/libc/include/sys/ipc.h"
  },
  {
   "function_name" : "ftruncate",
   "linker_set_key" : "ftruncate",
   "parameters" :
   [
    {
     "referenced_type" : "_ZTIi"
    },
    {
     "referenced_type" : "_ZTIl"
    }
   ],
   "return_type" : "_ZTIi",
   "source_file" : "bionic/libc/include/unistd.h"
  },
  {
   "function_name" : "ftrylockfile",
   "linker_set_key" : "ftrylockfile",
   "parameters" :
   [
    {
     "referenced_type" : "_ZTIP7__sFILE"
    }
   ],
   "return_type" : "_ZTIi",
   "source_file" : "bionic/libc/include/stdio.h"
  },
  {
   "function_name" : "fts_children",
   "linker_set_key" : "fts_children",
   "parameters" :
   [
    {
     "referenced_type" : "_ZTIP3FTS"
    },
    {
     "referenced_type" : "_ZTIi"
    }
   ],
   "return_type" : "_ZTIP7_ftsent",
   "source_file" : "bionic/libc/include/fts.h"
  },
  {
   "function_name" : "fts_close",
   "linker_set_key" : "fts_close",
   "parameters" :
   [
    {
     "referenced_type" : "_ZTIP3FTS"
    }
   ],
   "return_type" : "_ZTIi",
   "source_file" : "bionic/libc/include/fts.h"
  },
  {
   "function_name" : "fts_open",
   "linker_set_key" : "fts_open",
   "parameters" :
   [
    {
     "referenced_type" : "_ZTIPKPc"
    },
    {
     "referenced_type" : "_ZTIi"
    },
    {
     "referenced_type" : "_ZTIPFiPPK7_ftsentS2_E"
    }
   ],
   "return_type" : "_ZTIP3FTS",
   "source_file" : "bionic/libc/include/fts.h"
  },
  {
   "function_name" : "fts_read",
   "linker_set_key" : "fts_read",
   "parameters" :
   [
    {
     "referenced_type" : "_ZTIP3FTS"
    }
   ],
   "return_type" : "_ZTIP7_ftsent",
   "source_file" : "bionic/libc/include/fts.h"
  },
  {
   "function_name" : "fts_set",
   "linker_set_key" : "fts_set",
   "parameters" :
   [
    {
     "referenced_type" : "_ZTIP3FTS"
    },
    {
     "referenced_type" : "_ZTIP7_ftsent"
    },
    {
     "referenced_type" : "_ZTIi"
    }
   ],
   "return_type" : "_ZTIi",
   "source_file" : "bionic/libc/include/fts.h"
  },
  {
   "function_name" : "ftw",
   "linker_set_key" : "ftw",
   "parameters" :
   [
    {
     "referenced_type" : "_ZTIPKc"
    },
    {
     "referenced_type" : "_ZTIPFiPKcPK4statiE"
    },
    {
     "referenced_type" : "_ZTIi"
    }
   ],
   "return_type" : "_ZTIi",
   "source_file" : "bionic/libc/include/ftw.h"
  },
  {
   "function_name" : "ftw64",
   "linker_set_key" : "ftw64",
   "parameters" :
   [
    {
     "referenced_type" : "_ZTIPKc"
    },
    {
     "referenced_type" : "_ZTIPFiPKcPK6stat64iE"
    },
    {
     "referenced_type" : "_ZTIi"
    }
   ],
   "return_type" : "_ZTIi",
   "source_file" : "bionic/libc/include/ftw.h"
  },
  {
   "function_name" : "funlockfile",
   "linker_set_key" : "funlockfile",
   "parameters" :
   [
    {
     "referenced_type" : "_ZTIP7__sFILE"
    }
   ],
   "return_type" : "_ZTIv",
   "source_file" : "bionic/libc/include/stdio.h"
  },
  {
   "function_name" : "funopen",
   "linker_set_key" : "funopen",
   "parameters" :
   [
    {
     "referenced_type" : "_ZTIPKv"
    },
    {
     "referenced_type" : "_ZTIPFiPvPciE"
    },
    {
     "referenced_type" : "_ZTIPFiPvPKciE"
    },
    {
     "referenced_type" : "_ZTIPFlPvliE"
    },
    {
     "referenced_type" : "_ZTIPFiPvE"
    }
   ],
   "return_type" : "_ZTIP7__sFILE",
   "source_file" : "bionic/libc/include/stdio.h"
  },
  {
   "function_name" : "funopen64",
   "linker_set_key" : "funopen64",
   "parameters" :
   [
    {
     "referenced_type" : "_ZTIPKv"
    },
    {
     "referenced_type" : "_ZTIPFiPvPciE"
    },
    {
     "referenced_type" : "_ZTIPFiPvPKciE"
    },
    {
     "referenced_type" : "_ZTIPFxPvxiE"
    },
    {
     "referenced_type" : "_ZTIPFiPvE"
    }
   ],
   "return_type" : "_ZTIP7__sFILE",
   "source_file" : "bionic/libc/include/stdio.h"
  },
  {
   "function_name" : "futimens",
   "linker_set_key" : "futimens",
   "parameters" :
   [
    {
     "referenced_type" : "_ZTIi"
    },
    {
     "referenced_type" : "_ZTIPK8timespec"
    }
   ],
   "return_type" : "_ZTIi",
   "source_file" : "bionic/libc/include/sys/stat.h"
  },
  {
   "function_name" : "futimes",
   "linker_set_key" : "futimes",
   "parameters" :
   [
    {
     "referenced_type" : "_ZTIi"
    },
    {
     "referenced_type" : "_ZTIPK7timeval"
    }
   ],
   "return_type" : "_ZTIi",
   "source_file" : "bionic/libc/include/sys/time.h"
  },
  {
   "function_name" : "futimesat",
   "linker_set_key" : "futimesat",
   "parameters" :
   [
    {
     "referenced_type" : "_ZTIi"
    },
    {
     "referenced_type" : "_ZTIPKc"
    },
    {
     "referenced_type" : "_ZTIPK7timeval"
    }
   ],
   "return_type" : "_ZTIi",
   "source_file" : "bionic/libc/include/sys/time.h"
  },
  {
   "function_name" : "fwide",
   "linker_set_key" : "fwide",
   "parameters" :
   [
    {
     "referenced_type" : "_ZTIP7__sFILE"
    },
    {
     "referenced_type" : "_ZTIi"
    }
   ],
   "return_type" : "_ZTIi",
   "source_file" : "bionic/libc/include/wchar.h"
  },
  {
   "function_name" : "fwprintf",
   "linker_set_key" : "fwprintf",
   "parameters" :
   [
    {
     "referenced_type" : "_ZTIP7__sFILE"
    },
    {
     "referenced_type" : "_ZTIPKw"
    }
   ],
   "return_type" : "_ZTIi",
   "source_file" : "bionic/libc/include/wchar.h"
  },
  {
   "function_name" : "fwrite",
   "linker_set_key" : "fwrite",
   "parameters" :
   [
    {
     "referenced_type" : "_ZTIPKv"
    },
    {
     "referenced_type" : "_ZTIj"
    },
    {
     "referenced_type" : "_ZTIj"
    },
    {
     "referenced_type" : "_ZTIP7__sFILE"
    }
   ],
   "return_type" : "_ZTIj",
   "source_file" : "bionic/libc/include/stdio.h"
  },
  {
   "function_name" : "fwrite_unlocked",
   "linker_set_key" : "fwrite_unlocked",
   "parameters" :
   [
    {
     "referenced_type" : "_ZTIPKv"
    },
    {
     "referenced_type" : "_ZTIj"
    },
    {
     "referenced_type" : "_ZTIj"
    },
    {
     "referenced_type" : "_ZTIP7__sFILE"
    }
   ],
   "return_type" : "_ZTIj",
   "source_file" : "bionic/libc/include/stdio.h"
  },
  {
   "function_name" : "fwscanf",
   "linker_set_key" : "fwscanf",
   "parameters" :
   [
    {
     "referenced_type" : "_ZTIP7__sFILE"
    },
    {
     "referenced_type" : "_ZTIPKw"
    }
   ],
   "return_type" : "_ZTIi",
   "source_file" : "bionic/libc/include/wchar.h"
  },
  {
   "function_name" : "gai_strerror",
   "linker_set_key" : "gai_strerror",
   "parameters" :
   [
    {
     "referenced_type" : "_ZTIi"
    }
   ],
   "return_type" : "_ZTIPKc",
   "source_file" : "bionic/libc/include/netdb.h"
  },
  {
   "function_name" : "get_avphys_pages",
   "linker_set_key" : "get_avphys_pages",
   "return_type" : "_ZTIl",
   "source_file" : "bionic/libc/include/sys/sysinfo.h"
  },
  {
   "function_name" : "get_nprocs",
   "linker_set_key" : "get_nprocs",
   "return_type" : "_ZTIi",
   "source_file" : "bionic/libc/include/sys/sysinfo.h"
  },
  {
   "function_name" : "get_nprocs_conf",
   "linker_set_key" : "get_nprocs_conf",
   "return_type" : "_ZTIi",
   "source_file" : "bionic/libc/include/sys/sysinfo.h"
  },
  {
   "function_name" : "get_phys_pages",
   "linker_set_key" : "get_phys_pages",
   "return_type" : "_ZTIl",
   "source_file" : "bionic/libc/include/sys/sysinfo.h"
  },
  {
   "function_name" : "getaddrinfo",
   "linker_set_key" : "getaddrinfo",
   "parameters" :
   [
    {
     "referenced_type" : "_ZTIPKc"
    },
    {
     "referenced_type" : "_ZTIPKc"
    },
    {
     "referenced_type" : "_ZTIPK8addrinfo"
    },
    {
     "referenced_type" : "_ZTIPP8addrinfo"
    }
   ],
   "return_type" : "_ZTIi",
   "source_file" : "bionic/libc/include/netdb.h"
  },
  {
   "function_name" : "getauxval",
   "linker_set_key" : "getauxval",
   "parameters" :
   [
    {
     "referenced_type" : "_ZTIm"
    }
   ],
   "return_type" : "_ZTIm",
   "source_file" : "bionic/libc/include/sys/auxv.h"
  },
  {
   "function_name" : "getc",
   "linker_set_key" : "getc",
   "parameters" :
   [
    {
     "referenced_type" : "_ZTIP7__sFILE"
    }
   ],
   "return_type" : "_ZTIi",
   "source_file" : "bionic/libc/include/stdio.h"
  },
  {
   "function_name" : "getc_unlocked",
   "linker_set_key" : "getc_unlocked",
   "parameters" :
   [
    {
     "referenced_type" : "_ZTIP7__sFILE"
    }
   ],
   "return_type" : "_ZTIi",
   "source_file" : "bionic/libc/include/stdio.h"
  },
  {
   "function_name" : "getchar",
   "linker_set_key" : "getchar",
   "return_type" : "_ZTIi",
   "source_file" : "bionic/libc/include/stdio.h"
  },
  {
   "function_name" : "getchar_unlocked",
   "linker_set_key" : "getchar_unlocked",
   "return_type" : "_ZTIi",
   "source_file" : "bionic/libc/include/stdio.h"
  },
  {
   "function_name" : "getcwd",
   "linker_set_key" : "getcwd",
   "parameters" :
   [
    {
     "referenced_type" : "_ZTIPc"
    },
    {
     "referenced_type" : "_ZTIj"
    }
   ],
   "return_type" : "_ZTIPc",
   "source_file" : "bionic/libc/include/unistd.h"
  },
  {
   "function_name" : "getdelim",
   "linker_set_key" : "getdelim",
   "parameters" :
   [
    {
     "referenced_type" : "_ZTIPPc"
    },
    {
     "referenced_type" : "_ZTIPj"
    },
    {
     "referenced_type" : "_ZTIi"
    },
    {
     "referenced_type" : "_ZTIP7__sFILE"
    }
   ],
   "return_type" : "_ZTIi",
   "source_file" : "bionic/libc/include/stdio.h"
  },
  {
   "function_name" : "getdomainname",
   "linker_set_key" : "getdomainname",
   "parameters" :
   [
    {
     "referenced_type" : "_ZTIPc"
    },
    {
     "referenced_type" : "_ZTIj"
    }
   ],
   "return_type" : "_ZTIi",
   "source_file" : "bionic/libc/include/unistd.h"
  },
  {
   "function_name" : "getentropy",
   "linker_set_key" : "getentropy",
   "parameters" :
   [
    {
     "referenced_type" : "_ZTIPv"
    },
    {
     "referenced_type" : "_ZTIj"
    }
   ],
   "return_type" : "_ZTIi",
   "source_file" : "bionic/libc/include/bits/getentropy.h"
  },
  {
   "function_name" : "getenv",
   "linker_set_key" : "getenv",
   "parameters" :
   [
    {
     "referenced_type" : "_ZTIPKc"
    }
   ],
   "return_type" : "_ZTIPc",
   "source_file" : "bionic/libc/include/stdlib.h"
  },
  {
   "function_name" : "getgrent",
   "linker_set_key" : "getgrent",
   "return_type" : "_ZTIP5group",
   "source_file" : "bionic/libc/include/grp.h"
  },
  {
   "function_name" : "getgrgid",
   "linker_set_key" : "getgrgid",
   "parameters" :
   [
    {
     "referenced_type" : "_ZTIj"
    }
   ],
   "return_type" : "_ZTIP5group",
   "source_file" : "bionic/libc/include/grp.h"
  },
  {
   "function_name" : "getgrgid_r",
   "linker_set_key" : "getgrgid_r",
   "parameters" :
   [
    {
     "referenced_type" : "_ZTIj"
    },
    {
     "referenced_type" : "_ZTIP5group"
    },
    {
     "referenced_type" : "_ZTIPc"
    },
    {
     "referenced_type" : "_ZTIj"
    },
    {
     "referenced_type" : "_ZTIPP5group"
    }
   ],
   "return_type" : "_ZTIi",
   "source_file" : "bionic/libc/include/grp.h"
  },
  {
   "function_name" : "getgrnam",
   "linker_set_key" : "getgrnam",
   "parameters" :
   [
    {
     "referenced_type" : "_ZTIPKc"
    }
   ],
   "return_type" : "_ZTIP5group",
   "source_file" : "bionic/libc/include/grp.h"
  },
  {
   "function_name" : "getgrnam_r",
   "linker_set_key" : "getgrnam_r",
   "parameters" :
   [
    {
     "referenced_type" : "_ZTIPKc"
    },
    {
     "referenced_type" : "_ZTIP5group"
    },
    {
     "referenced_type" : "_ZTIPc"
    },
    {
     "referenced_type" : "_ZTIj"
    },
    {
     "referenced_type" : "_ZTIPP5group"
    }
   ],
   "return_type" : "_ZTIi",
   "source_file" : "bionic/libc/include/grp.h"
  },
  {
   "function_name" : "getgrouplist",
   "linker_set_key" : "getgrouplist",
   "parameters" :
   [
    {
     "referenced_type" : "_ZTIPKc"
    },
    {
     "referenced_type" : "_ZTIj"
    },
    {
     "referenced_type" : "_ZTIPj"
    },
    {
     "referenced_type" : "_ZTIPi"
    }
   ],
   "return_type" : "_ZTIi",
   "source_file" : "bionic/libc/include/grp.h"
  },
  {
   "function_name" : "gethostbyaddr",
   "linker_set_key" : "gethostbyaddr",
   "parameters" :
   [
    {
     "referenced_type" : "_ZTIPKv"
    },
    {
     "referenced_type" : "_ZTIi"
    },
    {
     "referenced_type" : "_ZTIi"
    }
   ],
   "return_type" : "_ZTIP7hostent",
   "source_file" : "bionic/libc/include/netdb.h"
  },
  {
   "function_name" : "gethostbyaddr_r",
   "linker_set_key" : "gethostbyaddr_r",
   "parameters" :
   [
    {
     "referenced_type" : "_ZTIPKv"
    },
    {
     "referenced_type" : "_ZTIi"
    },
    {
     "referenced_type" : "_ZTIi"
    },
    {
     "referenced_type" : "_ZTIP7hostent"
    },
    {
     "referenced_type" : "_ZTIPc"
    },
    {
     "referenced_type" : "_ZTIj"
    },
    {
     "referenced_type" : "_ZTIPP7hostent"
    },
    {
     "referenced_type" : "_ZTIPi"
    }
   ],
   "return_type" : "_ZTIi",
   "source_file" : "bionic/libc/include/netdb.h"
  },
  {
   "function_name" : "gethostbyname",
   "linker_set_key" : "gethostbyname",
   "parameters" :
   [
    {
     "referenced_type" : "_ZTIPKc"
    }
   ],
   "return_type" : "_ZTIP7hostent",
   "source_file" : "bionic/libc/include/netdb.h"
  },
  {
   "function_name" : "gethostbyname2",
   "linker_set_key" : "gethostbyname2",
   "parameters" :
   [
    {
     "referenced_type" : "_ZTIPKc"
    },
    {
     "referenced_type" : "_ZTIi"
    }
   ],
   "return_type" : "_ZTIP7hostent",
   "source_file" : "bionic/libc/include/netdb.h"
  },
  {
   "function_name" : "gethostbyname2_r",
   "linker_set_key" : "gethostbyname2_r",
   "parameters" :
   [
    {
     "referenced_type" : "_ZTIPKc"
    },
    {
     "referenced_type" : "_ZTIi"
    },
    {
     "referenced_type" : "_ZTIP7hostent"
    },
    {
     "referenced_type" : "_ZTIPc"
    },
    {
     "referenced_type" : "_ZTIj"
    },
    {
     "referenced_type" : "_ZTIPP7hostent"
    },
    {
     "referenced_type" : "_ZTIPi"
    }
   ],
   "return_type" : "_ZTIi",
   "source_file" : "bionic/libc/include/netdb.h"
  },
  {
   "function_name" : "gethostbyname_r",
   "linker_set_key" : "gethostbyname_r",
   "parameters" :
   [
    {
     "referenced_type" : "_ZTIPKc"
    },
    {
     "referenced_type" : "_ZTIP7hostent"
    },
    {
     "referenced_type" : "_ZTIPc"
    },
    {
     "referenced_type" : "_ZTIj"
    },
    {
     "referenced_type" : "_ZTIPP7hostent"
    },
    {
     "referenced_type" : "_ZTIPi"
    }
   ],
   "return_type" : "_ZTIi",
   "source_file" : "bionic/libc/include/netdb.h"
  },
  {
   "function_name" : "gethostent",
   "linker_set_key" : "gethostent",
   "return_type" : "_ZTIP7hostent",
   "source_file" : "bionic/libc/include/netdb.h"
  },
  {
   "function_name" : "gethostname",
   "linker_set_key" : "gethostname",
   "parameters" :
   [
    {
     "referenced_type" : "_ZTIPc"
    },
    {
     "referenced_type" : "_ZTIj"
    }
   ],
   "return_type" : "_ZTIi",
   "source_file" : "bionic/libc/include/unistd.h"
  },
  {
   "function_name" : "getifaddrs",
   "linker_set_key" : "getifaddrs",
   "parameters" :
   [
    {
     "referenced_type" : "_ZTIPP7ifaddrs"
    }
   ],
   "return_type" : "_ZTIi",
   "source_file" : "bionic/libc/include/ifaddrs.h"
  },
  {
   "function_name" : "getline",
   "linker_set_key" : "getline",
   "parameters" :
   [
    {
     "referenced_type" : "_ZTIPPc"
    },
    {
     "referenced_type" : "_ZTIPj"
    },
    {
     "referenced_type" : "_ZTIP7__sFILE"
    }
   ],
   "return_type" : "_ZTIi",
   "source_file" : "bionic/libc/include/stdio.h"
  },
  {
   "function_name" : "getloadavg",
   "linker_set_key" : "getloadavg",
   "parameters" :
   [
    {
     "referenced_type" : "_ZTIPd"
    },
    {
     "referenced_type" : "_ZTIi"
    }
   ],
   "return_type" : "_ZTIi",
   "source_file" : "bionic/libc/include/stdlib.h"
  },
  {
   "function_name" : "getlogin",
   "linker_set_key" : "getlogin",
   "return_type" : "_ZTIPc",
   "source_file" : "bionic/libc/include/unistd.h"
  },
  {
   "function_name" : "getlogin_r",
   "linker_set_key" : "getlogin_r",
   "parameters" :
   [
    {
     "referenced_type" : "_ZTIPc"
    },
    {
     "referenced_type" : "_ZTIj"
    }
   ],
   "return_type" : "_ZTIi",
   "source_file" : "bionic/libc/include/unistd.h"
  },
  {
   "function_name" : "getmntent",
   "linker_set_key" : "getmntent",
   "parameters" :
   [
    {
     "referenced_type" : "_ZTIP7__sFILE"
    }
   ],
   "return_type" : "_ZTIP6mntent",
   "source_file" : "bionic/libc/include/mntent.h"
  },
  {
   "function_name" : "getmntent_r",
   "linker_set_key" : "getmntent_r",
   "parameters" :
   [
    {
     "referenced_type" : "_ZTIP7__sFILE"
    },
    {
     "referenced_type" : "_ZTIP6mntent"
    },
    {
     "referenced_type" : "_ZTIPc"
    },
    {
     "referenced_type" : "_ZTIi"
    }
   ],
   "return_type" : "_ZTIP6mntent",
   "source_file" : "bionic/libc/include/mntent.h"
  },
  {
   "function_name" : "getnameinfo",
   "linker_set_key" : "getnameinfo",
   "parameters" :
   [
    {
     "referenced_type" : "_ZTIPK8sockaddr"
    },
    {
     "referenced_type" : "_ZTIi"
    },
    {
     "referenced_type" : "_ZTIPc"
    },
    {
     "referenced_type" : "_ZTIj"
    },
    {
     "referenced_type" : "_ZTIPc"
    },
    {
     "referenced_type" : "_ZTIj"
    },
    {
     "referenced_type" : "_ZTIi"
    }
   ],
   "return_type" : "_ZTIi",
   "source_file" : "bionic/libc/include/netdb.h"
  },
  {
   "function_name" : "getnetbyaddr",
   "linker_set_key" : "getnetbyaddr",
   "parameters" :
   [
    {
     "referenced_type" : "_ZTIj"
    },
    {
     "referenced_type" : "_ZTIi"
    }
   ],
   "return_type" : "_ZTIP6netent",
   "source_file" : "bionic/libc/include/netdb.h"
  },
  {
   "function_name" : "getnetbyname",
   "linker_set_key" : "getnetbyname",
   "parameters" :
   [
    {
     "referenced_type" : "_ZTIPKc"
    }
   ],
   "return_type" : "_ZTIP6netent",
   "source_file" : "bionic/libc/include/netdb.h"
  },
  {
   "function_name" : "getnetent",
   "linker_set_key" : "getnetent",
   "return_type" : "_ZTIP6netent",
   "source_file" : "bionic/libc/include/netdb.h"
  },
  {
   "function_name" : "getopt",
   "linker_set_key" : "getopt",
   "parameters" :
   [
    {
     "referenced_type" : "_ZTIi"
    },
    {
     "referenced_type" : "_ZTIPKPc"
    },
    {
     "referenced_type" : "_ZTIPKc"
    }
   ],
   "return_type" : "_ZTIi",
   "source_file" : "bionic/libc/include/bits/getopt.h"
  },
  {
   "function_name" : "getopt_long",
   "linker_set_key" : "getopt_long",
   "parameters" :
   [
    {
     "referenced_type" : "_ZTIi"
    },
    {
     "referenced_type" : "_ZTIPKPc"
    },
    {
     "referenced_type" : "_ZTIPKc"
    },
    {
     "referenced_type" : "_ZTIPK6option"
    },
    {
     "referenced_type" : "_ZTIPi"
    }
   ],
   "return_type" : "_ZTIi",
   "source_file" : "bionic/libc/include/getopt.h"
  },
  {
   "function_name" : "getopt_long_only",
   "linker_set_key" : "getopt_long_only",
   "parameters" :
   [
    {
     "referenced_type" : "_ZTIi"
    },
    {
     "referenced_type" : "_ZTIPKPc"
    },
    {
     "referenced_type" : "_ZTIPKc"
    },
    {
     "referenced_type" : "_ZTIPK6option"
    },
    {
     "referenced_type" : "_ZTIPi"
    }
   ],
   "return_type" : "_ZTIi",
   "source_file" : "bionic/libc/include/getopt.h"
  },
  {
   "function_name" : "getpagesize",
   "linker_set_key" : "getpagesize",
   "return_type" : "_ZTIi",
   "source_file" : "bionic/libc/include/unistd.h"
  },
  {
   "function_name" : "getpgrp",
   "linker_set_key" : "getpgrp",
   "return_type" : "_ZTIi",
   "source_file" : "bionic/libc/include/unistd.h"
  },
  {
   "function_name" : "getpid",
   "linker_set_key" : "getpid",
   "return_type" : "_ZTIi",
   "source_file" : "bionic/libc/include/unistd.h"
  },
  {
   "function_name" : "getpriority",
   "linker_set_key" : "getpriority",
   "parameters" :
   [
    {
     "referenced_type" : "_ZTIi"
    },
    {
     "referenced_type" : "_ZTIj"
    }
   ],
   "return_type" : "_ZTIi",
   "source_file" : "bionic/libc/include/sys/resource.h"
  },
  {
   "function_name" : "getprogname",
   "linker_set_key" : "getprogname",
   "return_type" : "_ZTIPKc",
   "source_file" : "bionic/libc/include/stdlib.h"
  },
  {
   "function_name" : "getprotobyname",
   "linker_set_key" : "getprotobyname",
   "parameters" :
   [
    {
     "referenced_type" : "_ZTIPKc"
    }
   ],
   "return_type" : "_ZTIP8protoent",
   "source_file" : "bionic/libc/include/netdb.h"
  },
  {
   "function_name" : "getprotobynumber",
   "linker_set_key" : "getprotobynumber",
   "parameters" :
   [
    {
     "referenced_type" : "_ZTIi"
    }
   ],
   "return_type" : "_ZTIP8protoent",
   "source_file" : "bionic/libc/include/netdb.h"
  },
  {
   "function_name" : "getprotoent",
   "linker_set_key" : "getprotoent",
   "return_type" : "_ZTIP8protoent",
   "source_file" : "bionic/libc/include/netdb.h"
  },
  {
   "function_name" : "getpt",
   "linker_set_key" : "getpt",
   "return_type" : "_ZTIi",
   "source_file" : "bionic/libc/include/stdlib.h"
  },
  {
   "function_name" : "getpwent",
   "linker_set_key" : "getpwent",
   "return_type" : "_ZTIP6passwd",
   "source_file" : "bionic/libc/include/pwd.h"
  },
  {
   "function_name" : "getpwnam",
   "linker_set_key" : "getpwnam",
   "parameters" :
   [
    {
     "referenced_type" : "_ZTIPKc"
    }
   ],
   "return_type" : "_ZTIP6passwd",
   "source_file" : "bionic/libc/include/pwd.h"
  },
  {
   "function_name" : "getpwnam_r",
   "linker_set_key" : "getpwnam_r",
   "parameters" :
   [
    {
     "referenced_type" : "_ZTIPKc"
    },
    {
     "referenced_type" : "_ZTIP6passwd"
    },
    {
     "referenced_type" : "_ZTIPc"
    },
    {
     "referenced_type" : "_ZTIj"
    },
    {
     "referenced_type" : "_ZTIPP6passwd"
    }
   ],
   "return_type" : "_ZTIi",
   "source_file" : "bionic/libc/include/pwd.h"
  },
  {
   "function_name" : "getpwuid",
   "linker_set_key" : "getpwuid",
   "parameters" :
   [
    {
     "referenced_type" : "_ZTIj"
    }
   ],
   "return_type" : "_ZTIP6passwd",
   "source_file" : "bionic/libc/include/pwd.h"
  },
  {
   "function_name" : "getpwuid_r",
   "linker_set_key" : "getpwuid_r",
   "parameters" :
   [
    {
     "referenced_type" : "_ZTIj"
    },
    {
     "referenced_type" : "_ZTIP6passwd"
    },
    {
     "referenced_type" : "_ZTIPc"
    },
    {
     "referenced_type" : "_ZTIj"
    },
    {
     "referenced_type" : "_ZTIPP6passwd"
    }
   ],
   "return_type" : "_ZTIi",
   "source_file" : "bionic/libc/include/pwd.h"
  },
  {
   "function_name" : "getrlimit64",
   "linker_set_key" : "getrlimit64",
   "parameters" :
   [
    {
     "referenced_type" : "_ZTIi"
    },
    {
     "referenced_type" : "_ZTIP8rlimit64"
    }
   ],
   "return_type" : "_ZTIi",
   "source_file" : "bionic/libc/include/sys/resource.h"
  },
  {
   "function_name" : "gets",
   "linker_set_key" : "gets",
   "parameters" :
   [
    {
     "referenced_type" : "_ZTIPc"
    }
   ],
   "return_type" : "_ZTIPc",
   "source_file" : "bionic/libc/include/stdio.h"
  },
  {
   "function_name" : "getservbyname",
   "linker_set_key" : "getservbyname",
   "parameters" :
   [
    {
     "referenced_type" : "_ZTIPKc"
    },
    {
     "referenced_type" : "_ZTIPKc"
    }
   ],
   "return_type" : "_ZTIP7servent",
   "source_file" : "bionic/libc/include/netdb.h"
  },
  {
   "function_name" : "getservbyport",
   "linker_set_key" : "getservbyport",
   "parameters" :
   [
    {
     "referenced_type" : "_ZTIi"
    },
    {
     "referenced_type" : "_ZTIPKc"
    }
   ],
   "return_type" : "_ZTIP7servent",
   "source_file" : "bionic/libc/include/netdb.h"
  },
  {
   "function_name" : "getservent",
   "linker_set_key" : "getservent",
   "return_type" : "_ZTIP7servent",
   "source_file" : "bionic/libc/include/netdb.h"
  },
  {
   "function_name" : "getsubopt",
   "linker_set_key" : "getsubopt",
   "parameters" :
   [
    {
     "referenced_type" : "_ZTIPPc"
    },
    {
     "referenced_type" : "_ZTIPKPc"
    },
    {
     "referenced_type" : "_ZTIPPc"
    }
   ],
   "return_type" : "_ZTIi",
   "source_file" : "bionic/libc/include/stdlib.h"
  },
  {
   "function_name" : "gettid",
   "linker_set_key" : "gettid",
   "return_type" : "_ZTIi",
   "source_file" : "bionic/libc/include/unistd.h"
  },
  {
   "function_name" : "gettimeofday",
   "linker_set_key" : "gettimeofday",
   "parameters" :
   [
    {
     "referenced_type" : "_ZTIP7timeval"
    },
    {
     "referenced_type" : "_ZTIP8timezone"
    }
   ],
   "return_type" : "_ZTIi",
   "source_file" : "bionic/libc/include/sys/time.h"
  },
  {
   "function_name" : "getutent",
   "linker_set_key" : "getutent",
   "return_type" : "_ZTIP4utmp",
   "source_file" : "bionic/libc/include/utmp.h"
  },
  {
   "function_name" : "getwc",
   "linker_set_key" : "getwc",
   "parameters" :
   [
    {
     "referenced_type" : "_ZTIP7__sFILE"
    }
   ],
   "return_type" : "_ZTIj",
   "source_file" : "bionic/libc/include/wchar.h"
  },
  {
   "function_name" : "getwchar",
   "linker_set_key" : "getwchar",
   "return_type" : "_ZTIj",
   "source_file" : "bionic/libc/include/wchar.h"
  },
  {
   "function_name" : "glob",
   "linker_set_key" : "glob",
   "parameters" :
   [
    {
     "referenced_type" : "_ZTIPKc"
    },
    {
     "referenced_type" : "_ZTIi"
    },
    {
     "referenced_type" : "_ZTIPFiPKciE"
    },
    {
     "referenced_type" : "_ZTIP6glob_t"
    }
   ],
   "return_type" : "_ZTIi",
   "source_file" : "bionic/libc/include/glob.h"
  },
  {
   "function_name" : "globfree",
   "linker_set_key" : "globfree",
   "parameters" :
   [
    {
     "referenced_type" : "_ZTIP6glob_t"
    }
   ],
   "return_type" : "_ZTIv",
   "source_file" : "bionic/libc/include/glob.h"
  },
  {
   "function_name" : "gmtime",
   "linker_set_key" : "gmtime",
   "parameters" :
   [
    {
     "referenced_type" : "_ZTIPKl"
    }
   ],
   "return_type" : "_ZTIP2tm",
   "source_file" : "bionic/libc/include/time.h"
  },
  {
   "function_name" : "gmtime64",
   "linker_set_key" : "gmtime64",
   "parameters" :
   [
    {
     "referenced_type" : "_ZTIPKx"
    }
   ],
   "return_type" : "_ZTIP2tm",
   "source_file" : "bionic/libc/include/time64.h"
  },
  {
   "function_name" : "gmtime64_r",
   "linker_set_key" : "gmtime64_r",
   "parameters" :
   [
    {
     "referenced_type" : "_ZTIPKx"
    },
    {
     "referenced_type" : "_ZTIP2tm"
    }
   ],
   "return_type" : "_ZTIP2tm",
   "source_file" : "bionic/libc/include/time64.h"
  },
  {
   "function_name" : "gmtime_r",
   "linker_set_key" : "gmtime_r",
   "parameters" :
   [
    {
     "referenced_type" : "_ZTIPKl"
    },
    {
     "referenced_type" : "_ZTIP2tm"
    }
   ],
   "return_type" : "_ZTIP2tm",
   "source_file" : "bionic/libc/include/time.h"
  },
  {
   "function_name" : "grantpt",
   "linker_set_key" : "grantpt",
   "parameters" :
   [
    {
     "referenced_type" : "_ZTIi"
    }
   ],
   "return_type" : "_ZTIi",
   "source_file" : "bionic/libc/include/stdlib.h"
  },
  {
   "function_name" : "hasmntopt",
   "linker_set_key" : "hasmntopt",
   "parameters" :
   [
    {
     "referenced_type" : "_ZTIPK6mntent"
    },
    {
     "referenced_type" : "_ZTIPKc"
    }
   ],
   "return_type" : "_ZTIPc",
   "source_file" : "bionic/libc/include/mntent.h"
  },
  {
   "function_name" : "hcreate",
   "linker_set_key" : "hcreate",
   "parameters" :
   [
    {
     "referenced_type" : "_ZTIj"
    }
   ],
   "return_type" : "_ZTIi",
   "source_file" : "bionic/libc/include/search.h"
  },
  {
   "function_name" : "hcreate_r",
   "linker_set_key" : "hcreate_r",
   "parameters" :
   [
    {
     "referenced_type" : "_ZTIj"
    },
    {
     "referenced_type" : "_ZTIP12hsearch_data"
    }
   ],
   "return_type" : "_ZTIi",
   "source_file" : "bionic/libc/include/search.h"
  },
  {
   "function_name" : "hdestroy",
   "linker_set_key" : "hdestroy",
   "return_type" : "_ZTIv",
   "source_file" : "bionic/libc/include/search.h"
  },
  {
   "function_name" : "hdestroy_r",
   "linker_set_key" : "hdestroy_r",
   "parameters" :
   [
    {
     "referenced_type" : "_ZTIP12hsearch_data"
    }
   ],
   "return_type" : "_ZTIv",
   "source_file" : "bionic/libc/include/search.h"
  },
  {
   "function_name" : "herror",
   "linker_set_key" : "herror",
   "parameters" :
   [
    {
     "referenced_type" : "_ZTIPKc"
    }
   ],
   "return_type" : "_ZTIv",
   "source_file" : "bionic/libc/include/netdb.h"
  },
  {
   "function_name" : "hsearch",
   "linker_set_key" : "hsearch",
   "parameters" :
   [
    {
     "referenced_type" : "_ZTI5entry"
    },
    {
     "referenced_type" : "_ZTI6ACTION"
    }
   ],
   "return_type" : "_ZTIP5entry",
   "source_file" : "bionic/libc/include/search.h"
  },
  {
   "function_name" : "hsearch_r",
   "linker_set_key" : "hsearch_r",
   "parameters" :
   [
    {
     "referenced_type" : "_ZTI5entry"
    },
    {
     "referenced_type" : "_ZTI6ACTION"
    },
    {
     "referenced_type" : "_ZTIPP5entry"
    },
    {
     "referenced_type" : "_ZTIP12hsearch_data"
    }
   ],
   "return_type" : "_ZTIi",
   "source_file" : "bionic/libc/include/search.h"
  },
  {
   "function_name" : "hstrerror",
   "linker_set_key" : "hstrerror",
   "parameters" :
   [
    {
     "referenced_type" : "_ZTIi"
    }
   ],
   "return_type" : "_ZTIPKc",
   "source_file" : "bionic/libc/include/netdb.h"
  },
  {
   "function_name" : "htonl",
   "linker_set_key" : "htonl",
   "parameters" :
   [
    {
     "referenced_type" : "_ZTIj"
    }
   ],
   "return_type" : "_ZTIj",
   "source_file" : "bionic/libc/include/sys/endian.h"
  },
  {
   "function_name" : "htons",
   "linker_set_key" : "htons",
   "parameters" :
   [
    {
     "referenced_type" : "_ZTIt"
    }
   ],
   "return_type" : "_ZTIt",
   "source_file" : "bionic/libc/include/sys/endian.h"
  },
  {
   "function_name" : "iconv",
   "linker_set_key" : "iconv",
   "parameters" :
   [
    {
     "referenced_type" : "_ZTIP9__iconv_t"
    },
    {
     "referenced_type" : "_ZTIPPc"
    },
    {
     "referenced_type" : "_ZTIPj"
    },
    {
     "referenced_type" : "_ZTIPPc"
    },
    {
     "referenced_type" : "_ZTIPj"
    }
   ],
   "return_type" : "_ZTIj",
   "source_file" : "bionic/libc/include/iconv.h"
  },
  {
   "function_name" : "iconv_close",
   "linker_set_key" : "iconv_close",
   "parameters" :
   [
    {
     "referenced_type" : "_ZTIP9__iconv_t"
    }
   ],
   "return_type" : "_ZTIi",
   "source_file" : "bionic/libc/include/iconv.h"
  },
  {
   "function_name" : "iconv_open",
   "linker_set_key" : "iconv_open",
   "parameters" :
   [
    {
     "referenced_type" : "_ZTIPKc"
    },
    {
     "referenced_type" : "_ZTIPKc"
    }
   ],
   "return_type" : "_ZTIP9__iconv_t",
   "source_file" : "bionic/libc/include/iconv.h"
  },
  {
   "function_name" : "if_freenameindex",
   "linker_set_key" : "if_freenameindex",
   "parameters" :
   [
    {
     "referenced_type" : "_ZTIP12if_nameindex"
    }
   ],
   "return_type" : "_ZTIv",
   "source_file" : "bionic/libc/include/net/if.h"
  },
  {
   "function_name" : "if_indextoname",
   "linker_set_key" : "if_indextoname",
   "parameters" :
   [
    {
     "referenced_type" : "_ZTIj"
    },
    {
     "referenced_type" : "_ZTIPc"
    }
   ],
   "return_type" : "_ZTIPc",
   "source_file" : "bionic/libc/include/net/if.h"
  },
  {
   "function_name" : "if_nameindex",
   "linker_set_key" : "if_nameindex",
   "return_type" : "_ZTIP12if_nameindex",
   "source_file" : "bionic/libc/include/net/if.h"
  },
  {
   "function_name" : "if_nametoindex",
   "linker_set_key" : "if_nametoindex",
   "parameters" :
   [
    {
     "referenced_type" : "_ZTIPKc"
    }
   ],
   "return_type" : "_ZTIj",
   "source_file" : "bionic/libc/include/net/if.h"
  },
  {
   "function_name" : "imaxabs",
   "linker_set_key" : "imaxabs",
   "parameters" :
   [
    {
     "referenced_type" : "_ZTIx"
    }
   ],
   "return_type" : "_ZTIx",
   "source_file" : "bionic/libc/include/inttypes.h"
  },
  {
   "function_name" : "imaxdiv",
   "linker_set_key" : "imaxdiv",
   "parameters" :
   [
    {
     "referenced_type" : "_ZTIx"
    },
    {
     "referenced_type" : "_ZTIx"
    }
   ],
   "return_type" : "_ZTI9imaxdiv_t",
   "source_file" : "bionic/libc/include/inttypes.h"
  },
  {
   "function_name" : "inet_addr",
   "linker_set_key" : "inet_addr",
   "parameters" :
   [
    {
     "referenced_type" : "_ZTIPKc"
    }
   ],
   "return_type" : "_ZTIj",
   "source_file" : "bionic/libc/include/arpa/inet.h"
  },
  {
   "function_name" : "inet_aton",
   "linker_set_key" : "inet_aton",
   "parameters" :
   [
    {
     "referenced_type" : "_ZTIPKc"
    },
    {
     "referenced_type" : "_ZTIP7in_addr"
    }
   ],
   "return_type" : "_ZTIi",
   "source_file" : "bionic/libc/include/arpa/inet.h"
  },
  {
   "function_name" : "inet_lnaof",
   "linker_set_key" : "inet_lnaof",
   "parameters" :
   [
    {
     "referenced_type" : "_ZTI7in_addr"
    }
   ],
   "return_type" : "_ZTIj",
   "source_file" : "bionic/libc/include/arpa/inet.h"
  },
  {
   "function_name" : "inet_makeaddr",
   "linker_set_key" : "inet_makeaddr",
   "parameters" :
   [
    {
     "referenced_type" : "_ZTIj"
    },
    {
     "referenced_type" : "_ZTIj"
    }
   ],
   "return_type" : "_ZTI7in_addr",
   "source_file" : "bionic/libc/include/arpa/inet.h"
  },
  {
   "function_name" : "inet_netof",
   "linker_set_key" : "inet_netof",
   "parameters" :
   [
    {
     "referenced_type" : "_ZTI7in_addr"
    }
   ],
   "return_type" : "_ZTIj",
   "source_file" : "bionic/libc/include/arpa/inet.h"
  },
  {
   "function_name" : "inet_network",
   "linker_set_key" : "inet_network",
   "parameters" :
   [
    {
     "referenced_type" : "_ZTIPKc"
    }
   ],
   "return_type" : "_ZTIj",
   "source_file" : "bionic/libc/include/arpa/inet.h"
  },
  {
   "function_name" : "inet_nsap_addr",
   "linker_set_key" : "inet_nsap_addr",
   "parameters" :
   [
    {
     "referenced_type" : "_ZTIPKc"
    },
    {
     "referenced_type" : "_ZTIPh"
    },
    {
     "referenced_type" : "_ZTIi"
    }
   ],
   "return_type" : "_ZTIj",
   "source_file" : "bionic/libc/include/arpa/inet.h"
  },
  {
   "function_name" : "inet_nsap_ntoa",
   "linker_set_key" : "inet_nsap_ntoa",
   "parameters" :
   [
    {
     "referenced_type" : "_ZTIi"
    },
    {
     "referenced_type" : "_ZTIPKh"
    },
    {
     "referenced_type" : "_ZTIPc"
    }
   ],
   "return_type" : "_ZTIPc",
   "source_file" : "bionic/libc/include/arpa/inet.h"
  },
  {
   "function_name" : "inet_ntoa",
   "linker_set_key" : "inet_ntoa",
   "parameters" :
   [
    {
     "referenced_type" : "_ZTI7in_addr"
    }
   ],
   "return_type" : "_ZTIPc",
   "source_file" : "bionic/libc/include/arpa/inet.h"
  },
  {
   "function_name" : "inet_ntop",
   "linker_set_key" : "inet_ntop",
   "parameters" :
   [
    {
     "referenced_type" : "_ZTIi"
    },
    {
     "referenced_type" : "_ZTIPKv"
    },
    {
     "referenced_type" : "_ZTIPc"
    },
    {
     "referenced_type" : "_ZTIi"
    }
   ],
   "return_type" : "_ZTIPKc",
   "source_file" : "bionic/libc/include/arpa/inet.h"
  },
  {
   "function_name" : "inet_pton",
   "linker_set_key" : "inet_pton",
   "parameters" :
   [
    {
     "referenced_type" : "_ZTIi"
    },
    {
     "referenced_type" : "_ZTIPKc"
    },
    {
     "referenced_type" : "_ZTIPv"
    }
   ],
   "return_type" : "_ZTIi",
   "source_file" : "bionic/libc/include/arpa/inet.h"
  },
  {
   "function_name" : "initgroups",
   "linker_set_key" : "initgroups",
   "parameters" :
   [
    {
     "referenced_type" : "_ZTIPKc"
    },
    {
     "referenced_type" : "_ZTIj"
    }
   ],
   "return_type" : "_ZTIi",
   "source_file" : "bionic/libc/include/grp.h"
  },
  {
   "function_name" : "initstate",
   "linker_set_key" : "initstate",
   "parameters" :
   [
    {
     "referenced_type" : "_ZTIj"
    },
    {
     "referenced_type" : "_ZTIPc"
    },
    {
     "referenced_type" : "_ZTIj"
    }
   ],
   "return_type" : "_ZTIPc",
   "source_file" : "bionic/libc/include/stdlib.h"
  },
  {
   "function_name" : "inotify_init",
   "linker_set_key" : "inotify_init",
   "return_type" : "_ZTIi",
   "source_file" : "bionic/libc/include/sys/inotify.h"
  },
  {
   "function_name" : "insque",
   "linker_set_key" : "insque",
   "parameters" :
   [
    {
     "referenced_type" : "_ZTIPv"
    },
    {
     "referenced_type" : "_ZTIPv"
    }
   ],
   "return_type" : "_ZTIv",
   "source_file" : "bionic/libc/include/search.h"
  },
  {
   "function_name" : "ioctl",
   "linker_set_key" : "ioctl",
   "parameters" :
   [
    {
     "referenced_type" : "_ZTIi"
    },
    {
     "referenced_type" : "_ZTIi"
    }
   ],
   "return_type" : "_ZTIi",
   "source_file" : "bionic/libc/include/bits/ioctl.h"
  },
  {
   "function_name" : "isalnum",
   "linker_set_key" : "isalnum",
   "parameters" :
   [
    {
     "referenced_type" : "_ZTIi"
    }
   ],
   "return_type" : "_ZTIi",
   "source_file" : "bionic/libc/include/ctype.h"
  },
  {
   "function_name" : "isalnum_l",
   "linker_set_key" : "isalnum_l",
   "parameters" :
   [
    {
     "referenced_type" : "_ZTIi"
    },
    {
     "referenced_type" : "_ZTIP10__locale_t"
    }
   ],
   "return_type" : "_ZTIi",
   "source_file" : "bionic/libc/include/ctype.h"
  },
  {
   "function_name" : "isalpha",
   "linker_set_key" : "isalpha",
   "parameters" :
   [
    {
     "referenced_type" : "_ZTIi"
    }
   ],
   "return_type" : "_ZTIi",
   "source_file" : "bionic/libc/include/ctype.h"
  },
  {
   "function_name" : "isalpha_l",
   "linker_set_key" : "isalpha_l",
   "parameters" :
   [
    {
     "referenced_type" : "_ZTIi"
    },
    {
     "referenced_type" : "_ZTIP10__locale_t"
    }
   ],
   "return_type" : "_ZTIi",
   "source_file" : "bionic/libc/include/ctype.h"
  },
  {
   "function_name" : "isascii",
   "linker_set_key" : "isascii",
   "parameters" :
   [
    {
     "referenced_type" : "_ZTIi"
    }
   ],
   "return_type" : "_ZTIi",
   "source_file" : "bionic/libc/include/ctype.h"
  },
  {
   "function_name" : "isatty",
   "linker_set_key" : "isatty",
   "parameters" :
   [
    {
     "referenced_type" : "_ZTIi"
    }
   ],
   "return_type" : "_ZTIi",
   "source_file" : "bionic/libc/include/unistd.h"
  },
  {
   "function_name" : "isblank",
   "linker_set_key" : "isblank",
   "parameters" :
   [
    {
     "referenced_type" : "_ZTIi"
    }
   ],
   "return_type" : "_ZTIi",
   "source_file" : "bionic/libc/include/ctype.h"
  },
  {
   "function_name" : "isblank_l",
   "linker_set_key" : "isblank_l",
   "parameters" :
   [
    {
     "referenced_type" : "_ZTIi"
    },
    {
     "referenced_type" : "_ZTIP10__locale_t"
    }
   ],
   "return_type" : "_ZTIi",
   "source_file" : "bionic/libc/include/ctype.h"
  },
  {
   "function_name" : "iscntrl",
   "linker_set_key" : "iscntrl",
   "parameters" :
   [
    {
     "referenced_type" : "_ZTIi"
    }
   ],
   "return_type" : "_ZTIi",
   "source_file" : "bionic/libc/include/ctype.h"
  },
  {
   "function_name" : "iscntrl_l",
   "linker_set_key" : "iscntrl_l",
   "parameters" :
   [
    {
     "referenced_type" : "_ZTIi"
    },
    {
     "referenced_type" : "_ZTIP10__locale_t"
    }
   ],
   "return_type" : "_ZTIi",
   "source_file" : "bionic/libc/include/ctype.h"
  },
  {
   "function_name" : "isdigit",
   "linker_set_key" : "isdigit",
   "parameters" :
   [
    {
     "referenced_type" : "_ZTIi"
    }
   ],
   "return_type" : "_ZTIi",
   "source_file" : "bionic/libc/include/ctype.h"
  },
  {
   "function_name" : "isdigit_l",
   "linker_set_key" : "isdigit_l",
   "parameters" :
   [
    {
     "referenced_type" : "_ZTIi"
    },
    {
     "referenced_type" : "_ZTIP10__locale_t"
    }
   ],
   "return_type" : "_ZTIi",
   "source_file" : "bionic/libc/include/ctype.h"
  },
  {
   "function_name" : "isgraph",
   "linker_set_key" : "isgraph",
   "parameters" :
   [
    {
     "referenced_type" : "_ZTIi"
    }
   ],
   "return_type" : "_ZTIi",
   "source_file" : "bionic/libc/include/ctype.h"
  },
  {
   "function_name" : "isgraph_l",
   "linker_set_key" : "isgraph_l",
   "parameters" :
   [
    {
     "referenced_type" : "_ZTIi"
    },
    {
     "referenced_type" : "_ZTIP10__locale_t"
    }
   ],
   "return_type" : "_ZTIi",
   "source_file" : "bionic/libc/include/ctype.h"
  },
  {
   "function_name" : "islower",
   "linker_set_key" : "islower",
   "parameters" :
   [
    {
     "referenced_type" : "_ZTIi"
    }
   ],
   "return_type" : "_ZTIi",
   "source_file" : "bionic/libc/include/ctype.h"
  },
  {
   "function_name" : "islower_l",
   "linker_set_key" : "islower_l",
   "parameters" :
   [
    {
     "referenced_type" : "_ZTIi"
    },
    {
     "referenced_type" : "_ZTIP10__locale_t"
    }
   ],
   "return_type" : "_ZTIi",
   "source_file" : "bionic/libc/include/ctype.h"
  },
  {
   "function_name" : "isprint",
   "linker_set_key" : "isprint",
   "parameters" :
   [
    {
     "referenced_type" : "_ZTIi"
    }
   ],
   "return_type" : "_ZTIi",
   "source_file" : "bionic/libc/include/ctype.h"
  },
  {
   "function_name" : "isprint_l",
   "linker_set_key" : "isprint_l",
   "parameters" :
   [
    {
     "referenced_type" : "_ZTIi"
    },
    {
     "referenced_type" : "_ZTIP10__locale_t"
    }
   ],
   "return_type" : "_ZTIi",
   "source_file" : "bionic/libc/include/ctype.h"
  },
  {
   "function_name" : "ispunct",
   "linker_set_key" : "ispunct",
   "parameters" :
   [
    {
     "referenced_type" : "_ZTIi"
    }
   ],
   "return_type" : "_ZTIi",
   "source_file" : "bionic/libc/include/ctype.h"
  },
  {
   "function_name" : "ispunct_l",
   "linker_set_key" : "ispunct_l",
   "parameters" :
   [
    {
     "referenced_type" : "_ZTIi"
    },
    {
     "referenced_type" : "_ZTIP10__locale_t"
    }
   ],
   "return_type" : "_ZTIi",
   "source_file" : "bionic/libc/include/ctype.h"
  },
  {
   "function_name" : "isspace",
   "linker_set_key" : "isspace",
   "parameters" :
   [
    {
     "referenced_type" : "_ZTIi"
    }
   ],
   "return_type" : "_ZTIi",
   "source_file" : "bionic/libc/include/ctype.h"
  },
  {
   "function_name" : "isspace_l",
   "linker_set_key" : "isspace_l",
   "parameters" :
   [
    {
     "referenced_type" : "_ZTIi"
    },
    {
     "referenced_type" : "_ZTIP10__locale_t"
    }
   ],
   "return_type" : "_ZTIi",
   "source_file" : "bionic/libc/include/ctype.h"
  },
  {
   "function_name" : "isupper",
   "linker_set_key" : "isupper",
   "parameters" :
   [
    {
     "referenced_type" : "_ZTIi"
    }
   ],
   "return_type" : "_ZTIi",
   "source_file" : "bionic/libc/include/ctype.h"
  },
  {
   "function_name" : "isupper_l",
   "linker_set_key" : "isupper_l",
   "parameters" :
   [
    {
     "referenced_type" : "_ZTIi"
    },
    {
     "referenced_type" : "_ZTIP10__locale_t"
    }
   ],
   "return_type" : "_ZTIi",
   "source_file" : "bionic/libc/include/ctype.h"
  },
  {
   "function_name" : "iswalnum",
   "linker_set_key" : "iswalnum",
   "parameters" :
   [
    {
     "referenced_type" : "_ZTIj"
    }
   ],
   "return_type" : "_ZTIi",
   "source_file" : "bionic/libc/include/bits/wctype.h"
  },
  {
   "function_name" : "iswalnum_l",
   "linker_set_key" : "iswalnum_l",
   "parameters" :
   [
    {
     "referenced_type" : "_ZTIj"
    },
    {
     "referenced_type" : "_ZTIP10__locale_t"
    }
   ],
   "return_type" : "_ZTIi",
   "source_file" : "bionic/libc/include/wctype.h"
  },
  {
   "function_name" : "iswalpha",
   "linker_set_key" : "iswalpha",
   "parameters" :
   [
    {
     "referenced_type" : "_ZTIj"
    }
   ],
   "return_type" : "_ZTIi",
   "source_file" : "bionic/libc/include/bits/wctype.h"
  },
  {
   "function_name" : "iswalpha_l",
   "linker_set_key" : "iswalpha_l",
   "parameters" :
   [
    {
     "referenced_type" : "_ZTIj"
    },
    {
     "referenced_type" : "_ZTIP10__locale_t"
    }
   ],
   "return_type" : "_ZTIi",
   "source_file" : "bionic/libc/include/wctype.h"
  },
  {
   "function_name" : "iswblank",
   "linker_set_key" : "iswblank",
   "parameters" :
   [
    {
     "referenced_type" : "_ZTIj"
    }
   ],
   "return_type" : "_ZTIi",
   "source_file" : "bionic/libc/include/bits/wctype.h"
  },
  {
   "function_name" : "iswblank_l",
   "linker_set_key" : "iswblank_l",
   "parameters" :
   [
    {
     "referenced_type" : "_ZTIj"
    },
    {
     "referenced_type" : "_ZTIP10__locale_t"
    }
   ],
   "return_type" : "_ZTIi",
   "source_file" : "bionic/libc/include/wctype.h"
  },
  {
   "function_name" : "iswcntrl",
   "linker_set_key" : "iswcntrl",
   "parameters" :
   [
    {
     "referenced_type" : "_ZTIj"
    }
   ],
   "return_type" : "_ZTIi",
   "source_file" : "bionic/libc/include/bits/wctype.h"
  },
  {
   "function_name" : "iswcntrl_l",
   "linker_set_key" : "iswcntrl_l",
   "parameters" :
   [
    {
     "referenced_type" : "_ZTIj"
    },
    {
     "referenced_type" : "_ZTIP10__locale_t"
    }
   ],
   "return_type" : "_ZTIi",
   "source_file" : "bionic/libc/include/wctype.h"
  },
  {
   "function_name" : "iswctype",
   "linker_set_key" : "iswctype",
   "parameters" :
   [
    {
     "referenced_type" : "_ZTIj"
    },
    {
     "referenced_type" : "_ZTIl"
    }
   ],
   "return_type" : "_ZTIi",
   "source_file" : "bionic/libc/include/bits/wctype.h"
  },
  {
   "function_name" : "iswctype_l",
   "linker_set_key" : "iswctype_l",
   "parameters" :
   [
    {
     "referenced_type" : "_ZTIj"
    },
    {
     "referenced_type" : "_ZTIl"
    },
    {
     "referenced_type" : "_ZTIP10__locale_t"
    }
   ],
   "return_type" : "_ZTIi",
   "source_file" : "bionic/libc/include/wctype.h"
  },
  {
   "function_name" : "iswdigit",
   "linker_set_key" : "iswdigit",
   "parameters" :
   [
    {
     "referenced_type" : "_ZTIj"
    }
   ],
   "return_type" : "_ZTIi",
   "source_file" : "bionic/libc/include/bits/wctype.h"
  },
  {
   "function_name" : "iswdigit_l",
   "linker_set_key" : "iswdigit_l",
   "parameters" :
   [
    {
     "referenced_type" : "_ZTIj"
    },
    {
     "referenced_type" : "_ZTIP10__locale_t"
    }
   ],
   "return_type" : "_ZTIi",
   "source_file" : "bionic/libc/include/wctype.h"
  },
  {
   "function_name" : "iswgraph",
   "linker_set_key" : "iswgraph",
   "parameters" :
   [
    {
     "referenced_type" : "_ZTIj"
    }
   ],
   "return_type" : "_ZTIi",
   "source_file" : "bionic/libc/include/bits/wctype.h"
  },
  {
   "function_name" : "iswgraph_l",
   "linker_set_key" : "iswgraph_l",
   "parameters" :
   [
    {
     "referenced_type" : "_ZTIj"
    },
    {
     "referenced_type" : "_ZTIP10__locale_t"
    }
   ],
   "return_type" : "_ZTIi",
   "source_file" : "bionic/libc/include/wctype.h"
  },
  {
   "function_name" : "iswlower",
   "linker_set_key" : "iswlower",
   "parameters" :
   [
    {
     "referenced_type" : "_ZTIj"
    }
   ],
   "return_type" : "_ZTIi",
   "source_file" : "bionic/libc/include/bits/wctype.h"
  },
  {
   "function_name" : "iswlower_l",
   "linker_set_key" : "iswlower_l",
   "parameters" :
   [
    {
     "referenced_type" : "_ZTIj"
    },
    {
     "referenced_type" : "_ZTIP10__locale_t"
    }
   ],
   "return_type" : "_ZTIi",
   "source_file" : "bionic/libc/include/wctype.h"
  },
  {
   "function_name" : "iswprint",
   "linker_set_key" : "iswprint",
   "parameters" :
   [
    {
     "referenced_type" : "_ZTIj"
    }
   ],
   "return_type" : "_ZTIi",
   "source_file" : "bionic/libc/include/bits/wctype.h"
  },
  {
   "function_name" : "iswprint_l",
   "linker_set_key" : "iswprint_l",
   "parameters" :
   [
    {
     "referenced_type" : "_ZTIj"
    },
    {
     "referenced_type" : "_ZTIP10__locale_t"
    }
   ],
   "return_type" : "_ZTIi",
   "source_file" : "bionic/libc/include/wctype.h"
  },
  {
   "function_name" : "iswpunct",
   "linker_set_key" : "iswpunct",
   "parameters" :
   [
    {
     "referenced_type" : "_ZTIj"
    }
   ],
   "return_type" : "_ZTIi",
   "source_file" : "bionic/libc/include/bits/wctype.h"
  },
  {
   "function_name" : "iswpunct_l",
   "linker_set_key" : "iswpunct_l",
   "parameters" :
   [
    {
     "referenced_type" : "_ZTIj"
    },
    {
     "referenced_type" : "_ZTIP10__locale_t"
    }
   ],
   "return_type" : "_ZTIi",
   "source_file" : "bionic/libc/include/wctype.h"
  },
  {
   "function_name" : "iswspace",
   "linker_set_key" : "iswspace",
   "parameters" :
   [
    {
     "referenced_type" : "_ZTIj"
    }
   ],
   "return_type" : "_ZTIi",
   "source_file" : "bionic/libc/include/bits/wctype.h"
  },
  {
   "function_name" : "iswspace_l",
   "linker_set_key" : "iswspace_l",
   "parameters" :
   [
    {
     "referenced_type" : "_ZTIj"
    },
    {
     "referenced_type" : "_ZTIP10__locale_t"
    }
   ],
   "return_type" : "_ZTIi",
   "source_file" : "bionic/libc/include/wctype.h"
  },
  {
   "function_name" : "iswupper",
   "linker_set_key" : "iswupper",
   "parameters" :
   [
    {
     "referenced_type" : "_ZTIj"
    }
   ],
   "return_type" : "_ZTIi",
   "source_file" : "bionic/libc/include/bits/wctype.h"
  },
  {
   "function_name" : "iswupper_l",
   "linker_set_key" : "iswupper_l",
   "parameters" :
   [
    {
     "referenced_type" : "_ZTIj"
    },
    {
     "referenced_type" : "_ZTIP10__locale_t"
    }
   ],
   "return_type" : "_ZTIi",
   "source_file" : "bionic/libc/include/wctype.h"
  },
  {
   "function_name" : "iswxdigit",
   "linker_set_key" : "iswxdigit",
   "parameters" :
   [
    {
     "referenced_type" : "_ZTIj"
    }
   ],
   "return_type" : "_ZTIi",
   "source_file" : "bionic/libc/include/bits/wctype.h"
  },
  {
   "function_name" : "iswxdigit_l",
   "linker_set_key" : "iswxdigit_l",
   "parameters" :
   [
    {
     "referenced_type" : "_ZTIj"
    },
    {
     "referenced_type" : "_ZTIP10__locale_t"
    }
   ],
   "return_type" : "_ZTIi",
   "source_file" : "bionic/libc/include/wctype.h"
  },
  {
   "function_name" : "isxdigit",
   "linker_set_key" : "isxdigit",
   "parameters" :
   [
    {
     "referenced_type" : "_ZTIi"
    }
   ],
   "return_type" : "_ZTIi",
   "source_file" : "bionic/libc/include/ctype.h"
  },
  {
   "function_name" : "isxdigit_l",
   "linker_set_key" : "isxdigit_l",
   "parameters" :
   [
    {
     "referenced_type" : "_ZTIi"
    },
    {
     "referenced_type" : "_ZTIP10__locale_t"
    }
   ],
   "return_type" : "_ZTIi",
   "source_file" : "bionic/libc/include/ctype.h"
  },
  {
   "function_name" : "jrand48",
   "linker_set_key" : "jrand48",
   "parameters" :
   [
    {
     "referenced_type" : "_ZTIPt"
    }
   ],
   "return_type" : "_ZTIl",
   "source_file" : "bionic/libc/include/stdlib.h"
  },
  {
   "function_name" : "killpg",
   "linker_set_key" : "killpg",
   "parameters" :
   [
    {
     "referenced_type" : "_ZTIi"
    },
    {
     "referenced_type" : "_ZTIi"
    }
   ],
   "return_type" : "_ZTIi",
   "source_file" : "bionic/libc/include/signal.h"
  },
  {
   "function_name" : "labs",
   "linker_set_key" : "labs",
   "parameters" :
   [
    {
     "referenced_type" : "_ZTIl"
    }
   ],
   "return_type" : "_ZTIl",
   "source_file" : "bionic/libc/include/stdlib.h"
  },
  {
   "function_name" : "lchown",
   "linker_set_key" : "lchown",
   "parameters" :
   [
    {
     "referenced_type" : "_ZTIPKc"
    },
    {
     "referenced_type" : "_ZTIj"
    },
    {
     "referenced_type" : "_ZTIj"
    }
   ],
   "return_type" : "_ZTIi",
   "source_file" : "bionic/libc/include/unistd.h"
  },
  {
   "function_name" : "lcong48",
   "linker_set_key" : "lcong48",
   "parameters" :
   [
    {
     "referenced_type" : "_ZTIPt"
    }
   ],
   "return_type" : "_ZTIv",
   "source_file" : "bionic/libc/include/stdlib.h"
  },
  {
   "function_name" : "ldexp",
   "linker_set_key" : "ldexp",
   "parameters" :
   [
    {
     "referenced_type" : "_ZTId"
    },
    {
     "referenced_type" : "_ZTIi"
    }
   ],
   "return_type" : "_ZTId",
   "source_file" : "bionic/libc/include/math.h"
  },
  {
   "function_name" : "ldiv",
   "linker_set_key" : "ldiv",
   "parameters" :
   [
    {
     "referenced_type" : "_ZTIl"
    },
    {
     "referenced_type" : "_ZTIl"
    }
   ],
   "return_type" : "_ZTI6ldiv_t",
   "source_file" : "bionic/libc/include/stdlib.h"
  },
  {
   "function_name" : "lfind",
   "linker_set_key" : "lfind",
   "parameters" :
   [
    {
     "referenced_type" : "_ZTIPKv"
    },
    {
     "referenced_type" : "_ZTIPKv"
    },
    {
     "referenced_type" : "_ZTIPj"
    },
    {
     "referenced_type" : "_ZTIj"
    },
    {
     "referenced_type" : "_ZTIPFiPKvS0_E"
    }
   ],
   "return_type" : "_ZTIPv",
   "source_file" : "bionic/libc/include/search.h"
  },
  {
   "function_name" : "link",
   "linker_set_key" : "link",
   "parameters" :
   [
    {
     "referenced_type" : "_ZTIPKc"
    },
    {
     "referenced_type" : "_ZTIPKc"
    }
   ],
   "return_type" : "_ZTIi",
   "source_file" : "bionic/libc/include/unistd.h"
  },
  {
   "function_name" : "llabs",
   "linker_set_key" : "llabs",
   "parameters" :
   [
    {
     "referenced_type" : "_ZTIx"
    }
   ],
   "return_type" : "_ZTIx",
   "source_file" : "bionic/libc/include/stdlib.h"
  },
  {
   "function_name" : "lldiv",
   "linker_set_key" : "lldiv",
   "parameters" :
   [
    {
     "referenced_type" : "_ZTIx"
    },
    {
     "referenced_type" : "_ZTIx"
    }
   ],
   "return_type" : "_ZTI7lldiv_t",
   "source_file" : "bionic/libc/include/stdlib.h"
  },
  {
   "function_name" : "localeconv",
   "linker_set_key" : "localeconv",
   "return_type" : "_ZTIP5lconv",
   "source_file" : "bionic/libc/include/locale.h"
  },
  {
   "function_name" : "localtime",
   "linker_set_key" : "localtime",
   "parameters" :
   [
    {
     "referenced_type" : "_ZTIPKl"
    }
   ],
   "return_type" : "_ZTIP2tm",
   "source_file" : "bionic/libc/include/time.h"
  },
  {
   "function_name" : "localtime64",
   "linker_set_key" : "localtime64",
   "parameters" :
   [
    {
     "referenced_type" : "_ZTIPKx"
    }
   ],
   "return_type" : "_ZTIP2tm",
   "source_file" : "bionic/libc/include/time64.h"
  },
  {
   "function_name" : "localtime64_r",
   "linker_set_key" : "localtime64_r",
   "parameters" :
   [
    {
     "referenced_type" : "_ZTIPKx"
    },
    {
     "referenced_type" : "_ZTIP2tm"
    }
   ],
   "return_type" : "_ZTIP2tm",
   "source_file" : "bionic/libc/include/time64.h"
  },
  {
   "function_name" : "localtime_r",
   "linker_set_key" : "localtime_r",
   "parameters" :
   [
    {
     "referenced_type" : "_ZTIPKl"
    },
    {
     "referenced_type" : "_ZTIP2tm"
    }
   ],
   "return_type" : "_ZTIP2tm",
   "source_file" : "bionic/libc/include/time.h"
  },
  {
   "function_name" : "lockf",
   "linker_set_key" : "lockf",
   "parameters" :
   [
    {
     "referenced_type" : "_ZTIi"
    },
    {
     "referenced_type" : "_ZTIi"
    },
    {
     "referenced_type" : "_ZTIl"
    }
   ],
   "return_type" : "_ZTIi",
   "source_file" : "bionic/libc/include/bits/lockf.h"
  },
  {
   "function_name" : "lockf64",
   "linker_set_key" : "lockf64",
   "parameters" :
   [
    {
     "referenced_type" : "_ZTIi"
    },
    {
     "referenced_type" : "_ZTIi"
    },
    {
     "referenced_type" : "_ZTIx"
    }
   ],
   "return_type" : "_ZTIi",
   "source_file" : "bionic/libc/include/bits/lockf.h"
  },
  {
   "function_name" : "login_tty",
   "linker_set_key" : "login_tty",
   "parameters" :
   [
    {
     "referenced_type" : "_ZTIi"
    }
   ],
   "return_type" : "_ZTIi",
   "source_file" : "bionic/libc/include/utmp.h"
  },
  {
   "function_name" : "lrand48",
   "linker_set_key" : "lrand48",
   "return_type" : "_ZTIl",
   "source_file" : "bionic/libc/include/stdlib.h"
  },
  {
   "function_name" : "lsearch",
   "linker_set_key" : "lsearch",
   "parameters" :
   [
    {
     "referenced_type" : "_ZTIPKv"
    },
    {
     "referenced_type" : "_ZTIPv"
    },
    {
     "referenced_type" : "_ZTIPj"
    },
    {
     "referenced_type" : "_ZTIj"
    },
    {
     "referenced_type" : "_ZTIPFiPKvS0_E"
    }
   ],
   "return_type" : "_ZTIPv",
   "source_file" : "bionic/libc/include/search.h"
  },
  {
   "function_name" : "lseek64",
   "linker_set_key" : "lseek64",
   "parameters" :
   [
    {
     "referenced_type" : "_ZTIi"
    },
    {
     "referenced_type" : "_ZTIx"
    },
    {
     "referenced_type" : "_ZTIi"
    }
   ],
   "return_type" : "_ZTIx",
   "source_file" : "bionic/libc/include/unistd.h"
  },
  {
   "function_name" : "lstat",
   "linker_set_key" : "lstat",
   "parameters" :
   [
    {
     "referenced_type" : "_ZTIPKc"
    },
    {
     "referenced_type" : "_ZTIP4stat"
    }
   ],
   "return_type" : "_ZTIi",
   "source_file" : "bionic/libc/include/sys/stat.h"
  },
  {
   "function_name" : "lutimes",
   "linker_set_key" : "lutimes",
   "parameters" :
   [
    {
     "referenced_type" : "_ZTIPKc"
    },
    {
     "referenced_type" : "_ZTIPK7timeval"
    }
   ],
   "return_type" : "_ZTIi",
   "source_file" : "bionic/libc/include/sys/time.h"
  },
  {
   "function_name" : "mallinfo",
   "linker_set_key" : "mallinfo",
   "return_type" : "_ZTI8mallinfo",
   "source_file" : "bionic/libc/include/malloc.h"
  },
  {
   "function_name" : "malloc",
   "linker_set_key" : "malloc",
   "parameters" :
   [
    {
     "referenced_type" : "_ZTIj"
    }
   ],
   "return_type" : "_ZTIPv",
   "source_file" : "bionic/libc/include/malloc.h"
  },
  {
   "function_name" : "malloc_info",
   "linker_set_key" : "malloc_info",
   "parameters" :
   [
    {
     "referenced_type" : "_ZTIi"
    },
    {
     "referenced_type" : "_ZTIP7__sFILE"
    }
   ],
   "return_type" : "_ZTIi",
   "source_file" : "bionic/libc/include/malloc.h"
  },
  {
   "function_name" : "malloc_usable_size",
   "linker_set_key" : "malloc_usable_size",
   "parameters" :
   [
    {
     "referenced_type" : "_ZTIPKv"
    }
   ],
   "return_type" : "_ZTIj",
   "source_file" : "bionic/libc/include/malloc.h"
  },
  {
   "function_name" : "mallopt",
   "linker_set_key" : "mallopt",
   "parameters" :
   [
    {
     "referenced_type" : "_ZTIi"
    },
    {
     "referenced_type" : "_ZTIi"
    }
   ],
   "return_type" : "_ZTIi",
   "source_file" : "bionic/libc/include/malloc.h"
  },
  {
   "function_name" : "mblen",
   "linker_set_key" : "mblen",
   "parameters" :
   [
    {
     "referenced_type" : "_ZTIPKc"
    },
    {
     "referenced_type" : "_ZTIj"
    }
   ],
   "return_type" : "_ZTIi",
   "source_file" : "bionic/libc/include/stdlib.h"
  },
  {
   "function_name" : "mbrlen",
   "linker_set_key" : "mbrlen",
   "parameters" :
   [
    {
     "referenced_type" : "_ZTIPKc"
    },
    {
     "referenced_type" : "_ZTIj"
    },
    {
     "referenced_type" : "_ZTIP9mbstate_t"
    }
   ],
   "return_type" : "_ZTIj",
   "source_file" : "bionic/libc/include/wchar.h"
  },
  {
   "function_name" : "mbrtoc16",
   "linker_set_key" : "mbrtoc16",
   "parameters" :
   [
    {
     "referenced_type" : "_ZTIPDs"
    },
    {
     "referenced_type" : "_ZTIPKc"
    },
    {
     "referenced_type" : "_ZTIj"
    },
    {
     "referenced_type" : "_ZTIP9mbstate_t"
    }
   ],
   "return_type" : "_ZTIj",
   "source_file" : "bionic/libc/include/uchar.h"
  },
  {
   "function_name" : "mbrtoc32",
   "linker_set_key" : "mbrtoc32",
   "parameters" :
   [
    {
     "referenced_type" : "_ZTIPDi"
    },
    {
     "referenced_type" : "_ZTIPKc"
    },
    {
     "referenced_type" : "_ZTIj"
    },
    {
     "referenced_type" : "_ZTIP9mbstate_t"
    }
   ],
   "return_type" : "_ZTIj",
   "source_file" : "bionic/libc/include/uchar.h"
  },
  {
   "function_name" : "mbrtowc",
   "linker_set_key" : "mbrtowc",
   "parameters" :
   [
    {
     "referenced_type" : "_ZTIPw"
    },
    {
     "referenced_type" : "_ZTIPKc"
    },
    {
     "referenced_type" : "_ZTIj"
    },
    {
     "referenced_type" : "_ZTIP9mbstate_t"
    }
   ],
   "return_type" : "_ZTIj",
   "source_file" : "bionic/libc/include/wchar.h"
  },
  {
   "function_name" : "mbsinit",
   "linker_set_key" : "mbsinit",
   "parameters" :
   [
    {
     "referenced_type" : "_ZTIPK9mbstate_t"
    }
   ],
   "return_type" : "_ZTIi",
   "source_file" : "bionic/libc/include/wchar.h"
  },
  {
   "function_name" : "mbsnrtowcs",
   "linker_set_key" : "mbsnrtowcs",
   "parameters" :
   [
    {
     "referenced_type" : "_ZTIPw"
    },
    {
     "referenced_type" : "_ZTIPPKc"
    },
    {
     "referenced_type" : "_ZTIj"
    },
    {
     "referenced_type" : "_ZTIj"
    },
    {
     "referenced_type" : "_ZTIP9mbstate_t"
    }
   ],
   "return_type" : "_ZTIj",
   "source_file" : "bionic/libc/include/wchar.h"
  },
  {
   "function_name" : "mbsrtowcs",
   "linker_set_key" : "mbsrtowcs",
   "parameters" :
   [
    {
     "referenced_type" : "_ZTIPw"
    },
    {
     "referenced_type" : "_ZTIPPKc"
    },
    {
     "referenced_type" : "_ZTIj"
    },
    {
     "referenced_type" : "_ZTIP9mbstate_t"
    }
   ],
   "return_type" : "_ZTIj",
   "source_file" : "bionic/libc/include/wchar.h"
  },
  {
   "function_name" : "mbstowcs",
   "linker_set_key" : "mbstowcs",
   "parameters" :
   [
    {
     "referenced_type" : "_ZTIPj"
    },
    {
     "referenced_type" : "_ZTIPKc"
    },
    {
     "referenced_type" : "_ZTIj"
    }
   ],
   "return_type" : "_ZTIj",
   "source_file" : "bionic/libc/include/stdlib.h"
  },
  {
   "function_name" : "mbtowc",
   "linker_set_key" : "mbtowc",
   "parameters" :
   [
    {
     "referenced_type" : "_ZTIPj"
    },
    {
     "referenced_type" : "_ZTIPKc"
    },
    {
     "referenced_type" : "_ZTIj"
    }
   ],
   "return_type" : "_ZTIi",
   "source_file" : "bionic/libc/include/stdlib.h"
  },
  {
   "function_name" : "memalign",
   "linker_set_key" : "memalign",
   "parameters" :
   [
    {
     "referenced_type" : "_ZTIj"
    },
    {
     "referenced_type" : "_ZTIj"
    }
   ],
   "return_type" : "_ZTIPv",
   "source_file" : "bionic/libc/include/malloc.h"
  },
  {
   "function_name" : "memccpy",
   "linker_set_key" : "memccpy",
   "parameters" :
   [
    {
     "referenced_type" : "_ZTIPv"
    },
    {
     "referenced_type" : "_ZTIPKv"
    },
    {
     "referenced_type" : "_ZTIi"
    },
    {
     "referenced_type" : "_ZTIj"
    }
   ],
   "return_type" : "_ZTIPv",
   "source_file" : "bionic/libc/include/string.h"
  },
  {
   "function_name" : "memchr",
   "linker_set_key" : "memchr",
   "parameters" :
   [
    {
     "referenced_type" : "_ZTIPKv"
    },
    {
     "referenced_type" : "_ZTIi"
    },
    {
     "referenced_type" : "_ZTIj"
    }
   ],
   "return_type" : "_ZTIPv",
   "source_file" : "bionic/libc/include/string.h"
  },
  {
   "function_name" : "memmem",
   "linker_set_key" : "memmem",
   "parameters" :
   [
    {
     "referenced_type" : "_ZTIPKv"
    },
    {
     "referenced_type" : "_ZTIj"
    },
    {
     "referenced_type" : "_ZTIPKv"
    },
    {
     "referenced_type" : "_ZTIj"
    }
   ],
   "return_type" : "_ZTIPv",
   "source_file" : "bionic/libc/include/string.h"
  },
  {
   "function_name" : "mempcpy",
   "linker_set_key" : "mempcpy",
   "parameters" :
   [
    {
     "referenced_type" : "_ZTIPv"
    },
    {
     "referenced_type" : "_ZTIPKv"
    },
    {
     "referenced_type" : "_ZTIj"
    }
   ],
   "return_type" : "_ZTIPv",
   "source_file" : "bionic/libc/include/string.h"
  },
  {
   "function_name" : "memrchr",
   "linker_set_key" : "memrchr",
   "parameters" :
   [
    {
     "referenced_type" : "_ZTIPKv"
    },
    {
     "referenced_type" : "_ZTIi"
    },
    {
     "referenced_type" : "_ZTIj"
    }
   ],
   "return_type" : "_ZTIPv",
   "source_file" : "bionic/libc/include/string.h"
  },
  {
   "function_name" : "memset_explicit",
   "linker_set_key" : "memset_explicit",
   "parameters" :
   [
    {
     "referenced_type" : "_ZTIPv"
    },
    {
     "referenced_type" : "_ZTIi"
    },
    {
     "referenced_type" : "_ZTIj"
    }
   ],
   "return_type" : "_ZTIPv",
   "source_file" : "bionic/libc/include/string.h"
  },
  {
   "function_name" : "mkdir",
   "linker_set_key" : "mkdir",
   "parameters" :
   [
    {
     "referenced_type" : "_ZTIPKc"
    },
    {
     "referenced_type" : "_ZTIt"
    }
   ],
   "return_type" : "_ZTIi",
   "source_file" : "bionic/libc/include/sys/stat.h"
  },
  {
   "function_name" : "mkdtemp",
   "linker_set_key" : "mkdtemp",
   "parameters" :
   [
    {
     "referenced_type" : "_ZTIPc"
    }
   ],
   "return_type" : "_ZTIPc",
   "source_file" : "bionic/libc/include/stdlib.h"
  },
  {
   "function_name" : "mkfifo",
   "linker_set_key" : "mkfifo",
   "parameters" :
   [
    {
     "referenced_type" : "_ZTIPKc"
    },
    {
     "referenced_type" : "_ZTIt"
    }
   ],
   "return_type" : "_ZTIi",
   "source_file" : "bionic/libc/include/sys/stat.h"
  },
  {
   "function_name" : "mkfifoat",
   "linker_set_key" : "mkfifoat",
   "parameters" :
   [
    {
     "referenced_type" : "_ZTIi"
    },
    {
     "referenced_type" : "_ZTIPKc"
    },
    {
     "referenced_type" : "_ZTIt"
    }
   ],
   "return_type" : "_ZTIi",
   "source_file" : "bionic/libc/include/sys/stat.h"
  },
  {
   "function_name" : "mknod",
   "linker_set_key" : "mknod",
   "parameters" :
   [
    {
     "referenced_type" : "_ZTIPKc"
    },
    {
     "referenced_type" : "_ZTIt"
    },
    {
     "referenced_type" : "_ZTIj"
    }
   ],
   "return_type" : "_ZTIi",
   "source_file" : "bionic/libc/include/sys/stat.h"
  },
  {
   "function_name" : "mkostemp",
   "linker_set_key" : "mkostemp",
   "parameters" :
   [
    {
     "referenced_type" : "_ZTIPc"
    },
    {
     "referenced_type" : "_ZTIi"
    }
   ],
   "return_type" : "_ZTIi",
   "source_file" : "bionic/libc/include/stdlib.h"
  },
  {
   "function_name" : "mkostemp64",
   "linker_set_key" : "mkostemp64",
   "parameters" :
   [
    {
     "referenced_type" : "_ZTIPc"
    },
    {
     "referenced_type" : "_ZTIi"
    }
   ],
   "return_type" : "_ZTIi",
   "source_file" : "bionic/libc/include/stdlib.h"
  },
  {
   "function_name" : "mkostemps",
   "linker_set_key" : "mkostemps",
   "parameters" :
   [
    {
     "referenced_type" : "_ZTIPc"
    },
    {
     "referenced_type" : "_ZTIi"
    },
    {
     "referenced_type" : "_ZTIi"
    }
   ],
   "return_type" : "_ZTIi",
   "source_file" : "bionic/libc/include/stdlib.h"
  },
  {
   "function_name" : "mkostemps64",
   "linker_set_key" : "mkostemps64",
   "parameters" :
   [
    {
     "referenced_type" : "_ZTIPc"
    },
    {
     "referenced_type" : "_ZTIi"
    },
    {
     "referenced_type" : "_ZTIi"
    }
   ],
   "return_type" : "_ZTIi",
   "source_file" : "bionic/libc/include/stdlib.h"
  },
  {
   "function_name" : "mkstemp",
   "linker_set_key" : "mkstemp",
   "parameters" :
   [
    {
     "referenced_type" : "_ZTIPc"
    }
   ],
   "return_type" : "_ZTIi",
   "source_file" : "bionic/libc/include/stdlib.h"
  },
  {
   "function_name" : "mkstemp64",
   "linker_set_key" : "mkstemp64",
   "parameters" :
   [
    {
     "referenced_type" : "_ZTIPc"
    }
   ],
   "return_type" : "_ZTIi",
   "source_file" : "bionic/libc/include/stdlib.h"
  },
  {
   "function_name" : "mkstemps",
   "linker_set_key" : "mkstemps",
   "parameters" :
   [
    {
     "referenced_type" : "_ZTIPc"
    },
    {
     "referenced_type" : "_ZTIi"
    }
   ],
   "return_type" : "_ZTIi",
   "source_file" : "bionic/libc/include/stdlib.h"
  },
  {
   "function_name" : "mkstemps64",
   "linker_set_key" : "mkstemps64",
   "parameters" :
   [
    {
     "referenced_type" : "_ZTIPc"
    },
    {
     "referenced_type" : "_ZTIi"
    }
   ],
   "return_type" : "_ZTIi",
   "source_file" : "bionic/libc/include/stdlib.h"
  },
  {
   "function_name" : "mktemp",
   "linker_set_key" : "mktemp",
   "parameters" :
   [
    {
     "referenced_type" : "_ZTIPc"
    }
   ],
   "return_type" : "_ZTIPc",
   "source_file" : "bionic/libc/include/stdlib.h"
  },
  {
   "function_name" : "mktime",
   "linker_set_key" : "mktime",
   "parameters" :
   [
    {
     "referenced_type" : "_ZTIP2tm"
    }
   ],
   "return_type" : "_ZTIl",
   "source_file" : "bionic/libc/include/time.h"
  },
  {
   "function_name" : "mktime64",
   "linker_set_key" : "mktime64",
   "parameters" :
   [
    {
     "referenced_type" : "_ZTIPK2tm"
    }
   ],
   "return_type" : "_ZTIx",
   "source_file" : "bionic/libc/include/time64.h"
  },
  {
   "function_name" : "mmap",
   "linker_set_key" : "mmap",
   "parameters" :
   [
    {
     "referenced_type" : "_ZTIPv"
    },
    {
     "referenced_type" : "_ZTIj"
    },
    {
     "referenced_type" : "_ZTIi"
    },
    {
     "referenced_type" : "_ZTIi"
    },
    {
     "referenced_type" : "_ZTIi"
    },
    {
     "referenced_type" : "_ZTIl"
    }
   ],
   "return_type" : "_ZTIPv",
   "source_file" : "bionic/libc/include/sys/mman.h"
  },
  {
   "function_name" : "mmap64",
   "linker_set_key" : "mmap64",
   "parameters" :
   [
    {
     "referenced_type" : "_ZTIPv"
    },
    {
     "referenced_type" : "_ZTIj"
    },
    {
     "referenced_type" : "_ZTIi"
    },
    {
     "referenced_type" : "_ZTIi"
    },
    {
     "referenced_type" : "_ZTIi"
    },
    {
     "referenced_type" : "_ZTIx"
    }
   ],
   "return_type" : "_ZTIPv",
   "source_file" : "bionic/libc/include/sys/mman.h"
  },
  {
   "function_name" : "mrand48",
   "linker_set_key" : "mrand48",
   "return_type" : "_ZTIl",
   "source_file" : "bionic/libc/include/stdlib.h"
  },
  {
   "function_name" : "mremap",
   "linker_set_key" : "mremap",
   "parameters" :
   [
    {
     "referenced_type" : "_ZTIPv"
    },
    {
     "referenced_type" : "_ZTIj"
    },
    {
     "referenced_type" : "_ZTIj"
    },
    {
     "referenced_type" : "_ZTIi"
    }
   ],
   "return_type" : "_ZTIPv",
   "source_file" : "bionic/libc/include/sys/mman.h"
  },
  {
   "function_name" : "msgctl",
   "linker_set_key" : "msgctl",
   "parameters" :
   [
    {
     "referenced_type" : "_ZTIi"
    },
    {
     "referenced_type" : "_ZTIi"
    },
    {
     "referenced_type" : "_ZTIP10msqid64_ds"
    }
   ],
   "return_type" : "_ZTIi",
   "source_file" : "bionic/libc/include/sys/msg.h"
  },
  {
   "function_name" : "msgget",
   "linker_set_key" : "msgget",
   "parameters" :
   [
    {
     "referenced_type" : "_ZTIi"
    },
    {
     "referenced_type" : "_ZTIi"
    }
   ],
   "return_type" : "_ZTIi",
   "source_file" : "bionic/libc/include/sys/msg.h"
  },
  {
   "function_name" : "msgrcv",
   "linker_set_key" : "msgrcv",
   "parameters" :
   [
    {
     "referenced_type" : "_ZTIi"
    },
    {
     "referenced_type" : "_ZTIPv"
    },
    {
     "referenced_type" : "_ZTIj"
    },
    {
     "referenced_type" : "_ZTIl"
    },
    {
     "referenced_type" : "_ZTIi"
    }
   ],
   "return_type" : "_ZTIi",
   "source_file" : "bionic/libc/include/sys/msg.h"
  },
  {
   "function_name" : "msgsnd",
   "linker_set_key" : "msgsnd",
   "parameters" :
   [
    {
     "referenced_type" : "_ZTIi"
    },
    {
     "referenced_type" : "_ZTIPKv"
    },
    {
     "referenced_type" : "_ZTIj"
    },
    {
     "referenced_type" : "_ZTIi"
    }
   ],
   "return_type" : "_ZTIi",
   "source_file" : "bionic/libc/include/sys/msg.h"
  },
  {
   "function_name" : "mtx_destroy",
   "linker_set_key" : "mtx_destroy",
   "parameters" :
   [
    {
     "referenced_type" : "_ZTIP15pthread_mutex_t"
    }
   ],
   "return_type" : "_ZTIv",
   "source_file" : "bionic/libc/include/threads.h"
  },
  {
   "function_name" : "mtx_init",
   "linker_set_key" : "mtx_init",
   "parameters" :
   [
    {
     "referenced_type" : "_ZTIP15pthread_mutex_t"
    },
    {
     "referenced_type" : "_ZTIi"
    }
   ],
   "return_type" : "_ZTIi",
   "source_file" : "bionic/libc/include/threads.h"
  },
  {
   "function_name" : "mtx_lock",
   "linker_set_key" : "mtx_lock",
   "parameters" :
   [
    {
     "referenced_type" : "_ZTIP15pthread_mutex_t"
    }
   ],
   "return_type" : "_ZTIi",
   "source_file" : "bionic/libc/include/threads.h"
  },
  {
   "function_name" : "mtx_timedlock",
   "linker_set_key" : "mtx_timedlock",
   "parameters" :
   [
    {
     "referenced_type" : "_ZTIP15pthread_mutex_t"
    },
    {
     "referenced_type" : "_ZTIPK8timespec"
    }
   ],
   "return_type" : "_ZTIi",
   "source_file" : "bionic/libc/include/threads.h"
  },
  {
   "function_name" : "mtx_trylock",
   "linker_set_key" : "mtx_trylock",
   "parameters" :
   [
    {
     "referenced_type" : "_ZTIP15pthread_mutex_t"
    }
   ],
   "return_type" : "_ZTIi",
   "source_file" : "bionic/libc/include/threads.h"
  },
  {
   "function_name" : "mtx_unlock",
   "linker_set_key" : "mtx_unlock",
   "parameters" :
   [
    {
     "referenced_type" : "_ZTIP15pthread_mutex_t"
    }
   ],
   "return_type" : "_ZTIi",
   "source_file" : "bionic/libc/include/threads.h"
  },
  {
   "function_name" : "newlocale",
   "linker_set_key" : "newlocale",
   "parameters" :
   [
    {
     "referenced_type" : "_ZTIi"
    },
    {
     "referenced_type" : "_ZTIPKc"
    },
    {
     "referenced_type" : "_ZTIP10__locale_t"
    }
   ],
   "return_type" : "_ZTIP10__locale_t",
   "source_file" : "bionic/libc/include/locale.h"
  },
  {
   "function_name" : "nftw",
   "linker_set_key" : "nftw",
   "parameters" :
   [
    {
     "referenced_type" : "_ZTIPKc"
    },
    {
     "referenced_type" : "_ZTIPFiPKcPK4statiP3FTWE"
    },
    {
     "referenced_type" : "_ZTIi"
    },
    {
     "referenced_type" : "_ZTIi"
    }
   ],
   "return_type" : "_ZTIi",
   "source_file" : "bionic/libc/include/ftw.h"
  },
  {
   "function_name" : "nftw64",
   "linker_set_key" : "nftw64",
   "parameters" :
   [
    {
     "referenced_type" : "_ZTIPKc"
    },
    {
     "referenced_type" : "_ZTIPFiPKcPK6stat64iP3FTWE"
    },
    {
     "referenced_type" : "_ZTIi"
    },
    {
     "referenced_type" : "_ZTIi"
    }
   ],
   "return_type" : "_ZTIi",
   "source_file" : "bionic/libc/include/ftw.h"
  },
  {
   "function_name" : "nice",
   "linker_set_key" : "nice",
   "parameters" :
   [
    {
     "referenced_type" : "_ZTIi"
    }
   ],
   "return_type" : "_ZTIi",
   "source_file" : "bionic/libc/include/unistd.h"
  },
  {
   "function_name" : "nl_langinfo",
   "linker_set_key" : "nl_langinfo",
   "parameters" :
   [
    {
     "referenced_type" : "_ZTIi"
    }
   ],
   "return_type" : "_ZTIPc",
   "source_file" : "bionic/libc/include/langinfo.h"
  },
  {
   "function_name" : "nl_langinfo_l",
   "linker_set_key" : "nl_langinfo_l",
   "parameters" :
   [
    {
     "referenced_type" : "_ZTIi"
    },
    {
     "referenced_type" : "_ZTIP10__locale_t"
    }
   ],
   "return_type" : "_ZTIPc",
   "source_file" : "bionic/libc/include/langinfo.h"
  },
  {
   "function_name" : "nrand48",
   "linker_set_key" : "nrand48",
   "parameters" :
   [
    {
     "referenced_type" : "_ZTIPt"
    }
   ],
   "return_type" : "_ZTIl",
   "source_file" : "bionic/libc/include/stdlib.h"
  },
  {
   "function_name" : "ntohl",
   "linker_set_key" : "ntohl",
   "parameters" :
   [
    {
     "referenced_type" : "_ZTIj"
    }
   ],
   "return_type" : "_ZTIj",
   "source_file" : "bionic/libc/include/sys/endian.h"
  },
  {
   "function_name" : "ntohs",
   "linker_set_key" : "ntohs",
   "parameters" :
   [
    {
     "referenced_type" : "_ZTIt"
    }
   ],
   "return_type" : "_ZTIt",
   "source_file" : "bionic/libc/include/sys/endian.h"
  },
  {
   "function_name" : "open",
   "linker_set_key" : "open",
   "parameters" :
   [
    {
     "referenced_type" : "_ZTIPKc"
    },
    {
     "referenced_type" : "_ZTIi"
    }
   ],
   "return_type" : "_ZTIi",
   "source_file" : "bionic/libc/include/fcntl.h"
  },
  {
   "function_name" : "open_memstream",
   "linker_set_key" : "open_memstream",
   "parameters" :
   [
    {
     "referenced_type" : "_ZTIPPc"
    },
    {
     "referenced_type" : "_ZTIPj"
    }
   ],
   "return_type" : "_ZTIP7__sFILE",
   "source_file" : "bionic/libc/include/stdio.h"
  },
  {
   "function_name" : "open_wmemstream",
   "linker_set_key" : "open_wmemstream",
   "parameters" :
   [
    {
     "referenced_type" : "_ZTIPPj"
    },
    {
     "referenced_type" : "_ZTIPj"
    }
   ],
   "return_type" : "_ZTIP7__sFILE",
   "source_file" : "bionic/libc/include/wchar.h"
  },
  {
   "function_name" : "openat",
   "linker_set_key" : "openat",
   "parameters" :
   [
    {
     "referenced_type" : "_ZTIi"
    },
    {
     "referenced_type" : "_ZTIPKc"
    },
    {
     "referenced_type" : "_ZTIi"
    }
   ],
   "return_type" : "_ZTIi",
   "source_file" : "bionic/libc/include/fcntl.h"
  },
  {
   "function_name" : "opendir",
   "linker_set_key" : "opendir",
   "parameters" :
   [
    {
     "referenced_type" : "_ZTIPKc"
    }
   ],
   "return_type" : "_ZTIP3DIR",
   "source_file" : "bionic/libc/include/dirent.h"
  },
  {
   "function_name" : "openlog",
   "linker_set_key" : "openlog",
   "parameters" :
   [
    {
     "referenced_type" : "_ZTIPKc"
    },
    {
     "referenced_type" : "_ZTIi"
    },
    {
     "referenced_type" : "_ZTIi"
    }
   ],
   "return_type" : "_ZTIv",
   "source_file" : "bionic/libc/include/syslog.h"
  },
  {
   "function_name" : "openpty",
   "linker_set_key" : "openpty",
   "parameters" :
   [
    {
     "referenced_type" : "_ZTIPi"
    },
    {
     "referenced_type" : "_ZTIPi"
    },
    {
     "referenced_type" : "_ZTIPc"
    },
    {
     "referenced_type" : "_ZTIPK7termios"
    },
    {
     "referenced_type" : "_ZTIPK7winsize"
    }
   ],
   "return_type" : "_ZTIi",
   "source_file" : "bionic/libc/include/pty.h"
  },
  {
   "function_name" : "pathconf",
   "linker_set_key" : "pathconf",
   "parameters" :
   [
    {
     "referenced_type" : "_ZTIPKc"
    },
    {
     "referenced_type" : "_ZTIi"
    }
   ],
   "return_type" : "_ZTIl",
   "source_file" : "bionic/libc/include/unistd.h"
  },
  {
   "function_name" : "pause",
   "linker_set_key" : "pause",
   "return_type" : "_ZTIi",
   "source_file" : "bionic/libc/include/unistd.h"
  },
  {
   "function_name" : "pclose",
   "linker_set_key" : "pclose",
   "parameters" :
   [
    {
     "referenced_type" : "_ZTIP7__sFILE"
    }
   ],
   "return_type" : "_ZTIi",
   "source_file" : "bionic/libc/include/stdio.h"
  },
  {
   "function_name" : "perror",
   "linker_set_key" : "perror",
   "parameters" :
   [
    {
     "referenced_type" : "_ZTIPKc"
    }
   ],
   "return_type" : "_ZTIv",
   "source_file" : "bionic/libc/include/stdio.h"
  },
  {
   "function_name" : "pidfd_getfd",
   "linker_set_key" : "pidfd_getfd",
   "parameters" :
   [
    {
     "referenced_type" : "_ZTIi"
    },
    {
     "referenced_type" : "_ZTIi"
    },
    {
     "referenced_type" : "_ZTIj"
    }
   ],
   "return_type" : "_ZTIi",
   "source_file" : "bionic/libc/include/sys/pidfd.h"
  },
  {
   "function_name" : "pidfd_open",
   "linker_set_key" : "pidfd_open",
   "parameters" :
   [
    {
     "referenced_type" : "_ZTIi"
    },
    {
     "referenced_type" : "_ZTIj"
    }
   ],
   "return_type" : "_ZTIi",
   "source_file" : "bionic/libc/include/sys/pidfd.h"
  },
  {
   "function_name" : "pipe",
   "linker_set_key" : "pipe",
   "parameters" :
   [
    {
     "referenced_type" : "_ZTIPi"
    }
   ],
   "return_type" : "_ZTIi",
   "source_file" : "bionic/libc/include/unistd.h"
  },
  {
   "function_name" : "pipe2",
   "linker_set_key" : "pipe2",
   "parameters" :
   [
    {
     "referenced_type" : "_ZTIPi"
    },
    {
     "referenced_type" : "_ZTIi"
    }
   ],
   "return_type" : "_ZTIi",
   "source_file" : "bionic/libc/include/unistd.h"
  },
  {
   "function_name" : "poll",
   "linker_set_key" : "poll",
   "parameters" :
   [
    {
     "referenced_type" : "_ZTIP6pollfd"
    },
    {
     "referenced_type" : "_ZTIj"
    },
    {
     "referenced_type" : "_ZTIi"
    }
   ],
   "return_type" : "_ZTIi",
   "source_file" : "bionic/libc/include/poll.h"
  },
  {
   "function_name" : "popen",
   "linker_set_key" : "popen",
   "parameters" :
   [
    {
     "referenced_type" : "_ZTIPKc"
    },
    {
     "referenced_type" : "_ZTIPKc"
    }
   ],
   "return_type" : "_ZTIP7__sFILE",
   "source_file" : "bionic/libc/include/stdio.h"
  },
  {
   "function_name" : "posix_fadvise",
   "linker_set_key" : "posix_fadvise",
   "parameters" :
   [
    {
     "referenced_type" : "_ZTIi"
    },
    {
     "referenced_type" : "_ZTIl"
    },
    {
     "referenced_type" : "_ZTIl"
    },
    {
     "referenced_type" : "_ZTIi"
    }
   ],
   "return_type" : "_ZTIi",
   "source_file" : "bionic/libc/include/fcntl.h"
  },
  {
   "function_name" : "posix_fadvise64",
   "linker_set_key" : "posix_fadvise64",
   "parameters" :
   [
    {
     "referenced_type" : "_ZTIi"
    },
    {
     "referenced_type" : "_ZTIx"
    },
    {
     "referenced_type" : "_ZTIx"
    },
    {
     "referenced_type" : "_ZTIi"
    }
   ],
   "return_type" : "_ZTIi",
   "source_file" : "bionic/libc/include/fcntl.h"
  },
  {
   "function_name" : "posix_fallocate",
   "linker_set_key" : "posix_fallocate",
   "parameters" :
   [
    {
     "referenced_type" : "_ZTIi"
    },
    {
     "referenced_type" : "_ZTIl"
    },
    {
     "referenced_type" : "_ZTIl"
    }
   ],
   "return_type" : "_ZTIi",
   "source_file" : "bionic/libc/include/fcntl.h"
  },
  {
   "function_name" : "posix_fallocate64",
   "linker_set_key" : "posix_fallocate64",
   "parameters" :
   [
    {
     "referenced_type" : "_ZTIi"
    },
    {
     "referenced_type" : "_ZTIx"
    },
    {
     "referenced_type" : "_ZTIx"
    }
   ],
   "return_type" : "_ZTIi",
   "source_file" : "bionic/libc/include/fcntl.h"
  },
  {
   "function_name" : "posix_madvise",
   "linker_set_key" : "posix_madvise",
   "parameters" :
   [
    {
     "referenced_type" : "_ZTIPv"
    },
    {
     "referenced_type" : "_ZTIj"
    },
    {
     "referenced_type" : "_ZTIi"
    }
   ],
   "return_type" : "_ZTIi",
   "source_file" : "bionic/libc/include/sys/mman.h"
  },
  {
   "function_name" : "posix_memalign",
   "linker_set_key" : "posix_memalign",
   "parameters" :
   [
    {
     "referenced_type" : "_ZTIPPv"
    },
    {
     "referenced_type" : "_ZTIj"
    },
    {
     "referenced_type" : "_ZTIj"
    }
   ],
   "return_type" : "_ZTIi",
   "source_file" : "bionic/libc/include/stdlib.h"
  },
  {
   "function_name" : "posix_openpt",
   "linker_set_key" : "posix_openpt",
   "parameters" :
   [
    {
     "referenced_type" : "_ZTIi"
    }
   ],
   "return_type" : "_ZTIi",
   "source_file" : "bionic/libc/include/stdlib.h"
  },
  {
   "function_name" : "posix_spawn",
   "linker_set_key" : "posix_spawn",
   "parameters" :
   [
    {
     "referenced_type" : "_ZTIPi"
    },
    {
     "referenced_type" : "_ZTIPKc"
    },
    {
     "referenced_type" : "_ZTIPKP26__posix_spawn_file_actions"
    },
    {
     "referenced_type" : "_ZTIPKP17__posix_spawnattr"
    },
    {
     "referenced_type" : "_ZTIPKPc"
    },
    {
     "referenced_type" : "_ZTIPKPc"
    }
   ],
   "return_type" : "_ZTIi",
   "source_file" : "bionic/libc/include/spawn.h"
  },
  {
   "function_name" : "posix_spawn_file_actions_addchdir_np",
   "linker_set_key" : "posix_spawn_file_actions_addchdir_np",
   "parameters" :
   [
    {
     "referenced_type" : "_ZTIPP26__posix_spawn_file_actions"
    },
    {
     "referenced_type" : "_ZTIPKc"
    }
   ],
   "return_type" : "_ZTIi",
   "source_file" : "bionic/libc/include/spawn.h"
  },
  {
   "function_name" : "posix_spawn_file_actions_addclose",
   "linker_set_key" : "posix_spawn_file_actions_addclose",
   "parameters" :
   [
    {
     "referenced_type" : "_ZTIPP26__posix_spawn_file_actions"
    },
    {
     "referenced_type" : "_ZTIi"
    }
   ],
   "return_type" : "_ZTIi",
   "source_file" : "bionic/libc/include/spawn.h"
  },
  {
   "function_name" : "posix_spawn_file_actions_adddup2",
   "linker_set_key" : "posix_spawn_file_actions_adddup2",
   "parameters" :
   [
    {
     "referenced_type" : "_ZTIPP26__posix_spawn_file_actions"
    },
    {
     "referenced_type" : "_ZTIi"
    },
    {
     "referenced_type" : "_ZTIi"
    }
   ],
   "return_type" : "_ZTIi",
   "source_file" : "bionic/libc/include/spawn.h"
  },
  {
   "function_name" : "posix_spawn_file_actions_addfchdir_np",
   "linker_set_key" : "posix_spawn_file_actions_addfchdir_np",
   "parameters" :
   [
    {
     "referenced_type" : "_ZTIPP26__posix_spawn_file_actions"
    },
    {
     "referenced_type" : "_ZTIi"
    }
   ],
   "return_type" : "_ZTIi",
   "source_file" : "bionic/libc/include/spawn.h"
  },
  {
   "function_name" : "posix_spawn_file_actions_addopen",
   "linker_set_key" : "posix_spawn_file_actions_addopen",
   "parameters" :
   [
    {
     "referenced_type" : "_ZTIPP26__posix_spawn_file_actions"
    },
    {
     "referenced_type" : "_ZTIi"
    },
    {
     "referenced_type" : "_ZTIPKc"
    },
    {
     "referenced_type" : "_ZTIi"
    },
    {
     "referenced_type" : "_ZTIt"
    }
   ],
   "return_type" : "_ZTIi",
   "source_file" : "bionic/libc/include/spawn.h"
  },
  {
   "function_name" : "posix_spawn_file_actions_destroy",
   "linker_set_key" : "posix_spawn_file_actions_destroy",
   "parameters" :
   [
    {
     "referenced_type" : "_ZTIPP26__posix_spawn_file_actions"
    }
   ],
   "return_type" : "_ZTIi",
   "source_file" : "bionic/libc/include/spawn.h"
  },
  {
   "function_name" : "posix_spawn_file_actions_init",
   "linker_set_key" : "posix_spawn_file_actions_init",
   "parameters" :
   [
    {
     "referenced_type" : "_ZTIPP26__posix_spawn_file_actions"
    }
   ],
   "return_type" : "_ZTIi",
   "source_file" : "bionic/libc/include/spawn.h"
  },
  {
   "function_name" : "posix_spawnattr_destroy",
   "linker_set_key" : "posix_spawnattr_destroy",
   "parameters" :
   [
    {
     "referenced_type" : "_ZTIPP17__posix_spawnattr"
    }
   ],
   "return_type" : "_ZTIi",
   "source_file" : "bionic/libc/include/spawn.h"
  },
  {
   "function_name" : "posix_spawnattr_getflags",
   "linker_set_key" : "posix_spawnattr_getflags",
   "parameters" :
   [
    {
     "referenced_type" : "_ZTIPKP17__posix_spawnattr"
    },
    {
     "referenced_type" : "_ZTIPs"
    }
   ],
   "return_type" : "_ZTIi",
   "source_file" : "bionic/libc/include/spawn.h"
  },
  {
   "function_name" : "posix_spawnattr_getpgroup",
   "linker_set_key" : "posix_spawnattr_getpgroup",
   "parameters" :
   [
    {
     "referenced_type" : "_ZTIPKP17__posix_spawnattr"
    },
    {
     "referenced_type" : "_ZTIPi"
    }
   ],
   "return_type" : "_ZTIi",
   "source_file" : "bionic/libc/include/spawn.h"
  },
  {
   "function_name" : "posix_spawnattr_getschedparam",
   "linker_set_key" : "posix_spawnattr_getschedparam",
   "parameters" :
   [
    {
     "referenced_type" : "_ZTIPKP17__posix_spawnattr"
    },
    {
     "referenced_type" : "_ZTIP11sched_param"
    }
   ],
   "return_type" : "_ZTIi",
   "source_file" : "bionic/libc/include/spawn.h"
  },
  {
   "function_name" : "posix_spawnattr_getschedpolicy",
   "linker_set_key" : "posix_spawnattr_getschedpolicy",
   "parameters" :
   [
    {
     "referenced_type" : "_ZTIPKP17__posix_spawnattr"
    },
    {
     "referenced_type" : "_ZTIPi"
    }
   ],
   "return_type" : "_ZTIi",
   "source_file" : "bionic/libc/include/spawn.h"
  },
  {
   "function_name" : "posix_spawnattr_getsigdefault",
   "linker_set_key" : "posix_spawnattr_getsigdefault",
   "parameters" :
   [
    {
     "referenced_type" : "_ZTIPKP17__posix_spawnattr"
    },
    {
     "referenced_type" : "_ZTIPm"
    }
   ],
   "return_type" : "_ZTIi",
   "source_file" : "bionic/libc/include/spawn.h"
  },
  {
   "function_name" : "posix_spawnattr_getsigdefault64",
   "linker_set_key" : "posix_spawnattr_getsigdefault64",
   "parameters" :
   [
    {
     "referenced_type" : "_ZTIPKP17__posix_spawnattr"
    },
    {
     "referenced_type" : "_ZTIP10sigset64_t"
    }
   ],
   "return_type" : "_ZTIi",
   "source_file" : "bionic/libc/include/spawn.h"
  },
  {
   "function_name" : "posix_spawnattr_getsigmask",
   "linker_set_key" : "posix_spawnattr_getsigmask",
   "parameters" :
   [
    {
     "referenced_type" : "_ZTIPKP17__posix_spawnattr"
    },
    {
     "referenced_type" : "_ZTIPm"
    }
   ],
   "return_type" : "_ZTIi",
   "source_file" : "bionic/libc/include/spawn.h"
  },
  {
   "function_name" : "posix_spawnattr_getsigmask64",
   "linker_set_key" : "posix_spawnattr_getsigmask64",
   "parameters" :
   [
    {
     "referenced_type" : "_ZTIPKP17__posix_spawnattr"
    },
    {
     "referenced_type" : "_ZTIP10sigset64_t"
    }
   ],
   "return_type" : "_ZTIi",
   "source_file" : "bionic/libc/include/spawn.h"
  },
  {
   "function_name" : "posix_spawnattr_init",
   "linker_set_key" : "posix_spawnattr_init",
   "parameters" :
   [
    {
     "referenced_type" : "_ZTIPP17__posix_spawnattr"
    }
   ],
   "return_type" : "_ZTIi",
   "source_file" : "bionic/libc/include/spawn.h"
  },
  {
   "function_name" : "posix_spawnattr_setflags",
   "linker_set_key" : "posix_spawnattr_setflags",
   "parameters" :
   [
    {
     "referenced_type" : "_ZTIPP17__posix_spawnattr"
    },
    {
     "referenced_type" : "_ZTIs"
    }
   ],
   "return_type" : "_ZTIi",
   "source_file" : "bionic/libc/include/spawn.h"
  },
  {
   "function_name" : "posix_spawnattr_setpgroup",
   "linker_set_key" : "posix_spawnattr_setpgroup",
   "parameters" :
   [
    {
     "referenced_type" : "_ZTIPP17__posix_spawnattr"
    },
    {
     "referenced_type" : "_ZTIi"
    }
   ],
   "return_type" : "_ZTIi",
   "source_file" : "bionic/libc/include/spawn.h"
  },
  {
   "function_name" : "posix_spawnattr_setschedparam",
   "linker_set_key" : "posix_spawnattr_setschedparam",
   "parameters" :
   [
    {
     "referenced_type" : "_ZTIPP17__posix_spawnattr"
    },
    {
     "referenced_type" : "_ZTIPK11sched_param"
    }
   ],
   "return_type" : "_ZTIi",
   "source_file" : "bionic/libc/include/spawn.h"
  },
  {
   "function_name" : "posix_spawnattr_setschedpolicy",
   "linker_set_key" : "posix_spawnattr_setschedpolicy",
   "parameters" :
   [
    {
     "referenced_type" : "_ZTIPP17__posix_spawnattr"
    },
    {
     "referenced_type" : "_ZTIi"
    }
   ],
   "return_type" : "_ZTIi",
   "source_file" : "bionic/libc/include/spawn.h"
  },
  {
   "function_name" : "posix_spawnattr_setsigdefault",
   "linker_set_key" : "posix_spawnattr_setsigdefault",
   "parameters" :
   [
    {
     "referenced_type" : "_ZTIPP17__posix_spawnattr"
    },
    {
     "referenced_type" : "_ZTIPKm"
    }
   ],
   "return_type" : "_ZTIi",
   "source_file" : "bionic/libc/include/spawn.h"
  },
  {
   "function_name" : "posix_spawnattr_setsigdefault64",
   "linker_set_key" : "posix_spawnattr_setsigdefault64",
   "parameters" :
   [
    {
     "referenced_type" : "_ZTIPP17__posix_spawnattr"
    },
    {
     "referenced_type" : "_ZTIPK10sigset64_t"
    }
   ],
   "return_type" : "_ZTIi",
   "source_file" : "bionic/libc/include/spawn.h"
  },
  {
   "function_name" : "posix_spawnattr_setsigmask",
   "linker_set_key" : "posix_spawnattr_setsigmask",
   "parameters" :
   [
    {
     "referenced_type" : "_ZTIPP17__posix_spawnattr"
    },
    {
     "referenced_type" : "_ZTIPKm"
    }
   ],
   "return_type" : "_ZTIi",
   "source_file" : "bionic/libc/include/spawn.h"
  },
  {
   "function_name" : "posix_spawnattr_setsigmask64",
   "linker_set_key" : "posix_spawnattr_setsigmask64",
   "parameters" :
   [
    {
     "referenced_type" : "_ZTIPP17__posix_spawnattr"
    },
    {
     "referenced_type" : "_ZTIPK10sigset64_t"
    }
   ],
   "return_type" : "_ZTIi",
   "source_file" : "bionic/libc/include/spawn.h"
  },
  {
   "function_name" : "posix_spawnp",
   "linker_set_key" : "posix_spawnp",
   "parameters" :
   [
    {
     "referenced_type" : "_ZTIPi"
    },
    {
     "referenced_type" : "_ZTIPKc"
    },
    {
     "referenced_type" : "_ZTIPKP26__posix_spawn_file_actions"
    },
    {
     "referenced_type" : "_ZTIPKP17__posix_spawnattr"
    },
    {
     "referenced_type" : "_ZTIPKPc"
    },
    {
     "referenced_type" : "_ZTIPKPc"
    }
   ],
   "return_type" : "_ZTIi",
   "source_file" : "bionic/libc/include/spawn.h"
  },
  {
   "function_name" : "ppoll",
   "linker_set_key" : "ppoll",
   "parameters" :
   [
    {
     "referenced_type" : "_ZTIP6pollfd"
    },
    {
     "referenced_type" : "_ZTIj"
    },
    {
     "referenced_type" : "_ZTIPK8timespec"
    },
    {
     "referenced_type" : "_ZTIPKm"
    }
   ],
   "return_type" : "_ZTIi",
   "source_file" : "bionic/libc/include/poll.h"
  },
  {
   "function_name" : "ppoll64",
   "linker_set_key" : "ppoll64",
   "parameters" :
   [
    {
     "referenced_type" : "_ZTIP6pollfd"
    },
    {
     "referenced_type" : "_ZTIj"
    },
    {
     "referenced_type" : "_ZTIPK8timespec"
    },
    {
     "referenced_type" : "_ZTIPK10sigset64_t"
    }
   ],
   "return_type" : "_ZTIi",
   "source_file" : "bionic/libc/include/poll.h"
  },
  {
   "function_name" : "pread",
   "linker_set_key" : "pread",
   "parameters" :
   [
    {
     "referenced_type" : "_ZTIi"
    },
    {
     "referenced_type" : "_ZTIPv"
    },
    {
     "referenced_type" : "_ZTIj"
    },
    {
     "referenced_type" : "_ZTIl"
    }
   ],
   "return_type" : "_ZTIi",
   "source_file" : "bionic/libc/include/unistd.h"
  },
  {
   "function_name" : "preadv",
   "linker_set_key" : "preadv",
   "parameters" :
   [
    {
     "referenced_type" : "_ZTIi"
    },
    {
     "referenced_type" : "_ZTIPK5iovec"
    },
    {
     "referenced_type" : "_ZTIi"
    },
    {
     "referenced_type" : "_ZTIl"
    }
   ],
   "return_type" : "_ZTIi",
   "source_file" : "bionic/libc/include/sys/uio.h"
  },
  {
   "function_name" : "preadv2",
   "linker_set_key" : "preadv2",
   "parameters" :
   [
    {
     "referenced_type" : "_ZTIi"
    },
    {
     "referenced_type" : "_ZTIPK5iovec"
    },
    {
     "referenced_type" : "_ZTIi"
    },
    {
     "referenced_type" : "_ZTIl"
    },
    {
     "referenced_type" : "_ZTIi"
    }
   ],
   "return_type" : "_ZTIi",
   "source_file" : "bionic/libc/include/sys/uio.h"
  },
  {
   "function_name" : "preadv64",
   "linker_set_key" : "preadv64",
   "parameters" :
   [
    {
     "referenced_type" : "_ZTIi"
    },
    {
     "referenced_type" : "_ZTIPK5iovec"
    },
    {
     "referenced_type" : "_ZTIi"
    },
    {
     "referenced_type" : "_ZTIx"
    }
   ],
   "return_type" : "_ZTIi",
   "source_file" : "bionic/libc/include/sys/uio.h"
  },
  {
   "function_name" : "preadv64v2",
   "linker_set_key" : "preadv64v2",
   "parameters" :
   [
    {
     "referenced_type" : "_ZTIi"
    },
    {
     "referenced_type" : "_ZTIPK5iovec"
    },
    {
     "referenced_type" : "_ZTIi"
    },
    {
     "referenced_type" : "_ZTIx"
    },
    {
     "referenced_type" : "_ZTIi"
    }
   ],
   "return_type" : "_ZTIi",
   "source_file" : "bionic/libc/include/sys/uio.h"
  },
  {
   "function_name" : "printf",
   "linker_set_key" : "printf",
   "parameters" :
   [
    {
     "referenced_type" : "_ZTIPKc"
    }
   ],
   "return_type" : "_ZTIi",
   "source_file" : "bionic/libc/include/stdio.h"
  },
  {
   "function_name" : "prlimit",
   "linker_set_key" : "prlimit",
   "parameters" :
   [
    {
     "referenced_type" : "_ZTIi"
    },
    {
     "referenced_type" : "_ZTIi"
    },
    {
     "referenced_type" : "_ZTIPK6rlimit"
    },
    {
     "referenced_type" : "_ZTIP6rlimit"
    }
   ],
   "return_type" : "_ZTIi",
   "source_file" : "bionic/libc/include/sys/resource.h"
  },
  {
   "function_name" : "pselect",
   "linker_set_key" : "pselect",
   "parameters" :
   [
    {
     "referenced_type" : "_ZTIi"
    },
    {
     "referenced_type" : "_ZTIP6fd_set"
    },
    {
     "referenced_type" : "_ZTIP6fd_set"
    },
    {
     "referenced_type" : "_ZTIP6fd_set"
    },
    {
     "referenced_type" : "_ZTIPK8timespec"
    },
    {
     "referenced_type" : "_ZTIPKm"
    }
   ],
   "return_type" : "_ZTIi",
   "source_file" : "bionic/libc/include/sys/select.h"
  },
  {
   "function_name" : "pselect64",
   "linker_set_key" : "pselect64",
   "parameters" :
   [
    {
     "referenced_type" : "_ZTIi"
    },
    {
     "referenced_type" : "_ZTIP6fd_set"
    },
    {
     "referenced_type" : "_ZTIP6fd_set"
    },
    {
     "referenced_type" : "_ZTIP6fd_set"
    },
    {
     "referenced_type" : "_ZTIPK8timespec"
    },
    {
     "referenced_type" : "_ZTIPK10sigset64_t"
    }
   ],
   "return_type" : "_ZTIi",
   "source_file" : "bionic/libc/include/sys/select.h"
  },
  {
   "function_name" : "psiginfo",
   "linker_set_key" : "psiginfo",
   "parameters" :
   [
    {
     "referenced_type" : "_ZTIPK7siginfo"
    },
    {
     "referenced_type" : "_ZTIPKc"
    }
   ],
   "return_type" : "_ZTIv",
   "source_file" : "bionic/libc/include/signal.h"
  },
  {
   "function_name" : "psignal",
   "linker_set_key" : "psignal",
   "parameters" :
   [
    {
     "referenced_type" : "_ZTIi"
    },
    {
     "referenced_type" : "_ZTIPKc"
    }
   ],
   "return_type" : "_ZTIv",
   "source_file" : "bionic/libc/include/signal.h"
  },
  {
   "function_name" : "pthread_attr_destroy",
   "linker_set_key" : "pthread_attr_destroy",
   "parameters" :
   [
    {
     "referenced_type" : "_ZTIP14pthread_attr_t"
    }
   ],
   "return_type" : "_ZTIi",
   "source_file" : "bionic/libc/include/pthread.h"
  },
  {
   "function_name" : "pthread_attr_getdetachstate",
   "linker_set_key" : "pthread_attr_getdetachstate",
   "parameters" :
   [
    {
     "referenced_type" : "_ZTIPK14pthread_attr_t"
    },
    {
     "referenced_type" : "_ZTIPi"
    }
   ],
   "return_type" : "_ZTIi",
   "source_file" : "bionic/libc/include/pthread.h"
  },
  {
   "function_name" : "pthread_attr_getguardsize",
   "linker_set_key" : "pthread_attr_getguardsize",
   "parameters" :
   [
    {
     "referenced_type" : "_ZTIPK14pthread_attr_t"
    },
    {
     "referenced_type" : "_ZTIPj"
    }
   ],
   "return_type" : "_ZTIi",
   "source_file" : "bionic/libc/include/pthread.h"
  },
  {
   "function_name" : "pthread_attr_getinheritsched",
   "linker_set_key" : "pthread_attr_getinheritsched",
   "parameters" :
   [
    {
     "referenced_type" : "_ZTIPK14pthread_attr_t"
    },
    {
     "referenced_type" : "_ZTIPi"
    }
   ],
   "return_type" : "_ZTIi",
   "source_file" : "bionic/libc/include/pthread.h"
  },
  {
   "function_name" : "pthread_attr_getschedparam",
   "linker_set_key" : "pthread_attr_getschedparam",
   "parameters" :
   [
    {
     "referenced_type" : "_ZTIPK14pthread_attr_t"
    },
    {
     "referenced_type" : "_ZTIP11sched_param"
    }
   ],
   "return_type" : "_ZTIi",
   "source_file" : "bionic/libc/include/pthread.h"
  },
  {
   "function_name" : "pthread_attr_getschedpolicy",
   "linker_set_key" : "pthread_attr_getschedpolicy",
   "parameters" :
   [
    {
     "referenced_type" : "_ZTIPK14pthread_attr_t"
    },
    {
     "referenced_type" : "_ZTIPi"
    }
   ],
   "return_type" : "_ZTIi",
   "source_file" : "bionic/libc/include/pthread.h"
  },
  {
   "function_name" : "pthread_attr_getscope",
   "linker_set_key" : "pthread_attr_getscope",
   "parameters" :
   [
    {
     "referenced_type" : "_ZTIPK14pthread_attr_t"
    },
    {
     "referenced_type" : "_ZTIPi"
    }
   ],
   "return_type" : "_ZTIi",
   "source_file" : "bionic/libc/include/pthread.h"
  },
  {
   "function_name" : "pthread_attr_getstack",
   "linker_set_key" : "pthread_attr_getstack",
   "parameters" :
   [
    {
     "referenced_type" : "_ZTIPK14pthread_attr_t"
    },
    {
     "referenced_type" : "_ZTIPPv"
    },
    {
     "referenced_type" : "_ZTIPj"
    }
   ],
   "return_type" : "_ZTIi",
   "source_file" : "bionic/libc/include/pthread.h"
  },
  {
   "function_name" : "pthread_attr_getstacksize",
   "linker_set_key" : "pthread_attr_getstacksize",
   "parameters" :
   [
    {
     "referenced_type" : "_ZTIPK14pthread_attr_t"
    },
    {
     "referenced_type" : "_ZTIPj"
    }
   ],
   "return_type" : "_ZTIi",
   "source_file" : "bionic/libc/include/pthread.h"
  },
  {
   "function_name" : "pthread_attr_init",
   "linker_set_key" : "pthread_attr_init",
   "parameters" :
   [
    {
     "referenced_type" : "_ZTIP14pthread_attr_t"
    }
   ],
   "return_type" : "_ZTIi",
   "source_file" : "bionic/libc/include/pthread.h"
  },
  {
   "function_name" : "pthread_attr_setdetachstate",
   "linker_set_key" : "pthread_attr_setdetachstate",
   "parameters" :
   [
    {
     "referenced_type" : "_ZTIP14pthread_attr_t"
    },
    {
     "referenced_type" : "_ZTIi"
    }
   ],
   "return_type" : "_ZTIi",
   "source_file" : "bionic/libc/include/pthread.h"
  },
  {
   "function_name" : "pthread_attr_setguardsize",
   "linker_set_key" : "pthread_attr_setguardsize",
   "parameters" :
   [
    {
     "referenced_type" : "_ZTIP14pthread_attr_t"
    },
    {
     "referenced_type" : "_ZTIj"
    }
   ],
   "return_type" : "_ZTIi",
   "source_file" : "bionic/libc/include/pthread.h"
  },
  {
   "function_name" : "pthread_attr_setinheritsched",
   "linker_set_key" : "pthread_attr_setinheritsched",
   "parameters" :
   [
    {
     "referenced_type" : "_ZTIP14pthread_attr_t"
    },
    {
     "referenced_type" : "_ZTIi"
    }
   ],
   "return_type" : "_ZTIi",
   "source_file" : "bionic/libc/include/pthread.h"
  },
  {
   "function_name" : "pthread_attr_setschedparam",
   "linker_set_key" : "pthread_attr_setschedparam",
   "parameters" :
   [
    {
     "referenced_type" : "_ZTIP14pthread_attr_t"
    },
    {
     "referenced_type" : "_ZTIPK11sched_param"
    }
   ],
   "return_type" : "_ZTIi",
   "source_file" : "bionic/libc/include/pthread.h"
  },
  {
   "function_name" : "pthread_attr_setschedpolicy",
   "linker_set_key" : "pthread_attr_setschedpolicy",
   "parameters" :
   [
    {
     "referenced_type" : "_ZTIP14pthread_attr_t"
    },
    {
     "referenced_type" : "_ZTIi"
    }
   ],
   "return_type" : "_ZTIi",
   "source_file" : "bionic/libc/include/pthread.h"
  },
  {
   "function_name" : "pthread_attr_setscope",
   "linker_set_key" : "pthread_attr_setscope",
   "parameters" :
   [
    {
     "referenced_type" : "_ZTIP14pthread_attr_t"
    },
    {
     "referenced_type" : "_ZTIi"
    }
   ],
   "return_type" : "_ZTIi",
   "source_file" : "bionic/libc/include/pthread.h"
  },
  {
   "function_name" : "pthread_attr_setstack",
   "linker_set_key" : "pthread_attr_setstack",
   "parameters" :
   [
    {
     "referenced_type" : "_ZTIP14pthread_attr_t"
    },
    {
     "referenced_type" : "_ZTIPv"
    },
    {
     "referenced_type" : "_ZTIj"
    }
   ],
   "return_type" : "_ZTIi",
   "source_file" : "bionic/libc/include/pthread.h"
  },
  {
   "function_name" : "pthread_attr_setstacksize",
   "linker_set_key" : "pthread_attr_setstacksize",
   "parameters" :
   [
    {
     "referenced_type" : "_ZTIP14pthread_attr_t"
    },
    {
     "referenced_type" : "_ZTIj"
    }
   ],
   "return_type" : "_ZTIi",
   "source_file" : "bionic/libc/include/pthread.h"
  },
  {
   "function_name" : "pthread_barrier_destroy",
   "linker_set_key" : "pthread_barrier_destroy",
   "parameters" :
   [
    {
     "referenced_type" : "_ZTIP17pthread_barrier_t"
    }
   ],
   "return_type" : "_ZTIi",
   "source_file" : "bionic/libc/include/pthread.h"
  },
  {
   "function_name" : "pthread_barrier_init",
   "linker_set_key" : "pthread_barrier_init",
   "parameters" :
   [
    {
     "referenced_type" : "_ZTIP17pthread_barrier_t"
    },
    {
     "referenced_type" : "_ZTIPKi"
    },
    {
     "referenced_type" : "_ZTIj"
    }
   ],
   "return_type" : "_ZTIi",
   "source_file" : "bionic/libc/include/pthread.h"
  },
  {
   "function_name" : "pthread_barrier_wait",
   "linker_set_key" : "pthread_barrier_wait",
   "parameters" :
   [
    {
     "referenced_type" : "_ZTIP17pthread_barrier_t"
    }
   ],
   "return_type" : "_ZTIi",
   "source_file" : "bionic/libc/include/pthread.h"
  },
  {
   "function_name" : "pthread_barrierattr_destroy",
   "linker_set_key" : "pthread_barrierattr_destroy",
   "parameters" :
   [
    {
     "referenced_type" : "_ZTIPi"
    }
   ],
   "return_type" : "_ZTIi",
   "source_file" : "bionic/libc/include/pthread.h"
  },
  {
   "function_name" : "pthread_barrierattr_getpshared",
   "linker_set_key" : "pthread_barrierattr_getpshared",
   "parameters" :
   [
    {
     "referenced_type" : "_ZTIPKi"
    },
    {
     "referenced_type" : "_ZTIPi"
    }
   ],
   "return_type" : "_ZTIi",
   "source_file" : "bionic/libc/include/pthread.h"
  },
  {
   "function_name" : "pthread_barrierattr_init",
   "linker_set_key" : "pthread_barrierattr_init",
   "parameters" :
   [
    {
     "referenced_type" : "_ZTIPi"
    }
   ],
   "return_type" : "_ZTIi",
   "source_file" : "bionic/libc/include/pthread.h"
  },
  {
   "function_name" : "pthread_barrierattr_setpshared",
   "linker_set_key" : "pthread_barrierattr_setpshared",
   "parameters" :
   [
    {
     "referenced_type" : "_ZTIPi"
    },
    {
     "referenced_type" : "_ZTIi"
    }
   ],
   "return_type" : "_ZTIi",
   "source_file" : "bionic/libc/include/pthread.h"
  },
  {
   "function_name" : "pthread_cond_broadcast",
   "linker_set_key" : "pthread_cond_broadcast",
   "parameters" :
   [
    {
     "referenced_type" : "_ZTIP14pthread_cond_t"
    }
   ],
   "return_type" : "_ZTIi",
   "source_file" : "bionic/libc/include/pthread.h"
  },
  {
   "function_name" : "pthread_cond_clockwait",
   "linker_set_key" : "pthread_cond_clockwait",
   "parameters" :
   [
    {
     "referenced_type" : "_ZTIP14pthread_cond_t"
    },
    {
     "referenced_type" : "_ZTIP15pthread_mutex_t"
    },
    {
     "referenced_type" : "_ZTIi"
    },
    {
     "referenced_type" : "_ZTIPK8timespec"
    }
   ],
   "return_type" : "_ZTIi",
   "source_file" : "bionic/libc/include/pthread.h"
  },
  {
   "function_name" : "pthread_cond_destroy",
   "linker_set_key" : "pthread_cond_destroy",
   "parameters" :
   [
    {
     "referenced_type" : "_ZTIP14pthread_cond_t"
    }
   ],
   "return_type" : "_ZTIi",
   "source_file" : "bionic/libc/include/pthread.h"
  },
  {
   "function_name" : "pthread_cond_init",
   "linker_set_key" : "pthread_cond_init",
   "parameters" :
   [
    {
     "referenced_type" : "_ZTIP14pthread_cond_t"
    },
    {
     "referenced_type" : "_ZTIPKl"
    }
   ],
   "return_type" : "_ZTIi",
   "source_file" : "bionic/libc/include/pthread.h"
  },
  {
   "function_name" : "pthread_cond_signal",
   "linker_set_key" : "pthread_cond_signal",
   "parameters" :
   [
    {
     "referenced_type" : "_ZTIP14pthread_cond_t"
    }
   ],
   "return_type" : "_ZTIi",
   "source_file" : "bionic/libc/include/pthread.h"
  },
  {
   "function_name" : "pthread_cond_timedwait",
   "linker_set_key" : "pthread_cond_timedwait",
   "parameters" :
   [
    {
     "referenced_type" : "_ZTIP14pthread_cond_t"
    },
    {
     "referenced_type" : "_ZTIP15pthread_mutex_t"
    },
    {
     "referenced_type" : "_ZTIPK8timespec"
    }
   ],
   "return_type" : "_ZTIi",
   "source_file" : "bionic/libc/include/pthread.h"
  },
  {
   "function_name" : "pthread_cond_timedwait_monotonic_np",
   "linker_set_key" : "pthread_cond_timedwait_monotonic_np",
   "parameters" :
   [
    {
     "referenced_type" : "_ZTIP14pthread_cond_t"
    },
    {
     "referenced_type" : "_ZTIP15pthread_mutex_t"
    },
    {
     "referenced_type" : "_ZTIPK8timespec"
    }
   ],
   "return_type" : "_ZTIi",
   "source_file" : "bionic/libc/include/pthread.h"
  },
  {
   "function_name" : "pthread_cond_wait",
   "linker_set_key" : "pthread_cond_wait",
   "parameters" :
   [
    {
     "referenced_type" : "_ZTIP14pthread_cond_t"
    },
    {
     "referenced_type" : "_ZTIP15pthread_mutex_t"
    }
   ],
   "return_type" : "_ZTIi",
   "source_file" : "bionic/libc/include/pthread.h"
  },
  {
   "function_name" : "pthread_condattr_destroy",
   "linker_set_key" : "pthread_condattr_destroy",
   "parameters" :
   [
    {
     "referenced_type" : "_ZTIPl"
    }
   ],
   "return_type" : "_ZTIi",
   "source_file" : "bionic/libc/include/pthread.h"
  },
  {
   "function_name" : "pthread_condattr_getclock",
   "linker_set_key" : "pthread_condattr_getclock",
   "parameters" :
   [
    {
     "referenced_type" : "_ZTIPKl"
    },
    {
     "referenced_type" : "_ZTIPi"
    }
   ],
   "return_type" : "_ZTIi",
   "source_file" : "bionic/libc/include/pthread.h"
  },
  {
   "function_name" : "pthread_condattr_getpshared",
   "linker_set_key" : "pthread_condattr_getpshared",
   "parameters" :
   [
    {
     "referenced_type" : "_ZTIPKl"
    },
    {
     "referenced_type" : "_ZTIPi"
    }
   ],
   "return_type" : "_ZTIi",
   "source_file" : "bionic/libc/include/pthread.h"
  },
  {
   "function_name" : "pthread_condattr_init",
   "linker_set_key" : "pthread_condattr_init",
   "parameters" :
   [
    {
     "referenced_type" : "_ZTIPl"
    }
   ],
   "return_type" : "_ZTIi",
   "source_file" : "bionic/libc/include/pthread.h"
  },
  {
   "function_name" : "pthread_condattr_setclock",
   "linker_set_key" : "pthread_condattr_setclock",
   "parameters" :
   [
    {
     "referenced_type" : "_ZTIPl"
    },
    {
     "referenced_type" : "_ZTIi"
    }
   ],
   "return_type" : "_ZTIi",
   "source_file" : "bionic/libc/include/pthread.h"
  },
  {
   "function_name" : "pthread_condattr_setpshared",
   "linker_set_key" : "pthread_condattr_setpshared",
   "parameters" :
   [
    {
     "referenced_type" : "_ZTIPl"
    },
    {
     "referenced_type" : "_ZTIi"
    }
   ],
   "return_type" : "_ZTIi",
   "source_file" : "bionic/libc/include/pthread.h"
  },
  {
   "function_name" : "pthread_create",
   "linker_set_key" : "pthread_create",
   "parameters" :
   [
    {
     "referenced_type" : "_ZTIPl"
    },
    {
     "referenced_type" : "_ZTIPK14pthread_attr_t"
    },
    {
     "referenced_type" : "_ZTIPFPvS_E"
    },
    {
     "referenced_type" : "_ZTIPv"
    }
   ],
   "return_type" : "_ZTIi",
   "source_file" : "bionic/libc/include/pthread.h"
  },
  {
   "function_name" : "pthread_detach",
   "linker_set_key" : "pthread_detach",
   "parameters" :
   [
    {
     "referenced_type" : "_ZTIl"
    }
   ],
   "return_type" : "_ZTIi",
   "source_file" : "bionic/libc/include/pthread.h"
  },
  {
   "function_name" : "pthread_equal",
   "linker_set_key" : "pthread_equal",
   "parameters" :
   [
    {
     "referenced_type" : "_ZTIl"
    },
    {
     "referenced_type" : "_ZTIl"
    }
   ],
   "return_type" : "_ZTIi",
   "source_file" : "bionic/libc/include/pthread.h"
  },
  {
   "function_name" : "pthread_exit",
   "linker_set_key" : "pthread_exit",
   "parameters" :
   [
    {
     "referenced_type" : "_ZTIPv"
    }
   ],
   "return_type" : "_ZTIv",
   "source_file" : "bionic/libc/include/pthread.h"
  },
  {
   "function_name" : "pthread_getattr_np",
   "linker_set_key" : "pthread_getattr_np",
   "parameters" :
   [
    {
     "referenced_type" : "_ZTIl"
    },
    {
     "referenced_type" : "_ZTIP14pthread_attr_t"
    }
   ],
   "return_type" : "_ZTIi",
   "source_file" : "bionic/libc/include/pthread.h"
  },
  {
   "function_name" : "pthread_getcpuclockid",
   "linker_set_key" : "pthread_getcpuclockid",
   "parameters" :
   [
    {
     "referenced_type" : "_ZTIl"
    },
    {
     "referenced_type" : "_ZTIPi"
    }
   ],
   "return_type" : "_ZTIi",
   "source_file" : "bionic/libc/include/pthread.h"
  },
  {
   "function_name" : "pthread_getname_np",
   "linker_set_key" : "pthread_getname_np",
   "parameters" :
   [
    {
     "referenced_type" : "_ZTIl"
    },
    {
     "referenced_type" : "_ZTIPc"
    },
    {
     "referenced_type" : "_ZTIj"
    }
   ],
   "return_type" : "_ZTIi",
   "source_file" : "bionic/libc/include/pthread.h"
  },
  {
   "function_name" : "pthread_getschedparam",
   "linker_set_key" : "pthread_getschedparam",
   "parameters" :
   [
    {
     "referenced_type" : "_ZTIl"
    },
    {
     "referenced_type" : "_ZTIPi"
    },
    {
     "referenced_type" : "_ZTIP11sched_param"
    }
   ],
   "return_type" : "_ZTIi",
   "source_file" : "bionic/libc/include/pthread.h"
  },
  {
   "function_name" : "pthread_getspecific",
   "linker_set_key" : "pthread_getspecific",
   "parameters" :
   [
    {
     "referenced_type" : "_ZTIi"
    }
   ],
   "return_type" : "_ZTIPv",
   "source_file" : "bionic/libc/include/pthread.h"
  },
  {
   "function_name" : "pthread_gettid_np",
   "linker_set_key" : "pthread_gettid_np",
   "parameters" :
   [
    {
     "referenced_type" : "_ZTIl"
    }
   ],
   "return_type" : "_ZTIi",
   "source_file" : "bionic/libc/include/pthread.h"
  },
  {
   "function_name" : "pthread_join",
   "linker_set_key" : "pthread_join",
   "parameters" :
   [
    {
     "referenced_type" : "_ZTIl"
    },
    {
     "referenced_type" : "_ZTIPPv"
    }
   ],
   "return_type" : "_ZTIi",
   "source_file" : "bionic/libc/include/pthread.h"
  },
  {
   "function_name" : "pthread_key_create",
   "linker_set_key" : "pthread_key_create",
   "parameters" :
   [
    {
     "referenced_type" : "_ZTIPi"
    },
    {
     "referenced_type" : "_ZTIPFvPvE"
    }
   ],
   "return_type" : "_ZTIi",
   "source_file" : "bionic/libc/include/pthread.h"
  },
  {
   "function_name" : "pthread_key_delete",
   "linker_set_key" : "pthread_key_delete",
   "parameters" :
   [
    {
     "referenced_type" : "_ZTIi"
    }
   ],
   "return_type" : "_ZTIi",
   "source_file" : "bionic/libc/include/pthread.h"
  },
  {
   "function_name" : "pthread_kill",
   "linker_set_key" : "pthread_kill",
   "parameters" :
   [
    {
     "referenced_type" : "_ZTIl"
    },
    {
     "referenced_type" : "_ZTIi"
    }
   ],
   "return_type" : "_ZTIi",
   "source_file" : "bionic/libc/include/signal.h"
  },
  {
   "function_name" : "pthread_mutex_clocklock",
   "linker_set_key" : "pthread_mutex_clocklock",
   "parameters" :
   [
    {
     "referenced_type" : "_ZTIP15pthread_mutex_t"
    },
    {
     "referenced_type" : "_ZTIi"
    },
    {
     "referenced_type" : "_ZTIPK8timespec"
    }
   ],
   "return_type" : "_ZTIi",
   "source_file" : "bionic/libc/include/pthread.h"
  },
  {
   "function_name" : "pthread_mutex_destroy",
   "linker_set_key" : "pthread_mutex_destroy",
   "parameters" :
   [
    {
     "referenced_type" : "_ZTIP15pthread_mutex_t"
    }
   ],
   "return_type" : "_ZTIi",
   "source_file" : "bionic/libc/include/pthread.h"
  },
  {
   "function_name" : "pthread_mutex_init",
   "linker_set_key" : "pthread_mutex_init",
   "parameters" :
   [
    {
     "referenced_type" : "_ZTIP15pthread_mutex_t"
    },
    {
     "referenced_type" : "_ZTIPKl"
    }
   ],
   "return_type" : "_ZTIi",
   "source_file" : "bionic/libc/include/pthread.h"
  },
  {
   "function_name" : "pthread_mutex_lock",
   "linker_set_key" : "pthread_mutex_lock",
   "parameters" :
   [
    {
     "referenced_type" : "_ZTIP15pthread_mutex_t"
    }
   ],
   "return_type" : "_ZTIi",
   "source_file" : "bionic/libc/include/pthread.h"
  },
  {
   "function_name" : "pthread_mutex_timedlock",
   "linker_set_key" : "pthread_mutex_timedlock",
   "parameters" :
   [
    {
     "referenced_type" : "_ZTIP15pthread_mutex_t"
    },
    {
     "referenced_type" : "_ZTIPK8timespec"
    }
   ],
   "return_type" : "_ZTIi",
   "source_file" : "bionic/libc/include/pthread.h"
  },
  {
   "function_name" : "pthread_mutex_timedlock_monotonic_np",
   "linker_set_key" : "pthread_mutex_timedlock_monotonic_np",
   "parameters" :
   [
    {
     "referenced_type" : "_ZTIP15pthread_mutex_t"
    },
    {
     "referenced_type" : "_ZTIPK8timespec"
    }
   ],
   "return_type" : "_ZTIi",
   "source_file" : "bionic/libc/include/pthread.h"
  },
  {
   "function_name" : "pthread_mutex_trylock",
   "linker_set_key" : "pthread_mutex_trylock",
   "parameters" :
   [
    {
     "referenced_type" : "_ZTIP15pthread_mutex_t"
    }
   ],
   "return_type" : "_ZTIi",
   "source_file" : "bionic/libc/include/pthread.h"
  },
  {
   "function_name" : "pthread_mutex_unlock",
   "linker_set_key" : "pthread_mutex_unlock",
   "parameters" :
   [
    {
     "referenced_type" : "_ZTIP15pthread_mutex_t"
    }
   ],
   "return_type" : "_ZTIi",
   "source_file" : "bionic/libc/include/pthread.h"
  },
  {
   "function_name" : "pthread_mutexattr_destroy",
   "linker_set_key" : "pthread_mutexattr_destroy",
   "parameters" :
   [
    {
     "referenced_type" : "_ZTIPl"
    }
   ],
   "return_type" : "_ZTIi",
   "source_file" : "bionic/libc/include/pthread.h"
  },
  {
   "function_name" : "pthread_mutexattr_getprotocol",
   "linker_set_key" : "pthread_mutexattr_getprotocol",
   "parameters" :
   [
    {
     "referenced_type" : "_ZTIPKl"
    },
    {
     "referenced_type" : "_ZTIPi"
    }
   ],
   "return_type" : "_ZTIi",
   "source_file" : "bionic/libc/include/pthread.h"
  },
  {
   "function_name" : "pthread_mutexattr_getpshared",
   "linker_set_key" : "pthread_mutexattr_getpshared",
   "parameters" :
   [
    {
     "referenced_type" : "_ZTIPKl"
    },
    {
     "referenced_type" : "_ZTIPi"
    }
   ],
   "return_type" : "_ZTIi",
   "source_file" : "bionic/libc/include/pthread.h"
  },
  {
   "function_name" : "pthread_mutexattr_gettype",
   "linker_set_key" : "pthread_mutexattr_gettype",
   "parameters" :
   [
    {
     "referenced_type" : "_ZTIPKl"
    },
    {
     "referenced_type" : "_ZTIPi"
    }
   ],
   "return_type" : "_ZTIi",
   "source_file" : "bionic/libc/include/pthread.h"
  },
  {
   "function_name" : "pthread_mutexattr_init",
   "linker_set_key" : "pthread_mutexattr_init",
   "parameters" :
   [
    {
     "referenced_type" : "_ZTIPl"
    }
   ],
   "return_type" : "_ZTIi",
   "source_file" : "bionic/libc/include/pthread.h"
  },
  {
   "function_name" : "pthread_mutexattr_setprotocol",
   "linker_set_key" : "pthread_mutexattr_setprotocol",
   "parameters" :
   [
    {
     "referenced_type" : "_ZTIPl"
    },
    {
     "referenced_type" : "_ZTIi"
    }
   ],
   "return_type" : "_ZTIi",
   "source_file" : "bionic/libc/include/pthread.h"
  },
  {
   "function_name" : "pthread_mutexattr_setpshared",
   "linker_set_key" : "pthread_mutexattr_setpshared",
   "parameters" :
   [
    {
     "referenced_type" : "_ZTIPl"
    },
    {
     "referenced_type" : "_ZTIi"
    }
   ],
   "return_type" : "_ZTIi",
   "source_file" : "bionic/libc/include/pthread.h"
  },
  {
   "function_name" : "pthread_mutexattr_settype",
   "linker_set_key" : "pthread_mutexattr_settype",
   "parameters" :
   [
    {
     "referenced_type" : "_ZTIPl"
    },
    {
     "referenced_type" : "_ZTIi"
    }
   ],
   "return_type" : "_ZTIi",
   "source_file" : "bionic/libc/include/pthread.h"
  },
  {
   "function_name" : "pthread_once",
   "linker_set_key" : "pthread_once",
   "parameters" :
   [
    {
     "referenced_type" : "_ZTIPi"
    },
    {
     "referenced_type" : "_ZTIPFvvE"
    }
   ],
   "return_type" : "_ZTIi",
   "source_file" : "bionic/libc/include/pthread.h"
  },
  {
   "function_name" : "pthread_rwlock_clockrdlock",
   "linker_set_key" : "pthread_rwlock_clockrdlock",
   "parameters" :
   [
    {
     "referenced_type" : "_ZTIP16pthread_rwlock_t"
    },
    {
     "referenced_type" : "_ZTIi"
    },
    {
     "referenced_type" : "_ZTIPK8timespec"
    }
   ],
   "return_type" : "_ZTIi",
   "source_file" : "bionic/libc/include/pthread.h"
  },
  {
   "function_name" : "pthread_rwlock_clockwrlock",
   "linker_set_key" : "pthread_rwlock_clockwrlock",
   "parameters" :
   [
    {
     "referenced_type" : "_ZTIP16pthread_rwlock_t"
    },
    {
     "referenced_type" : "_ZTIi"
    },
    {
     "referenced_type" : "_ZTIPK8timespec"
    }
   ],
   "return_type" : "_ZTIi",
   "source_file" : "bionic/libc/include/pthread.h"
  },
  {
   "function_name" : "pthread_rwlock_destroy",
   "linker_set_key" : "pthread_rwlock_destroy",
   "parameters" :
   [
    {
     "referenced_type" : "_ZTIP16pthread_rwlock_t"
    }
   ],
   "return_type" : "_ZTIi",
   "source_file" : "bionic/libc/include/pthread.h"
  },
  {
   "function_name" : "pthread_rwlock_init",
   "linker_set_key" : "pthread_rwlock_init",
   "parameters" :
   [
    {
     "referenced_type" : "_ZTIP16pthread_rwlock_t"
    },
    {
     "referenced_type" : "_ZTIPKl"
    }
   ],
   "return_type" : "_ZTIi",
   "source_file" : "bionic/libc/include/pthread.h"
  },
  {
   "function_name" : "pthread_rwlock_rdlock",
   "linker_set_key" : "pthread_rwlock_rdlock",
   "parameters" :
   [
    {
     "referenced_type" : "_ZTIP16pthread_rwlock_t"
    }
   ],
   "return_type" : "_ZTIi",
   "source_file" : "bionic/libc/include/pthread.h"
  },
  {
   "function_name" : "pthread_rwlock_timedrdlock",
   "linker_set_key" : "pthread_rwlock_timedrdlock",
   "parameters" :
   [
    {
     "referenced_type" : "_ZTIP16pthread_rwlock_t"
    },
    {
     "referenced_type" : "_ZTIPK8timespec"
    }
   ],
   "return_type" : "_ZTIi",
   "source_file" : "bionic/libc/include/pthread.h"
  },
  {
   "function_name" : "pthread_rwlock_timedrdlock_monotonic_np",
   "linker_set_key" : "pthread_rwlock_timedrdlock_monotonic_np",
   "parameters" :
   [
    {
     "referenced_type" : "_ZTIP16pthread_rwlock_t"
    },
    {
     "referenced_type" : "_ZTIPK8timespec"
    }
   ],
   "return_type" : "_ZTIi",
   "source_file" : "bionic/libc/include/pthread.h"
  },
  {
   "function_name" : "pthread_rwlock_timedwrlock",
   "linker_set_key" : "pthread_rwlock_timedwrlock",
   "parameters" :
   [
    {
     "referenced_type" : "_ZTIP16pthread_rwlock_t"
    },
    {
     "referenced_type" : "_ZTIPK8timespec"
    }
   ],
   "return_type" : "_ZTIi",
   "source_file" : "bionic/libc/include/pthread.h"
  },
  {
   "function_name" : "pthread_rwlock_timedwrlock_monotonic_np",
   "linker_set_key" : "pthread_rwlock_timedwrlock_monotonic_np",
   "parameters" :
   [
    {
     "referenced_type" : "_ZTIP16pthread_rwlock_t"
    },
    {
     "referenced_type" : "_ZTIPK8timespec"
    }
   ],
   "return_type" : "_ZTIi",
   "source_file" : "bionic/libc/include/pthread.h"
  },
  {
   "function_name" : "pthread_rwlock_tryrdlock",
   "linker_set_key" : "pthread_rwlock_tryrdlock",
   "parameters" :
   [
    {
     "referenced_type" : "_ZTIP16pthread_rwlock_t"
    }
   ],
   "return_type" : "_ZTIi",
   "source_file" : "bionic/libc/include/pthread.h"
  },
  {
   "function_name" : "pthread_rwlock_trywrlock",
   "linker_set_key" : "pthread_rwlock_trywrlock",
   "parameters" :
   [
    {
     "referenced_type" : "_ZTIP16pthread_rwlock_t"
    }
   ],
   "return_type" : "_ZTIi",
   "source_file" : "bionic/libc/include/pthread.h"
  },
  {
   "function_name" : "pthread_rwlock_unlock",
   "linker_set_key" : "pthread_rwlock_unlock",
   "parameters" :
   [
    {
     "referenced_type" : "_ZTIP16pthread_rwlock_t"
    }
   ],
   "return_type" : "_ZTIi",
   "source_file" : "bionic/libc/include/pthread.h"
  },
  {
   "function_name" : "pthread_rwlock_wrlock",
   "linker_set_key" : "pthread_rwlock_wrlock",
   "parameters" :
   [
    {
     "referenced_type" : "_ZTIP16pthread_rwlock_t"
    }
   ],
   "return_type" : "_ZTIi",
   "source_file" : "bionic/libc/include/pthread.h"
  },
  {
   "function_name" : "pthread_rwlockattr_destroy",
   "linker_set_key" : "pthread_rwlockattr_destroy",
   "parameters" :
   [
    {
     "referenced_type" : "_ZTIPl"
    }
   ],
   "return_type" : "_ZTIi",
   "source_file" : "bionic/libc/include/pthread.h"
  },
  {
   "function_name" : "pthread_rwlockattr_getkind_np",
   "linker_set_key" : "pthread_rwlockattr_getkind_np",
   "parameters" :
   [
    {
     "referenced_type" : "_ZTIPKl"
    },
    {
     "referenced_type" : "_ZTIPi"
    }
   ],
   "return_type" : "_ZTIi",
   "source_file" : "bionic/libc/include/pthread.h"
  },
  {
   "function_name" : "pthread_rwlockattr_getpshared",
   "linker_set_key" : "pthread_rwlockattr_getpshared",
   "parameters" :
   [
    {
     "referenced_type" : "_ZTIPKl"
    },
    {
     "referenced_type" : "_ZTIPi"
    }
   ],
   "return_type" : "_ZTIi",
   "source_file" : "bionic/libc/include/pthread.h"
  },
  {
   "function_name" : "pthread_rwlockattr_init",
   "linker_set_key" : "pthread_rwlockattr_init",
   "parameters" :
   [
    {
     "referenced_type" : "_ZTIPl"
    }
   ],
   "return_type" : "_ZTIi",
   "source_file" : "bionic/libc/include/pthread.h"
  },
  {
   "function_name" : "pthread_rwlockattr_setkind_np",
   "linker_set_key" : "pthread_rwlockattr_setkind_np",
   "parameters" :
   [
    {
     "referenced_type" : "_ZTIPl"
    },
    {
     "referenced_type" : "_ZTIi"
    }
   ],
   "return_type" : "_ZTIi",
   "source_file" : "bionic/libc/include/pthread.h"
  },
  {
   "function_name" : "pthread_rwlockattr_setpshared",
   "linker_set_key" : "pthread_rwlockattr_setpshared",
   "parameters" :
   [
    {
     "referenced_type" : "_ZTIPl"
    },
    {
     "referenced_type" : "_ZTIi"
    }
   ],
   "return_type" : "_ZTIi",
   "source_file" : "bionic/libc/include/pthread.h"
  },
  {
   "function_name" : "pthread_self",
   "linker_set_key" : "pthread_self",
   "return_type" : "_ZTIl",
   "source_file" : "bionic/libc/include/pthread.h"
  },
  {
   "function_name" : "pthread_setname_np",
   "linker_set_key" : "pthread_setname_np",
   "parameters" :
   [
    {
     "referenced_type" : "_ZTIl"
    },
    {
     "referenced_type" : "_ZTIPKc"
    }
   ],
   "return_type" : "_ZTIi",
   "source_file" : "bionic/libc/include/pthread.h"
  },
  {
   "function_name" : "pthread_setschedparam",
   "linker_set_key" : "pthread_setschedparam",
   "parameters" :
   [
    {
     "referenced_type" : "_ZTIl"
    },
    {
     "referenced_type" : "_ZTIi"
    },
    {
     "referenced_type" : "_ZTIPK11sched_param"
    }
   ],
   "return_type" : "_ZTIi",
   "source_file" : "bionic/libc/include/pthread.h"
  },
  {
   "function_name" : "pthread_setschedprio",
   "linker_set_key" : "pthread_setschedprio",
   "parameters" :
   [
    {
     "referenced_type" : "_ZTIl"
    },
    {
     "referenced_type" : "_ZTIi"
    }
   ],
   "return_type" : "_ZTIi",
   "source_file" : "bionic/libc/include/pthread.h"
  },
  {
   "function_name" : "pthread_setspecific",
   "linker_set_key" : "pthread_setspecific",
   "parameters" :
   [
    {
     "referenced_type" : "_ZTIi"
    },
    {
     "referenced_type" : "_ZTIPKv"
    }
   ],
   "return_type" : "_ZTIi",
   "source_file" : "bionic/libc/include/pthread.h"
  },
  {
   "function_name" : "pthread_sigmask",
   "linker_set_key" : "pthread_sigmask",
   "parameters" :
   [
    {
     "referenced_type" : "_ZTIi"
    },
    {
     "referenced_type" : "_ZTIPKm"
    },
    {
     "referenced_type" : "_ZTIPm"
    }
   ],
   "return_type" : "_ZTIi",
   "source_file" : "bionic/libc/include/signal.h"
  },
  {
   "function_name" : "pthread_sigmask64",
   "linker_set_key" : "pthread_sigmask64",
   "parameters" :
   [
    {
     "referenced_type" : "_ZTIi"
    },
    {
     "referenced_type" : "_ZTIPK10sigset64_t"
    },
    {
     "referenced_type" : "_ZTIP10sigset64_t"
    }
   ],
   "return_type" : "_ZTIi",
   "source_file" : "bionic/libc/include/signal.h"
  },
  {
   "function_name" : "pthread_sigqueue",
   "linker_set_key" : "pthread_sigqueue",
   "parameters" :
   [
    {
     "referenced_type" : "_ZTIl"
    },
    {
     "referenced_type" : "_ZTIi"
    },
    {
     "referenced_type" : "_ZTIK6sigval"
    }
   ],
   "return_type" : "_ZTIi",
   "source_file" : "bionic/libc/include/signal.h"
  },
  {
   "function_name" : "pthread_spin_destroy",
   "linker_set_key" : "pthread_spin_destroy",
   "parameters" :
   [
    {
     "referenced_type" : "_ZTIP18pthread_spinlock_t"
    }
   ],
   "return_type" : "_ZTIi",
   "source_file" : "bionic/libc/include/pthread.h"
  },
  {
   "function_name" : "pthread_spin_init",
   "linker_set_key" : "pthread_spin_init",
   "parameters" :
   [
    {
     "referenced_type" : "_ZTIP18pthread_spinlock_t"
    },
    {
     "referenced_type" : "_ZTIi"
    }
   ],
   "return_type" : "_ZTIi",
   "source_file" : "bionic/libc/include/pthread.h"
  },
  {
   "function_name" : "pthread_spin_lock",
   "linker_set_key" : "pthread_spin_lock",
   "parameters" :
   [
    {
     "referenced_type" : "_ZTIP18pthread_spinlock_t"
    }
   ],
   "return_type" : "_ZTIi",
   "source_file" : "bionic/libc/include/pthread.h"
  },
  {
   "function_name" : "pthread_spin_trylock",
   "linker_set_key" : "pthread_spin_trylock",
   "parameters" :
   [
    {
     "referenced_type" : "_ZTIP18pthread_spinlock_t"
    }
   ],
   "return_type" : "_ZTIi",
   "source_file" : "bionic/libc/include/pthread.h"
  },
  {
   "function_name" : "pthread_spin_unlock",
   "linker_set_key" : "pthread_spin_unlock",
   "parameters" :
   [
    {
     "referenced_type" : "_ZTIP18pthread_spinlock_t"
    }
   ],
   "return_type" : "_ZTIi",
   "source_file" : "bionic/libc/include/pthread.h"
  },
  {
   "function_name" : "ptrace",
   "linker_set_key" : "ptrace",
   "parameters" :
   [
    {
     "referenced_type" : "_ZTIi"
    }
   ],
   "return_type" : "_ZTIl",
   "source_file" : "bionic/libc/include/sys/ptrace.h"
  },
  {
   "function_name" : "ptsname",
   "linker_set_key" : "ptsname",
   "parameters" :
   [
    {
     "referenced_type" : "_ZTIi"
    }
   ],
   "return_type" : "_ZTIPc",
   "source_file" : "bionic/libc/include/stdlib.h"
  },
  {
   "function_name" : "ptsname_r",
   "linker_set_key" : "ptsname_r",
   "parameters" :
   [
    {
     "referenced_type" : "_ZTIi"
    },
    {
     "referenced_type" : "_ZTIPc"
    },
    {
     "referenced_type" : "_ZTIj"
    }
   ],
   "return_type" : "_ZTIi",
   "source_file" : "bionic/libc/include/stdlib.h"
  },
  {
   "function_name" : "putc",
   "linker_set_key" : "putc",
   "parameters" :
   [
    {
     "referenced_type" : "_ZTIi"
    },
    {
     "referenced_type" : "_ZTIP7__sFILE"
    }
   ],
   "return_type" : "_ZTIi",
   "source_file" : "bionic/libc/include/stdio.h"
  },
  {
   "function_name" : "putc_unlocked",
   "linker_set_key" : "putc_unlocked",
   "parameters" :
   [
    {
     "referenced_type" : "_ZTIi"
    },
    {
     "referenced_type" : "_ZTIP7__sFILE"
    }
   ],
   "return_type" : "_ZTIi",
   "source_file" : "bionic/libc/include/stdio.h"
  },
  {
   "function_name" : "putchar",
   "linker_set_key" : "putchar",
   "parameters" :
   [
    {
     "referenced_type" : "_ZTIi"
    }
   ],
   "return_type" : "_ZTIi",
   "source_file" : "bionic/libc/include/stdio.h"
  },
  {
   "function_name" : "putchar_unlocked",
   "linker_set_key" : "putchar_unlocked",
   "parameters" :
   [
    {
     "referenced_type" : "_ZTIi"
    }
   ],
   "return_type" : "_ZTIi",
   "source_file" : "bionic/libc/include/stdio.h"
  },
  {
   "function_name" : "putenv",
   "linker_set_key" : "putenv",
   "parameters" :
   [
    {
     "referenced_type" : "_ZTIPc"
    }
   ],
   "return_type" : "_ZTIi",
   "source_file" : "bionic/libc/include/stdlib.h"
  },
  {
   "function_name" : "puts",
   "linker_set_key" : "puts",
   "parameters" :
   [
    {
     "referenced_type" : "_ZTIPKc"
    }
   ],
   "return_type" : "_ZTIi",
   "source_file" : "bionic/libc/include/stdio.h"
  },
  {
   "function_name" : "pututline",
   "linker_set_key" : "pututline",
   "parameters" :
   [
    {
     "referenced_type" : "_ZTIPK4utmp"
    }
   ],
   "return_type" : "_ZTIP4utmp",
   "source_file" : "bionic/libc/include/utmp.h"
  },
  {
   "function_name" : "putwc",
   "linker_set_key" : "putwc",
   "parameters" :
   [
    {
     "referenced_type" : "_ZTIw"
    },
    {
     "referenced_type" : "_ZTIP7__sFILE"
    }
   ],
   "return_type" : "_ZTIj",
   "source_file" : "bionic/libc/include/wchar.h"
  },
  {
   "function_name" : "putwchar",
   "linker_set_key" : "putwchar",
   "parameters" :
   [
    {
     "referenced_type" : "_ZTIw"
    }
   ],
   "return_type" : "_ZTIj",
   "source_file" : "bionic/libc/include/wchar.h"
  },
  {
   "function_name" : "pwrite",
   "linker_set_key" : "pwrite",
   "parameters" :
   [
    {
     "referenced_type" : "_ZTIi"
    },
    {
     "referenced_type" : "_ZTIPKv"
    },
    {
     "referenced_type" : "_ZTIj"
    },
    {
     "referenced_type" : "_ZTIl"
    }
   ],
   "return_type" : "_ZTIi",
   "source_file" : "bionic/libc/include/unistd.h"
  },
  {
   "function_name" : "pwritev",
   "linker_set_key" : "pwritev",
   "parameters" :
   [
    {
     "referenced_type" : "_ZTIi"
    },
    {
     "referenced_type" : "_ZTIPK5iovec"
    },
    {
     "referenced_type" : "_ZTIi"
    },
    {
     "referenced_type" : "_ZTIl"
    }
   ],
   "return_type" : "_ZTIi",
   "source_file" : "bionic/libc/include/sys/uio.h"
  },
  {
   "function_name" : "pwritev2",
   "linker_set_key" : "pwritev2",
   "parameters" :
   [
    {
     "referenced_type" : "_ZTIi"
    },
    {
     "referenced_type" : "_ZTIPK5iovec"
    },
    {
     "referenced_type" : "_ZTIi"
    },
    {
     "referenced_type" : "_ZTIl"
    },
    {
     "referenced_type" : "_ZTIi"
    }
   ],
   "return_type" : "_ZTIi",
   "source_file" : "bionic/libc/include/sys/uio.h"
  },
  {
   "function_name" : "pwritev64",
   "linker_set_key" : "pwritev64",
   "parameters" :
   [
    {
     "referenced_type" : "_ZTIi"
    },
    {
     "referenced_type" : "_ZTIPK5iovec"
    },
    {
     "referenced_type" : "_ZTIi"
    },
    {
     "referenced_type" : "_ZTIx"
    }
   ],
   "return_type" : "_ZTIi",
   "source_file" : "bionic/libc/include/sys/uio.h"
  },
  {
   "function_name" : "pwritev64v2",
   "linker_set_key" : "pwritev64v2",
   "parameters" :
   [
    {
     "referenced_type" : "_ZTIi"
    },
    {
     "referenced_type" : "_ZTIPK5iovec"
    },
    {
     "referenced_type" : "_ZTIi"
    },
    {
     "referenced_type" : "_ZTIx"
    },
    {
     "referenced_type" : "_ZTIi"
    }
   ],
   "return_type" : "_ZTIi",
   "source_file" : "bionic/libc/include/sys/uio.h"
  },
  {
   "function_name" : "qsort",
   "linker_set_key" : "qsort",
   "parameters" :
   [
    {
     "referenced_type" : "_ZTIPv"
    },
    {
     "referenced_type" : "_ZTIj"
    },
    {
     "referenced_type" : "_ZTIj"
    },
    {
     "referenced_type" : "_ZTIPFiPKvS0_E"
    }
   ],
   "return_type" : "_ZTIv",
   "source_file" : "bionic/libc/include/stdlib.h"
  },
  {
   "function_name" : "quick_exit",
   "linker_set_key" : "quick_exit",
   "parameters" :
   [
    {
     "referenced_type" : "_ZTIi"
    }
   ],
   "return_type" : "_ZTIv",
   "source_file" : "bionic/libc/include/stdlib.h"
  },
  {
   "function_name" : "raise",
   "linker_set_key" : "raise",
   "parameters" :
   [
    {
     "referenced_type" : "_ZTIi"
    }
   ],
   "return_type" : "_ZTIi",
   "source_file" : "bionic/libc/include/signal.h"
  },
  {
   "function_name" : "rand",
   "linker_set_key" : "rand",
   "return_type" : "_ZTIi",
   "source_file" : "bionic/libc/include/stdlib.h"
  },
  {
   "function_name" : "rand_r",
   "linker_set_key" : "rand_r",
   "parameters" :
   [
    {
     "referenced_type" : "_ZTIPj"
    }
   ],
   "return_type" : "_ZTIi",
   "source_file" : "bionic/libc/include/stdlib.h"
  },
  {
   "function_name" : "random",
   "linker_set_key" : "random",
   "return_type" : "_ZTIl",
   "source_file" : "bionic/libc/include/stdlib.h"
  },
  {
   "function_name" : "readdir",
   "linker_set_key" : "readdir",
   "parameters" :
   [
    {
     "referenced_type" : "_ZTIP3DIR"
    }
   ],
   "return_type" : "_ZTIP6dirent",
   "source_file" : "bionic/libc/include/dirent.h"
  },
  {
   "function_name" : "readdir_r",
   "linker_set_key" : "readdir_r",
   "parameters" :
   [
    {
     "referenced_type" : "_ZTIP3DIR"
    },
    {
     "referenced_type" : "_ZTIP6dirent"
    },
    {
     "referenced_type" : "_ZTIPP6dirent"
    }
   ],
   "return_type" : "_ZTIi",
   "source_file" : "bionic/libc/include/dirent.h"
  },
  {
   "function_name" : "readlink",
   "linker_set_key" : "readlink",
   "parameters" :
   [
    {
     "referenced_type" : "_ZTIPKc"
    },
    {
     "referenced_type" : "_ZTIPc"
    },
    {
     "referenced_type" : "_ZTIj"
    }
   ],
   "return_type" : "_ZTIi",
   "source_file" : "bionic/libc/include/unistd.h"
  },
  {
   "function_name" : "realloc",
   "linker_set_key" : "realloc",
   "parameters" :
   [
    {
     "referenced_type" : "_ZTIPv"
    },
    {
     "referenced_type" : "_ZTIj"
    }
   ],
   "return_type" : "_ZTIPv",
   "source_file" : "bionic/libc/include/malloc.h"
  },
  {
   "function_name" : "reallocarray",
   "linker_set_key" : "reallocarray",
   "parameters" :
   [
    {
     "referenced_type" : "_ZTIPv"
    },
    {
     "referenced_type" : "_ZTIj"
    },
    {
     "referenced_type" : "_ZTIj"
    }
   ],
   "return_type" : "_ZTIPv",
   "source_file" : "bionic/libc/include/malloc.h"
  },
  {
   "function_name" : "realpath",
   "linker_set_key" : "realpath",
   "parameters" :
   [
    {
     "referenced_type" : "_ZTIPKc"
    },
    {
     "referenced_type" : "_ZTIPc"
    }
   ],
   "return_type" : "_ZTIPc",
   "source_file" : "bionic/libc/include/stdlib.h"
  },
  {
   "function_name" : "reboot",
   "linker_set_key" : "reboot",
   "parameters" :
   [
    {
     "referenced_type" : "_ZTIi"
    }
   ],
   "return_type" : "_ZTIi",
   "source_file" : "bionic/libc/include/sys/reboot.h"
  },
  {
   "function_name" : "recv",
   "linker_set_key" : "recv",
   "parameters" :
   [
    {
     "referenced_type" : "_ZTIi"
    },
    {
     "referenced_type" : "_ZTIPv"
    },
    {
     "referenced_type" : "_ZTIj"
    },
    {
     "referenced_type" : "_ZTIi"
    }
   ],
   "return_type" : "_ZTIi",
   "source_file" : "bionic/libc/include/sys/socket.h"
  },
  {
   "function_name" : "recvmmsg",
   "linker_set_key" : "recvmmsg",
   "parameters" :
   [
    {
     "referenced_type" : "_ZTIi"
    },
    {
     "referenced_type" : "_ZTIP7mmsghdr"
    },
    {
     "referenced_type" : "_ZTIj"
    },
    {
     "referenced_type" : "_ZTIi"
    },
    {
     "referenced_type" : "_ZTIPK8timespec"
    }
   ],
   "return_type" : "_ZTIi",
   "source_file" : "bionic/libc/include/sys/socket.h"
  },
  {
   "function_name" : "recvmsg",
   "linker_set_key" : "recvmsg",
   "parameters" :
   [
    {
     "referenced_type" : "_ZTIi"
    },
    {
     "referenced_type" : "_ZTIP6msghdr"
    },
    {
     "referenced_type" : "_ZTIi"
    }
   ],
   "return_type" : "_ZTIi",
   "source_file" : "bionic/libc/include/sys/socket.h"
  },
  {
   "function_name" : "regcomp",
   "linker_set_key" : "regcomp",
   "parameters" :
   [
    {
     "referenced_type" : "_ZTIP7regex_t"
    },
    {
     "referenced_type" : "_ZTIPKc"
    },
    {
     "referenced_type" : "_ZTIi"
    }
   ],
   "return_type" : "_ZTIi",
   "source_file" : "bionic/libc/include/regex.h"
  },
  {
   "function_name" : "regerror",
   "linker_set_key" : "regerror",
   "parameters" :
   [
    {
     "referenced_type" : "_ZTIi"
    },
    {
     "referenced_type" : "_ZTIPK7regex_t"
    },
    {
     "referenced_type" : "_ZTIPc"
    },
    {
     "referenced_type" : "_ZTIj"
    }
   ],
   "return_type" : "_ZTIj",
   "source_file" : "bionic/libc/include/regex.h"
  },
  {
   "function_name" : "regexec",
   "linker_set_key" : "regexec",
   "parameters" :
   [
    {
     "referenced_type" : "_ZTIPK7regex_t"
    },
    {
     "referenced_type" : "_ZTIPKc"
    },
    {
     "referenced_type" : "_ZTIj"
    },
    {
     "referenced_type" : "_ZTIP10regmatch_t"
    },
    {
     "referenced_type" : "_ZTIi"
    }
   ],
   "return_type" : "_ZTIi",
   "source_file" : "bionic/libc/include/regex.h"
  },
  {
   "function_name" : "regfree",
   "linker_set_key" : "regfree",
   "parameters" :
   [
    {
     "referenced_type" : "_ZTIP7regex_t"
    }
   ],
   "return_type" : "_ZTIv",
   "source_file" : "bionic/libc/include/regex.h"
  },
  {
   "function_name" : "remove",
   "linker_set_key" : "remove",
   "parameters" :
   [
    {
     "referenced_type" : "_ZTIPKc"
    }
   ],
   "return_type" : "_ZTIi",
   "source_file" : "bionic/libc/include/stdio.h"
  },
  {
   "function_name" : "remque",
   "linker_set_key" : "remque",
   "parameters" :
   [
    {
     "referenced_type" : "_ZTIPv"
    }
   ],
   "return_type" : "_ZTIv",
   "source_file" : "bionic/libc/include/search.h"
  },
  {
   "function_name" : "rename",
   "linker_set_key" : "rename",
   "parameters" :
   [
    {
     "referenced_type" : "_ZTIPKc"
    },
    {
     "referenced_type" : "_ZTIPKc"
    }
   ],
   "return_type" : "_ZTIi",
   "source_file" : "bionic/libc/include/stdio.h"
  },
  {
   "function_name" : "renameat",
   "linker_set_key" : "renameat",
   "parameters" :
   [
    {
     "referenced_type" : "_ZTIi"
    },
    {
     "referenced_type" : "_ZTIPKc"
    },
    {
     "referenced_type" : "_ZTIi"
    },
    {
     "referenced_type" : "_ZTIPKc"
    }
   ],
   "return_type" : "_ZTIi",
   "source_file" : "bionic/libc/include/stdio.h"
  },
  {
   "function_name" : "res_init",
   "linker_set_key" : "res_init",
   "return_type" : "_ZTIi",
   "source_file" : "bionic/libc/include/resolv.h"
  },
  {
   "function_name" : "res_mkquery",
   "linker_set_key" : "res_mkquery",
   "parameters" :
   [
    {
     "referenced_type" : "_ZTIi"
    },
    {
     "referenced_type" : "_ZTIPKc"
    },
    {
     "referenced_type" : "_ZTIi"
    },
    {
     "referenced_type" : "_ZTIi"
    },
    {
     "referenced_type" : "_ZTIPKh"
    },
    {
     "referenced_type" : "_ZTIi"
    },
    {
     "referenced_type" : "_ZTIPKh"
    },
    {
     "referenced_type" : "_ZTIPh"
    },
    {
     "referenced_type" : "_ZTIi"
    }
   ],
   "return_type" : "_ZTIi",
   "source_file" : "bionic/libc/include/resolv.h"
  },
  {
   "function_name" : "res_query",
   "linker_set_key" : "res_query",
   "parameters" :
   [
    {
     "referenced_type" : "_ZTIPKc"
    },
    {
     "referenced_type" : "_ZTIi"
    },
    {
     "referenced_type" : "_ZTIi"
    },
    {
     "referenced_type" : "_ZTIPh"
    },
    {
     "referenced_type" : "_ZTIi"
    }
   ],
   "return_type" : "_ZTIi",
   "source_file" : "bionic/libc/include/resolv.h"
  },
  {
   "function_name" : "res_search",
   "linker_set_key" : "res_search",
   "parameters" :
   [
    {
     "referenced_type" : "_ZTIPKc"
    },
    {
     "referenced_type" : "_ZTIi"
    },
    {
     "referenced_type" : "_ZTIi"
    },
    {
     "referenced_type" : "_ZTIPh"
    },
    {
     "referenced_type" : "_ZTIi"
    }
   ],
   "return_type" : "_ZTIi",
   "source_file" : "bionic/libc/include/resolv.h"
  },
  {
   "function_name" : "rewind",
   "linker_set_key" : "rewind",
   "parameters" :
   [
    {
     "referenced_type" : "_ZTIP7__sFILE"
    }
   ],
   "return_type" : "_ZTIv",
   "source_file" : "bionic/libc/include/stdio.h"
  },
  {
   "function_name" : "rewinddir",
   "linker_set_key" : "rewinddir",
   "parameters" :
   [
    {
     "referenced_type" : "_ZTIP3DIR"
    }
   ],
   "return_type" : "_ZTIv",
   "source_file" : "bionic/libc/include/dirent.h"
  },
  {
   "function_name" : "rmdir",
   "linker_set_key" : "rmdir",
   "parameters" :
   [
    {
     "referenced_type" : "_ZTIPKc"
    }
   ],
   "return_type" : "_ZTIi",
   "source_file" : "bionic/libc/include/unistd.h"
  },
  {
   "function_name" : "sbrk",
   "linker_set_key" : "sbrk",
   "parameters" :
   [
    {
     "referenced_type" : "_ZTIi"
    }
   ],
   "return_type" : "_ZTIPv",
   "source_file" : "bionic/libc/include/unistd.h"
  },
  {
   "function_name" : "scandir",
   "linker_set_key" : "scandir",
   "parameters" :
   [
    {
     "referenced_type" : "_ZTIPKc"
    },
    {
     "referenced_type" : "_ZTIPPP6dirent"
    },
    {
     "referenced_type" : "_ZTIPFiPK6direntE"
    },
    {
     "referenced_type" : "_ZTIPFiPPK6direntS2_E"
    }
   ],
   "return_type" : "_ZTIi",
   "source_file" : "bionic/libc/include/dirent.h"
  },
  {
   "function_name" : "scandirat",
   "linker_set_key" : "scandirat",
   "parameters" :
   [
    {
     "referenced_type" : "_ZTIi"
    },
    {
     "referenced_type" : "_ZTIPKc"
    },
    {
     "referenced_type" : "_ZTIPPP6dirent"
    },
    {
     "referenced_type" : "_ZTIPFiPK6direntE"
    },
    {
     "referenced_type" : "_ZTIPFiPPK6direntS2_E"
    }
   ],
   "return_type" : "_ZTIi",
   "source_file" : "bionic/libc/include/dirent.h"
  },
  {
   "function_name" : "scanf",
   "linker_set_key" : "scanf",
   "parameters" :
   [
    {
     "referenced_type" : "_ZTIPKc"
    }
   ],
   "return_type" : "_ZTIi",
   "source_file" : "bionic/libc/include/stdio.h"
  },
  {
   "function_name" : "sched_getaffinity",
   "linker_set_key" : "sched_getaffinity",
   "parameters" :
   [
    {
     "referenced_type" : "_ZTIi"
    },
    {
     "referenced_type" : "_ZTIj"
    },
    {
     "referenced_type" : "_ZTIP9cpu_set_t"
    }
   ],
   "return_type" : "_ZTIi",
   "source_file" : "bionic/libc/include/sched.h"
  },
  {
   "function_name" : "sched_getcpu",
   "linker_set_key" : "sched_getcpu",
   "return_type" : "_ZTIi",
   "source_file" : "bionic/libc/include/sched.h"
  },
  {
   "function_name" : "seed48",
   "linker_set_key" : "seed48",
   "parameters" :
   [
    {
     "referenced_type" : "_ZTIPt"
    }
   ],
   "return_type" : "_ZTIPt",
   "source_file" : "bionic/libc/include/stdlib.h"
  },
  {
   "function_name" : "seekdir",
   "linker_set_key" : "seekdir",
   "parameters" :
   [
    {
     "referenced_type" : "_ZTIP3DIR"
    },
    {
     "referenced_type" : "_ZTIl"
    }
   ],
   "return_type" : "_ZTIv",
   "source_file" : "bionic/libc/include/dirent.h"
  },
  {
   "function_name" : "select",
   "linker_set_key" : "select",
   "parameters" :
   [
    {
     "referenced_type" : "_ZTIi"
    },
    {
     "referenced_type" : "_ZTIP6fd_set"
    },
    {
     "referenced_type" : "_ZTIP6fd_set"
    },
    {
     "referenced_type" : "_ZTIP6fd_set"
    },
    {
     "referenced_type" : "_ZTIP7timeval"
    }
   ],
   "return_type" : "_ZTIi",
   "source_file" : "bionic/libc/include/sys/select.h"
  },
  {
   "function_name" : "sem_clockwait",
   "linker_set_key" : "sem_clockwait",
   "parameters" :
   [
    {
     "referenced_type" : "_ZTIP5sem_t"
    },
    {
     "referenced_type" : "_ZTIi"
    },
    {
     "referenced_type" : "_ZTIPK8timespec"
    }
   ],
   "return_type" : "_ZTIi",
   "source_file" : "bionic/libc/include/semaphore.h"
  },
  {
   "function_name" : "sem_close",
   "linker_set_key" : "sem_close",
   "parameters" :
   [
    {
     "referenced_type" : "_ZTIP5sem_t"
    }
   ],
   "return_type" : "_ZTIi",
   "source_file" : "bionic/libc/include/semaphore.h"
  },
  {
   "function_name" : "sem_destroy",
   "linker_set_key" : "sem_destroy",
   "parameters" :
   [
    {
     "referenced_type" : "_ZTIP5sem_t"
    }
   ],
   "return_type" : "_ZTIi",
   "source_file" : "bionic/libc/include/semaphore.h"
  },
  {
   "function_name" : "sem_getvalue",
   "linker_set_key" : "sem_getvalue",
   "parameters" :
   [
    {
     "referenced_type" : "_ZTIP5sem_t"
    },
    {
     "referenced_type" : "_ZTIPi"
    }
   ],
   "return_type" : "_ZTIi",
   "source_file" : "bionic/libc/include/semaphore.h"
  },
  {
   "function_name" : "sem_init",
   "linker_set_key" : "sem_init",
   "parameters" :
   [
    {
     "referenced_type" : "_ZTIP5sem_t"
    },
    {
     "referenced_type" : "_ZTIi"
    },
    {
     "referenced_type" : "_ZTIj"
    }
   ],
   "return_type" : "_ZTIi",
   "source_file" : "bionic/libc/include/semaphore.h"
  },
  {
   "function_name" : "sem_open",
   "linker_set_key" : "sem_open",
   "parameters" :
   [
    {
     "referenced_type" : "_ZTIPKc"
    },
    {
     "referenced_type" : "_ZTIi"
    }
   ],
   "return_type" : "_ZTIP5sem_t",
   "source_file" : "bionic/libc/include/semaphore.h"
  },
  {
   "function_name" : "sem_post",
   "linker_set_key" : "sem_post",
   "parameters" :
   [
    {
     "referenced_type" : "_ZTIP5sem_t"
    }
   ],
   "return_type" : "_ZTIi",
   "source_file" : "bionic/libc/include/semaphore.h"
  },
  {
   "function_name" : "sem_timedwait",
   "linker_set_key" : "sem_timedwait",
   "parameters" :
   [
    {
     "referenced_type" : "_ZTIP5sem_t"
    },
    {
     "referenced_type" : "_ZTIPK8timespec"
    }
   ],
   "return_type" : "_ZTIi",
   "source_file" : "bionic/libc/include/semaphore.h"
  },
  {
   "function_name" : "sem_timedwait_monotonic_np",
   "linker_set_key" : "sem_timedwait_monotonic_np",
   "parameters" :
   [
    {
     "referenced_type" : "_ZTIP5sem_t"
    },
    {
     "referenced_type" : "_ZTIPK8timespec"
    }
   ],
   "return_type" : "_ZTIi",
   "source_file" : "bionic/libc/include/semaphore.h"
  },
  {
   "function_name" : "sem_trywait",
   "linker_set_key" : "sem_trywait",
   "parameters" :
   [
    {
     "referenced_type" : "_ZTIP5sem_t"
    }
   ],
   "return_type" : "_ZTIi",
   "source_file" : "bionic/libc/include/semaphore.h"
  },
  {
   "function_name" : "sem_unlink",
   "linker_set_key" : "sem_unlink",
   "parameters" :
   [
    {
     "referenced_type" : "_ZTIPKc"
    }
   ],
   "return_type" : "_ZTIi",
   "source_file" : "bionic/libc/include/semaphore.h"
  },
  {
   "function_name" : "sem_wait",
   "linker_set_key" : "sem_wait",
   "parameters" :
   [
    {
     "referenced_type" : "_ZTIP5sem_t"
    }
   ],
   "return_type" : "_ZTIi",
   "source_file" : "bionic/libc/include/semaphore.h"
  },
  {
   "function_name" : "semctl",
   "linker_set_key" : "semctl",
   "parameters" :
   [
    {
     "referenced_type" : "_ZTIi"
    },
    {
     "referenced_type" : "_ZTIi"
    },
    {
     "referenced_type" : "_ZTIi"
    }
   ],
   "return_type" : "_ZTIi",
   "source_file" : "bionic/libc/include/sys/sem.h"
  },
  {
   "function_name" : "semget",
   "linker_set_key" : "semget",
   "parameters" :
   [
    {
     "referenced_type" : "_ZTIi"
    },
    {
     "referenced_type" : "_ZTIi"
    },
    {
     "referenced_type" : "_ZTIi"
    }
   ],
   "return_type" : "_ZTIi",
   "source_file" : "bionic/libc/include/sys/sem.h"
  },
  {
   "function_name" : "semop",
   "linker_set_key" : "semop",
   "parameters" :
   [
    {
     "referenced_type" : "_ZTIi"
    },
    {
     "referenced_type" : "_ZTIP6sembuf"
    },
    {
     "referenced_type" : "_ZTIj"
    }
   ],
   "return_type" : "_ZTIi",
   "source_file" : "bionic/libc/include/sys/sem.h"
  },
  {
   "function_name" : "semtimedop",
   "linker_set_key" : "semtimedop",
   "parameters" :
   [
    {
     "referenced_type" : "_ZTIi"
    },
    {
     "referenced_type" : "_ZTIP6sembuf"
    },
    {
     "referenced_type" : "_ZTIj"
    },
    {
     "referenced_type" : "_ZTIPK8timespec"
    }
   ],
   "return_type" : "_ZTIi",
   "source_file" : "bionic/libc/include/sys/sem.h"
  },
  {
   "function_name" : "send",
   "linker_set_key" : "send",
   "parameters" :
   [
    {
     "referenced_type" : "_ZTIi"
    },
    {
     "referenced_type" : "_ZTIPKv"
    },
    {
     "referenced_type" : "_ZTIj"
    },
    {
     "referenced_type" : "_ZTIi"
    }
   ],
   "return_type" : "_ZTIi",
   "source_file" : "bionic/libc/include/sys/socket.h"
  },
  {
   "function_name" : "sendmmsg",
   "linker_set_key" : "sendmmsg",
   "parameters" :
   [
    {
     "referenced_type" : "_ZTIi"
    },
    {
     "referenced_type" : "_ZTIPK7mmsghdr"
    },
    {
     "referenced_type" : "_ZTIj"
    },
    {
     "referenced_type" : "_ZTIi"
    }
   ],
   "return_type" : "_ZTIi",
   "source_file" : "bionic/libc/include/sys/socket.h"
  },
  {
   "function_name" : "sendmsg",
   "linker_set_key" : "sendmsg",
   "parameters" :
   [
    {
     "referenced_type" : "_ZTIi"
    },
    {
     "referenced_type" : "_ZTIPK6msghdr"
    },
    {
     "referenced_type" : "_ZTIi"
    }
   ],
   "return_type" : "_ZTIi",
   "source_file" : "bionic/libc/include/sys/socket.h"
  },
  {
   "function_name" : "sendto",
   "linker_set_key" : "sendto",
   "parameters" :
   [
    {
     "referenced_type" : "_ZTIi"
    },
    {
     "referenced_type" : "_ZTIPKv"
    },
    {
     "referenced_type" : "_ZTIj"
    },
    {
     "referenced_type" : "_ZTIi"
    },
    {
     "referenced_type" : "_ZTIPK8sockaddr"
    },
    {
     "referenced_type" : "_ZTIi"
    }
   ],
   "return_type" : "_ZTIi",
   "source_file" : "bionic/libc/include/sys/socket.h"
  },
  {
   "function_name" : "setbuf",
   "linker_set_key" : "setbuf",
   "parameters" :
   [
    {
     "referenced_type" : "_ZTIP7__sFILE"
    },
    {
     "referenced_type" : "_ZTIPc"
    }
   ],
   "return_type" : "_ZTIv",
   "source_file" : "bionic/libc/include/stdio.h"
  },
  {
   "function_name" : "setbuffer",
   "linker_set_key" : "setbuffer",
   "parameters" :
   [
    {
     "referenced_type" : "_ZTIP7__sFILE"
    },
    {
     "referenced_type" : "_ZTIPc"
    },
    {
     "referenced_type" : "_ZTIi"
    }
   ],
   "return_type" : "_ZTIv",
   "source_file" : "bionic/libc/include/stdio.h"
  },
  {
   "function_name" : "setegid",
   "linker_set_key" : "setegid",
   "parameters" :
   [
    {
     "referenced_type" : "_ZTIj"
    }
   ],
   "return_type" : "_ZTIi",
   "source_file" : "bionic/libc/include/unistd.h"
  },
  {
   "function_name" : "setenv",
   "linker_set_key" : "setenv",
   "parameters" :
   [
    {
     "referenced_type" : "_ZTIPKc"
    },
    {
     "referenced_type" : "_ZTIPKc"
    },
    {
     "referenced_type" : "_ZTIi"
    }
   ],
   "return_type" : "_ZTIi",
   "source_file" : "bionic/libc/include/stdlib.h"
  },
  {
   "function_name" : "seteuid",
   "linker_set_key" : "seteuid",
   "parameters" :
   [
    {
     "referenced_type" : "_ZTIj"
    }
   ],
   "return_type" : "_ZTIi",
   "source_file" : "bionic/libc/include/unistd.h"
  },
  {
   "function_name" : "setgrent",
   "linker_set_key" : "setgrent",
   "return_type" : "_ZTIv",
   "source_file" : "bionic/libc/include/grp.h"
  },
  {
   "function_name" : "sethostent",
   "linker_set_key" : "sethostent",
   "parameters" :
   [
    {
     "referenced_type" : "_ZTIi"
    }
   ],
   "return_type" : "_ZTIv",
   "source_file" : "bionic/libc/include/netdb.h"
  },
  {
   "function_name" : "setlinebuf",
   "linker_set_key" : "setlinebuf",
   "parameters" :
   [
    {
     "referenced_type" : "_ZTIP7__sFILE"
    }
   ],
   "return_type" : "_ZTIi",
   "source_file" : "bionic/libc/include/stdio.h"
  },
  {
   "function_name" : "setlocale",
   "linker_set_key" : "setlocale",
   "parameters" :
   [
    {
     "referenced_type" : "_ZTIi"
    },
    {
     "referenced_type" : "_ZTIPKc"
    }
   ],
   "return_type" : "_ZTIPc",
   "source_file" : "bionic/libc/include/locale.h"
  },
  {
   "function_name" : "setlogmask",
   "linker_set_key" : "setlogmask",
   "parameters" :
   [
    {
     "referenced_type" : "_ZTIi"
    }
   ],
   "return_type" : "_ZTIi",
   "source_file" : "bionic/libc/include/syslog.h"
  },
  {
   "function_name" : "setmntent",
   "linker_set_key" : "setmntent",
   "parameters" :
   [
    {
     "referenced_type" : "_ZTIPKc"
    },
    {
     "referenced_type" : "_ZTIPKc"
    }
   ],
   "return_type" : "_ZTIP7__sFILE",
   "source_file" : "bionic/libc/include/mntent.h"
  },
  {
   "function_name" : "setnetent",
   "linker_set_key" : "setnetent",
   "parameters" :
   [
    {
     "referenced_type" : "_ZTIi"
    }
   ],
   "return_type" : "_ZTIv",
   "source_file" : "bionic/libc/include/netdb.h"
  },
  {
   "function_name" : "setpgrp",
   "linker_set_key" : "setpgrp",
   "return_type" : "_ZTIi",
   "source_file" : "bionic/libc/include/unistd.h"
  },
  {
   "function_name" : "setprogname",
   "linker_set_key" : "setprogname",
   "parameters" :
   [
    {
     "referenced_type" : "_ZTIPKc"
    }
   ],
   "return_type" : "_ZTIv",
   "source_file" : "bionic/libc/include/stdlib.h"
  },
  {
   "function_name" : "setprotoent",
   "linker_set_key" : "setprotoent",
   "parameters" :
   [
    {
     "referenced_type" : "_ZTIi"
    }
   ],
   "return_type" : "_ZTIv",
   "source_file" : "bionic/libc/include/netdb.h"
  },
  {
   "function_name" : "setpwent",
   "linker_set_key" : "setpwent",
   "return_type" : "_ZTIv",
   "source_file" : "bionic/libc/include/pwd.h"
  },
  {
   "function_name" : "setrlimit64",
   "linker_set_key" : "setrlimit64",
   "parameters" :
   [
    {
     "referenced_type" : "_ZTIi"
    },
    {
     "referenced_type" : "_ZTIPK8rlimit64"
    }
   ],
   "return_type" : "_ZTIi",
   "source_file" : "bionic/libc/include/sys/resource.h"
  },
  {
   "function_name" : "setservent",
   "linker_set_key" : "setservent",
   "parameters" :
   [
    {
     "referenced_type" : "_ZTIi"
    }
   ],
   "return_type" : "_ZTIv",
   "source_file" : "bionic/libc/include/netdb.h"
  },
  {
   "function_name" : "setstate",
   "linker_set_key" : "setstate",
   "parameters" :
   [
    {
     "referenced_type" : "_ZTIPc"
    }
   ],
   "return_type" : "_ZTIPc",
   "source_file" : "bionic/libc/include/stdlib.h"
  },
  {
   "function_name" : "setutent",
   "linker_set_key" : "setutent",
   "return_type" : "_ZTIv",
   "source_file" : "bionic/libc/include/utmp.h"
  },
  {
   "function_name" : "setvbuf",
   "linker_set_key" : "setvbuf",
   "parameters" :
   [
    {
     "referenced_type" : "_ZTIP7__sFILE"
    },
    {
     "referenced_type" : "_ZTIPc"
    },
    {
     "referenced_type" : "_ZTIi"
    },
    {
     "referenced_type" : "_ZTIj"
    }
   ],
   "return_type" : "_ZTIi",
   "source_file" : "bionic/libc/include/stdio.h"
  },
  {
   "function_name" : "shmat",
   "linker_set_key" : "shmat",
   "parameters" :
   [
    {
     "referenced_type" : "_ZTIi"
    },
    {
     "referenced_type" : "_ZTIPKv"
    },
    {
     "referenced_type" : "_ZTIi"
    }
   ],
   "return_type" : "_ZTIPv",
   "source_file" : "bionic/libc/include/sys/shm.h"
  },
  {
   "function_name" : "shmctl",
   "linker_set_key" : "shmctl",
   "parameters" :
   [
    {
     "referenced_type" : "_ZTIi"
    },
    {
     "referenced_type" : "_ZTIi"
    },
    {
     "referenced_type" : "_ZTIP10shmid64_ds"
    }
   ],
   "return_type" : "_ZTIi",
   "source_file" : "bionic/libc/include/sys/shm.h"
  },
  {
   "function_name" : "shmdt",
   "linker_set_key" : "shmdt",
   "parameters" :
   [
    {
     "referenced_type" : "_ZTIPKv"
    }
   ],
   "return_type" : "_ZTIi",
   "source_file" : "bionic/libc/include/sys/shm.h"
  },
  {
   "function_name" : "shmget",
   "linker_set_key" : "shmget",
   "parameters" :
   [
    {
     "referenced_type" : "_ZTIi"
    },
    {
     "referenced_type" : "_ZTIj"
    },
    {
     "referenced_type" : "_ZTIi"
    }
   ],
   "return_type" : "_ZTIi",
   "source_file" : "bionic/libc/include/sys/shm.h"
  },
  {
   "function_name" : "sigaction",
   "linker_set_key" : "sigaction",
   "parameters" :
   [
    {
     "referenced_type" : "_ZTIi"
    },
    {
     "referenced_type" : "_ZTIPK9sigaction"
    },
    {
     "referenced_type" : "_ZTIP9sigaction"
    }
   ],
   "return_type" : "_ZTIi",
   "source_file" : "bionic/libc/include/signal.h"
  },
  {
   "function_name" : "sigaction64",
   "linker_set_key" : "sigaction64",
   "parameters" :
   [
    {
     "referenced_type" : "_ZTIi"
    },
    {
     "referenced_type" : "_ZTIPK11sigaction64"
    },
    {
     "referenced_type" : "_ZTIP11sigaction64"
    }
   ],
   "return_type" : "_ZTIi",
   "source_file" : "bionic/libc/include/signal.h"
  },
  {
   "function_name" : "sigaddset",
   "linker_set_key" : "sigaddset",
   "parameters" :
   [
    {
     "referenced_type" : "_ZTIPm"
    },
    {
     "referenced_type" : "_ZTIi"
    }
   ],
   "return_type" : "_ZTIi",
   "source_file" : "bionic/libc/include/signal.h"
  },
  {
   "function_name" : "sigaddset64",
   "linker_set_key" : "sigaddset64",
   "parameters" :
   [
    {
     "referenced_type" : "_ZTIP10sigset64_t"
    },
    {
     "referenced_type" : "_ZTIi"
    }
   ],
   "return_type" : "_ZTIi",
   "source_file" : "bionic/libc/include/signal.h"
  },
  {
   "function_name" : "sigdelset",
   "linker_set_key" : "sigdelset",
   "parameters" :
   [
    {
     "referenced_type" : "_ZTIPm"
    },
    {
     "referenced_type" : "_ZTIi"
    }
   ],
   "return_type" : "_ZTIi",
   "source_file" : "bionic/libc/include/signal.h"
  },
  {
   "function_name" : "sigdelset64",
   "linker_set_key" : "sigdelset64",
   "parameters" :
   [
    {
     "referenced_type" : "_ZTIP10sigset64_t"
    },
    {
     "referenced_type" : "_ZTIi"
    }
   ],
   "return_type" : "_ZTIi",
   "source_file" : "bionic/libc/include/signal.h"
  },
  {
   "function_name" : "sigemptyset",
   "linker_set_key" : "sigemptyset",
   "parameters" :
   [
    {
     "referenced_type" : "_ZTIPm"
    }
   ],
   "return_type" : "_ZTIi",
   "source_file" : "bionic/libc/include/signal.h"
  },
  {
   "function_name" : "sigemptyset64",
   "linker_set_key" : "sigemptyset64",
   "parameters" :
   [
    {
     "referenced_type" : "_ZTIP10sigset64_t"
    }
   ],
   "return_type" : "_ZTIi",
   "source_file" : "bionic/libc/include/signal.h"
  },
  {
   "function_name" : "sigfillset",
   "linker_set_key" : "sigfillset",
   "parameters" :
   [
    {
     "referenced_type" : "_ZTIPm"
    }
   ],
   "return_type" : "_ZTIi",
   "source_file" : "bionic/libc/include/signal.h"
  },
  {
   "function_name" : "sigfillset64",
   "linker_set_key" : "sigfillset64",
   "parameters" :
   [
    {
     "referenced_type" : "_ZTIP10sigset64_t"
    }
   ],
   "return_type" : "_ZTIi",
   "source_file" : "bionic/libc/include/signal.h"
  },
  {
   "function_name" : "sighold",
   "linker_set_key" : "sighold",
   "parameters" :
   [
    {
     "referenced_type" : "_ZTIi"
    }
   ],
   "return_type" : "_ZTIi",
   "source_file" : "bionic/libc/include/signal.h"
  },
  {
   "function_name" : "sigignore",
   "linker_set_key" : "sigignore",
   "parameters" :
   [
    {
     "referenced_type" : "_ZTIi"
    }
   ],
   "return_type" : "_ZTIi",
   "source_file" : "bionic/libc/include/signal.h"
  },
  {
   "function_name" : "siginterrupt",
   "linker_set_key" : "siginterrupt",
   "parameters" :
   [
    {
     "referenced_type" : "_ZTIi"
    },
    {
     "referenced_type" : "_ZTIi"
    }
   ],
   "return_type" : "_ZTIi",
   "source_file" : "bionic/libc/include/signal.h"
  },
  {
   "function_name" : "sigismember",
   "linker_set_key" : "sigismember",
   "parameters" :
   [
    {
     "referenced_type" : "_ZTIPKm"
    },
    {
     "referenced_type" : "_ZTIi"
    }
   ],
   "return_type" : "_ZTIi",
   "source_file" : "bionic/libc/include/signal.h"
  },
  {
   "function_name" : "sigismember64",
   "linker_set_key" : "sigismember64",
   "parameters" :
   [
    {
     "referenced_type" : "_ZTIPK10sigset64_t"
    },
    {
     "referenced_type" : "_ZTIi"
    }
   ],
   "return_type" : "_ZTIi",
   "source_file" : "bionic/libc/include/signal.h"
  },
  {
   "function_name" : "signal",
   "linker_set_key" : "signal",
   "parameters" :
   [
    {
     "referenced_type" : "_ZTIi"
    },
    {
     "referenced_type" : "_ZTIPFviE"
    }
   ],
   "return_type" : "_ZTIPFviE",
   "source_file" : "bionic/libc/include/signal.h"
  },
  {
   "function_name" : "signalfd",
   "linker_set_key" : "signalfd",
   "parameters" :
   [
    {
     "referenced_type" : "_ZTIi"
    },
    {
     "referenced_type" : "_ZTIPKm"
    },
    {
     "referenced_type" : "_ZTIi"
    }
   ],
   "return_type" : "_ZTIi",
   "source_file" : "bionic/libc/include/sys/signalfd.h"
  },
  {
   "function_name" : "signalfd64",
   "linker_set_key" : "signalfd64",
   "parameters" :
   [
    {
     "referenced_type" : "_ZTIi"
    },
    {
     "referenced_type" : "_ZTIPK10sigset64_t"
    },
    {
     "referenced_type" : "_ZTIi"
    }
   ],
   "return_type" : "_ZTIi",
   "source_file" : "bionic/libc/include/sys/signalfd.h"
  },
  {
   "function_name" : "sigpause",
   "linker_set_key" : "sigpause",
   "parameters" :
   [
    {
     "referenced_type" : "_ZTIi"
    }
   ],
   "return_type" : "_ZTIi",
   "source_file" : "bionic/libc/include/signal.h"
  },
  {
   "function_name" : "sigpending",
   "linker_set_key" : "sigpending",
   "parameters" :
   [
    {
     "referenced_type" : "_ZTIPm"
    }
   ],
   "return_type" : "_ZTIi",
   "source_file" : "bionic/libc/include/signal.h"
  },
  {
   "function_name" : "sigpending64",
   "linker_set_key" : "sigpending64",
   "parameters" :
   [
    {
     "referenced_type" : "_ZTIP10sigset64_t"
    }
   ],
   "return_type" : "_ZTIi",
   "source_file" : "bionic/libc/include/signal.h"
  },
  {
   "function_name" : "sigprocmask",
   "linker_set_key" : "sigprocmask",
   "parameters" :
   [
    {
     "referenced_type" : "_ZTIi"
    },
    {
     "referenced_type" : "_ZTIPKm"
    },
    {
     "referenced_type" : "_ZTIPm"
    }
   ],
   "return_type" : "_ZTIi",
   "source_file" : "bionic/libc/include/signal.h"
  },
  {
   "function_name" : "sigprocmask64",
   "linker_set_key" : "sigprocmask64",
   "parameters" :
   [
    {
     "referenced_type" : "_ZTIi"
    },
    {
     "referenced_type" : "_ZTIPK10sigset64_t"
    },
    {
     "referenced_type" : "_ZTIP10sigset64_t"
    }
   ],
   "return_type" : "_ZTIi",
   "source_file" : "bionic/libc/include/signal.h"
  },
  {
   "function_name" : "sigqueue",
   "linker_set_key" : "sigqueue",
   "parameters" :
   [
    {
     "referenced_type" : "_ZTIi"
    },
    {
     "referenced_type" : "_ZTIi"
    },
    {
     "referenced_type" : "_ZTIK6sigval"
    }
   ],
   "return_type" : "_ZTIi",
   "source_file" : "bionic/libc/include/signal.h"
  },
  {
   "function_name" : "sigrelse",
   "linker_set_key" : "sigrelse",
   "parameters" :
   [
    {
     "referenced_type" : "_ZTIi"
    }
   ],
   "return_type" : "_ZTIi",
   "source_file" : "bionic/libc/include/signal.h"
  },
  {
   "function_name" : "sigset",
   "linker_set_key" : "sigset",
   "parameters" :
   [
    {
     "referenced_type" : "_ZTIi"
    },
    {
     "referenced_type" : "_ZTIPFviE"
    }
   ],
   "return_type" : "_ZTIPFviE",
   "source_file" : "bionic/libc/include/signal.h"
  },
  {
   "function_name" : "sigsuspend",
   "linker_set_key" : "sigsuspend",
   "parameters" :
   [
    {
     "referenced_type" : "_ZTIPKm"
    }
   ],
   "return_type" : "_ZTIi",
   "source_file" : "bionic/libc/include/signal.h"
  },
  {
   "function_name" : "sigsuspend64",
   "linker_set_key" : "sigsuspend64",
   "parameters" :
   [
    {
     "referenced_type" : "_ZTIPK10sigset64_t"
    }
   ],
   "return_type" : "_ZTIi",
   "source_file" : "bionic/libc/include/signal.h"
  },
  {
   "function_name" : "sigtimedwait",
   "linker_set_key" : "sigtimedwait",
   "parameters" :
   [
    {
